
C:\Users\andre\AppData\Local\Temp\VMBuilds\LEDgit_Neomatrix\teensypp2\Release/LEDgit_Neomatrix.ino.elf:     file format elf32-avr


Disassembly of section .text:

00000000 <__vectors>:
       0:	f5 c6       	rjmp	.+3562   	; 0xdec <__dtors_end>
       2:	00 00       	nop
       4:	1d c7       	rjmp	.+3642   	; 0xe40 <__bad_interrupt>
       6:	00 00       	nop
       8:	1b c7       	rjmp	.+3638   	; 0xe40 <__bad_interrupt>
       a:	00 00       	nop
       c:	19 c7       	rjmp	.+3634   	; 0xe40 <__bad_interrupt>
       e:	00 00       	nop
      10:	17 c7       	rjmp	.+3630   	; 0xe40 <__bad_interrupt>
      12:	00 00       	nop
      14:	15 c7       	rjmp	.+3626   	; 0xe40 <__bad_interrupt>
      16:	00 00       	nop
      18:	13 c7       	rjmp	.+3622   	; 0xe40 <__bad_interrupt>
      1a:	00 00       	nop
      1c:	11 c7       	rjmp	.+3618   	; 0xe40 <__bad_interrupt>
      1e:	00 00       	nop
      20:	0f c7       	rjmp	.+3614   	; 0xe40 <__bad_interrupt>
      22:	00 00       	nop
      24:	0d c7       	rjmp	.+3610   	; 0xe40 <__bad_interrupt>
      26:	00 00       	nop
      28:	0c 94 46 4a 	jmp	0x948c	; 0x948c <__vector_10>
      2c:	0c 94 c3 4a 	jmp	0x9586	; 0x9586 <__vector_11>
      30:	07 c7       	rjmp	.+3598   	; 0xe40 <__bad_interrupt>
      32:	00 00       	nop
      34:	05 c7       	rjmp	.+3594   	; 0xe40 <__bad_interrupt>
      36:	00 00       	nop
      38:	03 c7       	rjmp	.+3590   	; 0xe40 <__bad_interrupt>
      3a:	00 00       	nop
      3c:	01 c7       	rjmp	.+3586   	; 0xe40 <__bad_interrupt>
      3e:	00 00       	nop
      40:	ff c6       	rjmp	.+3582   	; 0xe40 <__bad_interrupt>
      42:	00 00       	nop
      44:	fd c6       	rjmp	.+3578   	; 0xe40 <__bad_interrupt>
      46:	00 00       	nop
      48:	fb c6       	rjmp	.+3574   	; 0xe40 <__bad_interrupt>
      4a:	00 00       	nop
      4c:	f9 c6       	rjmp	.+3570   	; 0xe40 <__bad_interrupt>
      4e:	00 00       	nop
      50:	f7 c6       	rjmp	.+3566   	; 0xe40 <__bad_interrupt>
      52:	00 00       	nop
      54:	f5 c6       	rjmp	.+3562   	; 0xe40 <__bad_interrupt>
      56:	00 00       	nop
      58:	f3 c6       	rjmp	.+3558   	; 0xe40 <__bad_interrupt>
      5a:	00 00       	nop
      5c:	0c 94 a5 49 	jmp	0x934a	; 0x934a <__vector_23>
      60:	ef c6       	rjmp	.+3550   	; 0xe40 <__bad_interrupt>
      62:	00 00       	nop
      64:	0c 94 01 4d 	jmp	0x9a02	; 0x9a02 <__vector_25>
      68:	0c 94 2c 4d 	jmp	0x9a58	; 0x9a58 <__vector_26>
      6c:	0c 94 5d 4d 	jmp	0x9aba	; 0x9aba <__vector_27>
      70:	e7 c6       	rjmp	.+3534   	; 0xe40 <__bad_interrupt>
      72:	00 00       	nop
      74:	e5 c6       	rjmp	.+3530   	; 0xe40 <__bad_interrupt>
      76:	00 00       	nop
      78:	e3 c6       	rjmp	.+3526   	; 0xe40 <__bad_interrupt>
      7a:	00 00       	nop
      7c:	e1 c6       	rjmp	.+3522   	; 0xe40 <__bad_interrupt>
      7e:	00 00       	nop
      80:	0c 94 b7 1b 	jmp	0x376e	; 0x376e <__vector_32>
      84:	dd c6       	rjmp	.+3514   	; 0xe40 <__bad_interrupt>
      86:	00 00       	nop
      88:	db c6       	rjmp	.+3510   	; 0xe40 <__bad_interrupt>
      8a:	00 00       	nop
      8c:	d9 c6       	rjmp	.+3506   	; 0xe40 <__bad_interrupt>
      8e:	00 00       	nop
      90:	d7 c6       	rjmp	.+3502   	; 0xe40 <__bad_interrupt>
      92:	00 00       	nop
      94:	d5 c6       	rjmp	.+3498   	; 0xe40 <__bad_interrupt>
	...

00000098 <MatrixColors_p>:
      98:	00 10 00 00 00 30 00 00 00 50 00 00 00 70 00 00     .....0...P...p..
      a8:	00 80 00 00 00 80 00 00 00 80 00 00 19 8d 19 00     ................
      b8:	33 99 33 00 4d a6 4d 00 66 b3 66 00 80 c0 80 00     3.3.M.M.f.f.....
      c8:	99 cc 99 00 b3 d9 b3 00 cc e6 cc 00 e6 f2 e6 00     ................

000000d8 <RGB_bmp>:
      d8:	00 01 00 02 00 03 00 04 00 06 00 08 00 0a 00 0f     ................
      e8:	01 01 02 02 03 03 04 04 06 06 08 08 0a 0a 0f 0f     ................
      f8:	01 00 02 00 03 00 04 00 06 00 08 00 0a 00 0f 00     ................
     108:	11 00 22 00 33 00 44 00 66 00 88 00 aa 00 ff 00     ..".3.D.f.......
     118:	10 00 20 00 30 00 40 00 60 00 80 00 a0 00 f0 00     .. .0.@.`.......
     128:	10 01 20 02 30 03 40 04 60 06 80 08 a0 0a f0 0f     .. .0.@.`.......
     138:	00 01 00 02 00 03 00 04 00 06 00 08 00 0a 00 0f     ................
     148:	11 01 22 02 33 03 44 04 66 06 88 08 aa 0a ff 0f     ..".3.D.f.......
     158:	11 01 22 02 33 03 55 05 77 07 99 09 aa 0a ff 0f     ..".3.U.w.......
     168:	22 02 22 02 33 03 55 05 77 07 99 09 aa 0a ff 0f     ".".3.U.w.......
     178:	33 03 33 03 33 03 55 05 77 07 99 09 aa 0a ff 0f     3.3.3.U.w.......
     188:	55 05 55 05 55 05 55 05 77 07 99 09 aa 0a ff 0f     U.U.U.U.w.......
     198:	77 07 77 07 77 07 77 07 77 07 99 09 aa 0a ff 0f     w.w.w.w.w.......
     1a8:	99 09 99 09 99 09 99 09 99 09 99 09 aa 0a ff 0f     ................
     1b8:	aa 0a aa 0a aa 0a aa 0a aa 0a aa 0a aa 0a ff 0f     ................
     1c8:	ff 0f ff 0f ff 0f ff 0f ff 0f ff 0f ff 0f ff 0f     ................
     1d8:	01 00 02 00 03 00 05 00 07 00 09 00 0a 00 0f 00     ................
     1e8:	02 00 02 00 03 00 05 00 07 00 09 00 0a 00 0f 00     ................
     1f8:	03 00 03 00 03 00 05 00 07 00 09 00 0a 00 0f 00     ................
     208:	05 00 05 00 05 00 05 00 07 00 09 00 0a 00 0f 00     ................
     218:	07 00 07 00 07 00 07 00 07 00 09 00 0a 00 0f 00     ................
     228:	09 00 09 00 09 00 09 00 09 00 09 00 0a 00 0f 00     ................
     238:	0a 00 0a 00 0a 00 0a 00 0a 00 0a 00 0a 00 0f 00     ................
     248:	0f 00 0f 00 0f 00 0f 00 0f 00 0f 00 0f 00 0f 00     ................
     258:	10 00 20 00 30 00 50 00 70 00 90 00 a0 00 f0 00     .. .0.P.p.......
     268:	20 00 20 00 30 00 50 00 70 00 90 00 a0 00 f0 00      . .0.P.p.......
     278:	30 00 30 00 30 00 50 00 70 00 90 00 a0 00 f0 00     0.0.0.P.p.......
     288:	50 00 50 00 50 00 50 00 70 00 90 00 a0 00 f0 00     P.P.P.P.p.......
     298:	70 00 70 00 70 00 70 00 70 00 90 00 a0 00 f0 00     p.p.p.p.p.......
     2a8:	90 00 90 00 90 00 90 00 90 00 90 00 a0 00 f0 00     ................
     2b8:	a0 00 a0 00 a0 00 a0 00 a0 00 a0 00 a0 00 f0 00     ................
     2c8:	f0 00 f0 00 f0 00 f0 00 f0 00 f0 00 f0 00 f0 00     ................
     2d8:	00 01 00 02 00 03 00 05 00 07 00 09 00 0a 00 0f     ................
     2e8:	00 02 00 02 00 03 00 05 00 07 00 09 00 0a 00 0f     ................
     2f8:	00 03 00 03 00 03 00 05 00 07 00 09 00 0a 00 0f     ................
     308:	00 05 00 05 00 05 00 05 00 07 00 09 00 0a 00 0f     ................
     318:	00 07 00 07 00 07 00 07 00 07 00 09 00 0a 00 0f     ................
     328:	00 09 00 09 00 09 00 09 00 09 00 09 00 0a 00 0f     ................
     338:	00 0a 00 0a 00 0a 00 0a 00 0a 00 0a 00 0a 00 0f     ................
     348:	00 0f 00 0f 00 0f 00 0f 00 0f 00 0f 00 0f 00 0f     ................
     358:	00 00 00 02 00 00 00 04 00 00 00 08 00 00 00 0f     ................
     368:	00 00 01 02 02 00 03 04 04 00 05 08 06 00 07 0f     ................
     378:	08 00 09 02 0a 00 0b 04 0c 00 0d 08 0e 00 0f 0f     ................
     388:	00 00 11 02 22 00 33 04 44 00 55 08 66 00 77 0f     ....".3.D.U.f.w.
     398:	88 00 99 02 aa 00 bb 04 cc 00 dd 08 ee 00 ff 0f     ................
     3a8:	00 00 10 02 20 00 30 04 40 00 50 08 60 00 70 0f     .... .0.@.P.`.p.
     3b8:	80 00 90 02 a0 00 b0 04 c0 00 d0 08 e0 00 f0 0f     ................
     3c8:	00 00 00 02 00 00 00 05 00 00 00 08 00 00 00 0f     ................
     3d8:	00 00 00 00 01 00 01 00 02 00 02 00 03 00 03 00     ................
     3e8:	04 00 04 00 05 00 05 00 06 00 06 00 07 00 07 00     ................
     3f8:	08 00 08 00 09 00 09 00 0a 00 0a 00 0b 00 0b 00     ................
     408:	0c 00 0c 00 0d 00 0d 00 0e 00 0e 00 0f 00 0f 00     ................
     418:	00 00 00 00 10 00 10 00 20 00 20 00 30 00 30 00     ........ . .0.0.
     428:	40 00 40 00 50 00 50 00 60 00 60 00 70 00 70 00     @.@.P.P.`.`.p.p.
     438:	80 00 80 00 90 00 90 00 a0 00 a0 00 b0 00 b0 00     ................
     448:	c0 00 c0 00 d0 00 d0 00 e0 00 e0 00 f0 00 f0 00     ................
     458:	00 00 00 00 01 00 01 00 02 00 02 00 03 00 03 00     ................
     468:	04 00 04 00 05 00 05 00 06 00 06 00 07 00 07 00     ................
     478:	08 00 08 00 09 00 09 00 0a 00 0a 00 0b 00 0b 00     ................
     488:	0c 00 0c 00 0d 00 0d 00 0e 00 0e 00 0f 00 0f 00     ................
     498:	00 00 00 00 00 01 00 01 00 02 00 02 00 03 00 03     ................
     4a8:	00 04 00 04 00 05 00 05 00 06 00 06 00 07 00 07     ................
     4b8:	00 08 00 08 00 09 00 09 00 0a 00 0a 00 0b 00 0b     ................
     4c8:	00 0c 00 0c 00 0d 00 0d 00 0e 00 0e 00 0f 00 0f     ................
     4d8:	00 0f 01 00 03 00 05 00 07 00 0a 00 0f 00 00 00     ................
     4e8:	20 00 21 0f 23 00 25 00 27 00 2a 00 2f 00 20 00      .!.#.%.'.*./. .
     4f8:	40 00 41 00 43 0f 45 00 47 00 4a 00 4f 00 40 00     @.A.C.E.G.J.O.@.
     508:	60 00 61 00 63 00 65 0f 67 00 6a 00 6f 00 60 00     `.a.c.e.g.j.o.`.
     518:	80 00 81 00 83 00 85 00 87 0f 8a 00 8f 00 80 00     ................
     528:	a0 00 a1 00 a3 00 a5 00 a7 00 aa 0f af 00 a0 00     ................
     538:	f0 00 f1 00 f3 00 f5 00 f7 00 fa 00 ff 0f f0 00     ................
     548:	00 00 01 00 03 00 05 00 07 00 0a 00 0f 00 00 0f     ................
     558:	f0 00 f0 00 ff 00 ff 00 0f 00 0f 00 f0 00 f0 00     ................
     568:	f0 00 f0 00 ff 00 ff 00 0f 00 0f 00 f0 00 f0 00     ................
     578:	f0 00 f0 00 ff 00 ff 00 0f 00 0f 00 f0 00 f0 00     ................
     588:	f0 00 f0 00 ff 00 ff 00 0f 00 0f 00 f0 00 f0 00     ................
     598:	f0 00 f0 00 ff 00 ff 00 0f 00 0f 00 f0 00 f0 00     ................
     5a8:	f0 00 f0 00 ff 00 ff 00 0f 00 0f 00 f0 00 f0 00     ................
     5b8:	f0 00 f0 00 ff 00 ff 00 0f 00 0f 00 f0 00 f0 00     ................
     5c8:	f0 00 f0 00 ff 00 ff 00 0f 00 0f 00 f0 00 f0 00     ................
     5d8:	00 00 00 00 0f 00 0f 00 0f 00 0f 00 00 00 00 00     ................
     5e8:	00 00 0f 00 00 00 00 00 00 00 00 00 0f 00 00 00     ................
     5f8:	0f 00 00 00 00 0f 00 00 00 00 00 0f 00 00 0f 00     ................
     608:	0f 00 00 00 00 00 00 00 00 00 00 00 00 00 0f 00     ................
     618:	0f 00 00 00 f0 00 00 00 00 00 f0 00 00 00 0f 00     ................
     628:	0f 00 00 00 00 00 f4 00 f3 00 00 00 00 00 0f 00     ................
     638:	00 00 0f 00 00 00 00 00 00 00 00 00 0f 00 00 00     ................
     648:	00 00 00 00 0f 00 0f 00 0f 00 0f 00 00 00 00 00     ................

00000658 <font>:
     658:	00 00 00 00 00 3e 5b 4f 5b 3e 3e 6b 4f 6b 3e 1c     .....>[O[>>kOk>.
     668:	3e 7c 3e 1c 18 3c 7e 3c 18 1c 57 7d 57 1c 1c 5e     >|>..<~<..W}W..^
     678:	7f 5e 1c 00 18 3c 18 00 ff e7 c3 e7 ff 00 18 24     .^...<.........$
     688:	18 00 ff e7 db e7 ff 30 48 3a 06 0e 26 29 79 29     .......0H:..&)y)
     698:	26 40 7f 05 05 07 40 7f 05 25 3f 5a 3c e7 3c 5a     &@....@..%?Z<.<Z
     6a8:	7f 3e 1c 1c 08 08 1c 1c 3e 7f 14 22 7f 22 14 5f     .>......>.."."._
     6b8:	5f 00 5f 5f 06 09 7f 01 7f 00 66 89 95 6a 60 60     _.__......f..j``
     6c8:	60 60 60 94 a2 ff a2 94 08 04 7e 04 08 10 20 7e     ```.......~... ~
     6d8:	20 10 08 08 2a 1c 08 08 1c 2a 08 08 1e 10 10 10      ...*....*......
     6e8:	10 0c 1e 0c 1e 0c 30 38 3e 38 30 06 0e 3e 0e 06     ......08>80..>..
     6f8:	00 00 00 00 00 00 00 5f 00 00 00 07 00 07 00 14     ......._........
     708:	7f 14 7f 14 24 2a 7f 2a 12 23 13 08 64 62 36 49     ....$*.*.#..db6I
     718:	56 20 50 00 08 07 03 00 00 1c 22 41 00 00 41 22     V P......."A..A"
     728:	1c 00 2a 1c 7f 1c 2a 08 08 3e 08 08 00 80 70 30     ..*...*..>....p0
     738:	00 08 08 08 08 08 00 00 60 60 00 20 10 08 04 02     ........``. ....
     748:	3e 51 49 45 3e 00 42 7f 40 00 72 49 49 49 46 21     >QIE>.B.@.rIIIF!
     758:	41 49 4d 33 18 14 12 7f 10 27 45 45 45 39 3c 4a     AIM3.....'EEE9<J
     768:	49 49 31 41 21 11 09 07 36 49 49 49 36 46 49 49     II1A!...6III6FII
     778:	29 1e 00 00 14 00 00 00 40 34 00 00 00 08 14 22     ).......@4....."
     788:	41 14 14 14 14 14 00 41 22 14 08 02 01 59 09 06     A......A"....Y..
     798:	3e 41 5d 59 4e 7c 12 11 12 7c 7f 49 49 49 36 3e     >A]YN|...|.III6>
     7a8:	41 41 41 22 7f 41 41 41 3e 7f 49 49 49 41 7f 09     AAA".AAA>.IIIA..
     7b8:	09 09 01 3e 41 41 51 73 7f 08 08 08 7f 00 41 7f     ...>AAQs......A.
     7c8:	41 00 20 40 41 3f 01 7f 08 14 22 41 7f 40 40 40     A. @A?...."A.@@@
     7d8:	40 7f 02 1c 02 7f 7f 04 08 10 7f 3e 41 41 41 3e     @..........>AAA>
     7e8:	7f 09 09 09 06 3e 41 51 21 5e 7f 09 19 29 46 26     .....>AQ!^...)F&
     7f8:	49 49 49 32 03 01 7f 01 03 3f 40 40 40 3f 1f 20     III2.....?@@@?. 
     808:	40 20 1f 3f 40 38 40 3f 63 14 08 14 63 03 04 78     @ .?@8@?c...c..x
     818:	04 03 61 59 49 4d 43 00 7f 41 41 41 02 04 08 10     ..aYIMC..AAA....
     828:	20 00 41 41 41 7f 04 02 01 02 04 40 40 40 40 40      .AAA......@@@@@
     838:	00 03 07 08 00 20 54 54 78 40 7f 28 44 44 38 38     ..... TTx@.(DD88
     848:	44 44 44 28 38 44 44 28 7f 38 54 54 54 18 00 08     DDD(8DD(.8TTT...
     858:	7e 09 02 18 a4 a4 9c 78 7f 08 04 04 78 00 44 7d     ~......x....x.D}
     868:	40 00 20 40 40 3d 00 7f 10 28 44 00 00 41 7f 40     @. @@=...(D..A.@
     878:	00 7c 04 78 04 78 7c 08 04 04 78 38 44 44 44 38     .|.x.x|...x8DDD8
     888:	fc 18 24 24 18 18 24 24 18 fc 7c 08 04 04 08 48     ..$$..$$..|....H
     898:	54 54 54 24 04 04 3f 44 24 3c 40 40 20 7c 1c 20     TTT$..?D$<@@ |. 
     8a8:	40 20 1c 3c 40 30 40 3c 44 28 10 28 44 4c 90 90     @ .<@0@<D(.(DL..
     8b8:	90 7c 44 64 54 4c 44 00 08 36 41 00 00 00 77 00     .|DdTLD..6A...w.
     8c8:	00 00 41 36 08 00 02 01 02 04 02 3c 26 23 26 3c     ..A6.......<&#&<
     8d8:	1e a1 a1 61 12 3a 40 40 20 7a 38 54 54 55 59 21     ...a.:@@ z8TTUY!
     8e8:	55 55 79 41 22 54 54 78 42 21 55 54 78 40 20 54     UUyA"TTxB!UTx@ T
     8f8:	55 79 40 0c 1e 52 72 12 39 55 55 55 59 39 54 54     Uy@..Rr.9UUUY9TT
     908:	54 59 39 55 54 54 58 00 00 45 7c 41 00 02 45 7d     TY9UTTX..E|A..E}
     918:	42 00 01 45 7c 40 7d 12 11 12 7d f0 28 25 28 f0     B..E|@}...}.(%(.
     928:	7c 54 55 45 00 20 54 54 7c 54 7c 0a 09 7f 49 32     |TUE. TT|T|...I2
     938:	49 49 49 32 3a 44 44 44 3a 32 4a 48 48 30 3a 41     III2:DDD:2JHH0:A
     948:	41 21 7a 3a 42 40 20 78 00 9d a0 a0 7d 3d 42 42     A!z:B@ x....}=BB
     958:	42 3d 3d 40 40 40 3d 3c 24 ff 24 24 48 7e 49 43     B==@@@=<$.$$H~IC
     968:	66 2b 2f fc 2f 2b ff 09 29 f6 20 c0 88 7e 09 03     f+/./+..). ..~..
     978:	20 54 54 79 41 00 00 44 7d 41 30 48 48 4a 32 38      TTyA..D}A0HHJ28
     988:	40 40 22 7a 00 7a 0a 0a 72 7d 0d 19 31 7d 26 29     @@"z.z..r}..1}&)
     998:	29 2f 28 26 29 29 29 26 30 48 4d 40 20 38 08 08     )/(&)))&0HM@ 8..
     9a8:	08 08 08 08 08 08 38 2f 10 c8 ac ba 2f 10 28 34     ......8/..../.(4
     9b8:	fa 00 00 7b 00 00 08 14 2a 14 22 22 14 2a 14 08     ...{....*."".*..
     9c8:	55 00 55 00 55 aa 55 aa 55 aa ff 55 ff 55 ff 00     U.U.U.U.U..U.U..
     9d8:	00 00 ff 00 10 10 10 ff 00 14 14 14 ff 00 10 10     ................
     9e8:	ff 00 ff 10 10 f0 10 f0 14 14 14 fc 00 14 14 f7     ................
     9f8:	00 ff 00 00 ff 00 ff 14 14 f4 04 fc 14 14 17 10     ................
     a08:	1f 10 10 1f 10 1f 14 14 14 1f 00 10 10 10 f0 00     ................
     a18:	00 00 00 1f 10 10 10 10 1f 10 10 10 10 f0 10 00     ................
     a28:	00 00 ff 10 10 10 10 10 10 10 10 10 ff 10 00 00     ................
     a38:	00 ff 14 00 00 ff 00 ff 00 00 1f 10 17 00 00 fc     ................
     a48:	04 f4 14 14 17 10 17 14 14 f4 04 f4 00 00 ff 00     ................
     a58:	f7 14 14 14 14 14 14 14 f7 00 f7 14 14 14 17 14     ................
     a68:	10 10 1f 10 1f 14 14 14 f4 14 10 10 f0 10 f0 00     ................
     a78:	00 1f 10 1f 00 00 00 1f 14 00 00 00 fc 14 00 00     ................
     a88:	f0 10 f0 10 10 ff 10 ff 14 14 14 ff 14 10 10 10     ................
     a98:	1f 00 00 00 00 f0 10 ff ff ff ff ff f0 f0 f0 f0     ................
     aa8:	f0 ff ff ff 00 00 00 00 00 ff ff 0f 0f 0f 0f 0f     ................
     ab8:	38 44 44 38 44 fc 4a 4a 4a 34 7e 02 02 06 06 02     8DD8D.JJJ4~.....
     ac8:	7e 02 7e 02 63 55 49 41 63 38 44 44 3c 04 40 7e     ~.~.cUIAc8DD<.@~
     ad8:	20 1e 20 06 02 7e 02 02 99 a5 e7 a5 99 1c 2a 49      . ..~........*I
     ae8:	2a 1c 4c 72 01 72 4c 30 4a 4d 4d 30 30 48 78 48     *.Lr.rL0JMM00HxH
     af8:	30 bc 62 5a 46 3d 3e 49 49 49 00 7e 01 01 01 7e     0.bZF=>III.~...~
     b08:	2a 2a 2a 2a 2a 44 44 5f 44 44 40 51 4a 44 40 40     *****DD_DD@QJD@@
     b18:	44 4a 51 40 00 00 ff 01 03 e0 80 ff 00 00 08 08     DJQ@............
     b28:	6b 6b 08 36 12 36 24 36 06 0f 09 0f 06 00 00 18     kk.6.6$6........
     b38:	18 00 00 00 10 10 00 30 40 ff 01 01 00 1f 01 01     .......0@.......
     b48:	1e 00 19 1d 17 12 00 3c 3c 3c 3c 00 00 00 00 00     .......<<<<.....

00000b58 <gamma6>:
     b58:	00 01 02 03 04 05 06 08 09 0a 0b 0d 0e 10 12 13     ................
     b68:	15 17 19 1b 1d 20 22 25 27 2a 2d 30 33 37 3a 3e     ..... "%'*-037:>
     b78:	41 45 49 4d 52 56 5b 5f 64 69 6e 74 79 7f 85 8b     AEIMRV[_dinty...
     b88:	91 97 9d a4 ab b2 b9 c0 c7 cf d6 de e6 ee f7 ff     ................

00000b98 <gamma5>:
     b98:	00 01 02 03 05 07 09 0b 0e 11 14 18 1d 22 28 2e     ............."(.
     ba8:	36 3d 46 4f 59 64 6f 7c 89 97 a6 b6 c7 d9 eb ff     6=FOYdo|........

00000bb8 <PartyColors_p>:
     bb8:	ab 00 55 00 7c 00 84 00 4b 00 b5 00 1b 00 e5 00     ..U.|...K.......
     bc8:	00 17 e8 00 00 47 b8 00 00 77 ab 00 00 ab ab 00     .....G...w......
     bd8:	00 55 ab 00 00 22 dd 00 0e 00 f2 00 3e 00 c2 00     .U..."......>...
     be8:	71 00 8f 00 a1 00 5f 00 d0 00 2f 00 f9 07 00 00     q....._.../.....

00000bf8 <RainbowStripeColors_p>:
     bf8:	00 00 ff 00 00 00 00 00 00 55 ab 00 00 00 00 00     .........U......
     c08:	00 ab ab 00 00 00 00 00 00 ff 00 00 00 00 00 00     ................
     c18:	55 ab 00 00 00 00 00 00 ff 00 00 00 00 00 00 00     U...............
     c28:	ab 00 55 00 00 00 00 00 55 00 ab 00 00 00 00 00     ..U.....U.......

00000c38 <RainbowColors_p>:
     c38:	00 00 ff 00 00 2a d5 00 00 55 ab 00 00 7f ab 00     .....*...U......
     c48:	00 ab ab 00 00 d5 56 00 00 ff 00 00 2a d5 00 00     ......V.....*...
     c58:	55 ab 00 00 aa 56 00 00 ff 00 00 00 d5 00 2a 00     U....V........*.
     c68:	ab 00 55 00 81 00 7f 00 55 00 ab 00 2b 00 d5 00     ..U.....U...+...

00000c78 <CloudColors_p>:
     c78:	ff 00 00 00 8b 00 00 00 8b 00 00 00 8b 00 00 00     ................
     c88:	8b 00 00 00 8b 00 00 00 8b 00 00 00 8b 00 00 00     ................
     c98:	ff 00 00 00 8b 00 00 00 eb ce 87 00 eb ce 87 00     ................
     ca8:	e6 d8 ad 00 ff ff ff 00 e6 d8 ad 00 eb ce 87 00     ................

00000cb8 <digital_pin_table_PGM>:
     cb8:	01 29 02 29 04 29 08 29 10 29 20 29 40 29 80 29     .).).).).) )@).)
     cc8:	01 2c 02 2c 01 26 02 26 04 26 08 26 10 26 20 26     .,.,.&.&.&.&.& &
     cd8:	40 26 80 26 40 2c 80 2c 01 23 02 23 04 23 08 23     @&.&@,.,.#.#.#.#
     ce8:	10 23 20 23 40 23 80 23 01 20 02 20 04 20 08 20     .# #@#.#. . . . 
     cf8:	10 20 20 20 40 20 80 20 10 2c 20 2c 01 2f 02 2f     .   @ . ., ,././
     d08:	04 2f 08 2f 10 2f 20 2f 40 2f 80 2f                 ./././ /@/./

00000d14 <descriptor_list>:
     d14:	00 01 00 00 c5 0d 12 00 02 00 00 82 0d 43 00 03     .............C..
     d24:	00 00 7e 0d 04 01 03 09 04 64 0d 18 02 03 09 04     ..~......d......
     d34:	4c 0d 16 03 03 09 04 3e 0d 0c                       L......>..

00000d3e <string3>:
     d3e:	0c 03 31 00 32 00 33 00 34 00 35 00 00 00           ..1.2.3.4.5...

00000d4c <string2>:
     d4c:	16 03 55 00 53 00 42 00 20 00 53 00 65 00 72 00     ..U.S.B. .S.e.r.
     d5c:	69 00 61 00 6c 00 00 00                             i.a.l...

00000d64 <string1>:
     d64:	18 03 54 00 65 00 65 00 6e 00 73 00 79 00 64 00     ..T.e.e.n.s.y.d.
     d74:	75 00 69 00 6e 00 6f 00 00 00                       u.i.n.o...

00000d7e <string0>:
     d7e:	04 03 09 04                                         ....

00000d82 <config1_descriptor>:
     d82:	09 02 43 00 02 01 00 c0 32 09 04 00 00 01 02 02     ..C.....2.......
     d92:	01 00 05 24 00 10 01 05 24 01 00 01 04 24 02 06     ...$....$....$..
     da2:	05 24 06 00 01 07 05 82 03 08 00 40 09 04 01 00     .$.........@....
     db2:	02 0a 00 00 00 07 05 03 02 40 00 00 07 05 84 02     .........@......
     dc2:	40 00 00                                            @..

00000dc5 <device_descriptor>:
     dc5:	12 01 00 02 02 00 00 20 c0 16 83 04 72 02 01 02     ....... ....r...
     dd5:	03 01                                               ..

00000dd7 <endpoint_config_table>:
     dd7:	00 01 c1 02 01 80 36 01 81 36 00                    ......6..6.

00000de2 <__ctors_start>:
     de2:	a3 35       	cpi	r26, 0x53	; 83
     de4:	21 45       	sbci	r18, 0x51	; 81
     de6:	7b 4d       	sbci	r23, 0xDB	; 219
     de8:	40 50       	subi	r20, 0x00	; 0

00000dea <__ctors_end>:
     dea:	1e 36       	cpi	r17, 0x6E	; 110

00000dec <__dtors_end>:
     dec:	11 24       	eor	r1, r1
     dee:	1f be       	out	0x3f, r1	; 63
     df0:	cf ef       	ldi	r28, 0xFF	; 255
     df2:	d0 e2       	ldi	r29, 0x20	; 32
     df4:	de bf       	out	0x3e, r29	; 62
     df6:	cd bf       	out	0x3d, r28	; 61

00000df8 <__do_copy_data>:
     df8:	19 e0       	ldi	r17, 0x09	; 9
     dfa:	a0 e0       	ldi	r26, 0x00	; 0
     dfc:	b1 e0       	ldi	r27, 0x01	; 1
     dfe:	ee eb       	ldi	r30, 0xBE	; 190
     e00:	f8 ea       	ldi	r31, 0xA8	; 168
     e02:	00 e0       	ldi	r16, 0x00	; 0
     e04:	0b bf       	out	0x3b, r16	; 59
     e06:	02 c0       	rjmp	.+4      	; 0xe0c <__do_copy_data+0x14>
     e08:	07 90       	elpm	r0, Z+
     e0a:	0d 92       	st	X+, r0
     e0c:	a2 3e       	cpi	r26, 0xE2	; 226
     e0e:	b1 07       	cpc	r27, r17
     e10:	d9 f7       	brne	.-10     	; 0xe08 <__do_copy_data+0x10>

00000e12 <__do_clear_bss>:
     e12:	21 e1       	ldi	r18, 0x11	; 17
     e14:	a2 ee       	ldi	r26, 0xE2	; 226
     e16:	b9 e0       	ldi	r27, 0x09	; 9
     e18:	01 c0       	rjmp	.+2      	; 0xe1c <.do_clear_bss_start>

00000e1a <.do_clear_bss_loop>:
     e1a:	1d 92       	st	X+, r1

00000e1c <.do_clear_bss_start>:
     e1c:	a6 37       	cpi	r26, 0x76	; 118
     e1e:	b2 07       	cpc	r27, r18
     e20:	e1 f7       	brne	.-8      	; 0xe1a <.do_clear_bss_loop>

00000e22 <__do_global_ctors>:
     e22:	16 e0       	ldi	r17, 0x06	; 6
     e24:	c5 ef       	ldi	r28, 0xF5	; 245
     e26:	d6 e0       	ldi	r29, 0x06	; 6
     e28:	04 c0       	rjmp	.+8      	; 0xe32 <__do_global_ctors+0x10>
     e2a:	21 97       	sbiw	r28, 0x01	; 1
     e2c:	fe 01       	movw	r30, r28
     e2e:	0e 94 68 53 	call	0xa6d0	; 0xa6d0 <__tablejump2__>
     e32:	c1 3f       	cpi	r28, 0xF1	; 241
     e34:	d1 07       	cpc	r29, r17
     e36:	c9 f7       	brne	.-14     	; 0xe2a <__do_global_ctors+0x8>
     e38:	0e 94 8c 4d 	call	0x9b18	; 0x9b18 <main>
     e3c:	0c 94 53 54 	jmp	0xa8a6	; 0xa8a6 <__do_global_dtors>

00000e40 <__bad_interrupt>:
     e40:	df c8       	rjmp	.-3650   	; 0x0 <__vectors>

00000e42 <CLEDController::size()>:
				}
			}
		}
	} while (Serial1.available());
}

     e42:	fc 01       	movw	r30, r24
     e44:	85 85       	ldd	r24, Z+13	; 0x0d
     e46:	96 85       	ldd	r25, Z+14	; 0x0e
     e48:	08 95       	ret

00000e4a <CLEDController::clearLeds(int)>:
     e4a:	cf 93       	push	r28
     e4c:	df 93       	push	r29
     e4e:	00 d0       	rcall	.+0      	; 0xe50 <CLEDController::clearLeds(int)+0x6>
     e50:	00 d0       	rcall	.+0      	; 0xe52 <CLEDController::clearLeds(int)+0x8>
     e52:	00 d0       	rcall	.+0      	; 0xe54 <CLEDController::clearLeds(int)+0xa>
     e54:	cd b7       	in	r28, 0x3d	; 61
     e56:	de b7       	in	r29, 0x3e	; 62
     e58:	ab 01       	movw	r20, r22
     e5a:	1c 82       	std	Y+4, r1	; 0x04
     e5c:	1d 82       	std	Y+5, r1	; 0x05
     e5e:	1e 82       	std	Y+6, r1	; 0x06
     e60:	dc 01       	movw	r26, r24
     e62:	ed 91       	ld	r30, X+
     e64:	fc 91       	ld	r31, X
     e66:	01 90       	ld	r0, Z+
     e68:	f0 81       	ld	r31, Z
     e6a:	e0 2d       	mov	r30, r0
     e6c:	19 82       	std	Y+1, r1	; 0x01
     e6e:	1a 82       	std	Y+2, r1	; 0x02
     e70:	1b 82       	std	Y+3, r1	; 0x03
     e72:	9e 01       	movw	r18, r28
     e74:	2f 5f       	subi	r18, 0xFF	; 255
     e76:	3f 4f       	sbci	r19, 0xFF	; 255
     e78:	be 01       	movw	r22, r28
     e7a:	6c 5f       	subi	r22, 0xFC	; 252
     e7c:	7f 4f       	sbci	r23, 0xFF	; 255
     e7e:	09 95       	icall
     e80:	26 96       	adiw	r28, 0x06	; 6
     e82:	0f b6       	in	r0, 0x3f	; 63
     e84:	f8 94       	cli
     e86:	de bf       	out	0x3e, r29	; 62
     e88:	0f be       	out	0x3f, r0	; 63
     e8a:	cd bf       	out	0x3d, r28	; 61
     e8c:	df 91       	pop	r29
     e8e:	cf 91       	pop	r28
     e90:	08 95       	ret

00000e92 <myRemapFn(unsigned int, unsigned int)>:
     e92:	67 31       	cpi	r22, 0x17	; 23
     e94:	71 05       	cpc	r23, r1
     e96:	08 f0       	brcs	.+2      	; 0xe9a <myRemapFn(unsigned int, unsigned int)+0x8>
     e98:	ef c0       	rjmp	.+478    	; 0x1078 <myRemapFn(unsigned int, unsigned int)+0x1e6>
     e9a:	fb 01       	movw	r30, r22
     e9c:	ee 5a       	subi	r30, 0xAE	; 174
     e9e:	f8 4f       	sbci	r31, 0xF8	; 248
     ea0:	0c 94 68 53 	jmp	0xa6d0	; 0xa6d0 <__tablejump2__>
     ea4:	69 07       	cpc	r22, r25
     ea6:	74 07       	cpc	r23, r20
     ea8:	7c 07       	cpc	r23, r28
     eaa:	89 07       	cpc	r24, r25
     eac:	94 07       	cpc	r25, r20
     eae:	9b 07       	cpc	r25, r27
     eb0:	a2 07       	cpc	r26, r18
     eb2:	a9 07       	cpc	r26, r25
     eb4:	b3 07       	cpc	r27, r19
     eb6:	bd 07       	cpc	r27, r29
     eb8:	c7 07       	cpc	r28, r23
     eba:	d1 07       	cpc	r29, r17
     ebc:	db 07       	cpc	r29, r27
     ebe:	e5 07       	cpc	r30, r21
     ec0:	ef 07       	cpc	r30, r31
     ec2:	f7 07       	cpc	r31, r23
     ec4:	ff 07       	cpc	r31, r31
     ec6:	06 08       	sbc	r0, r6
     ec8:	0d 08       	sbc	r0, r13
     eca:	14 08       	sbc	r1, r4
     ecc:	1e 08       	sbc	r1, r14
     ece:	28 08       	sbc	r2, r8
     ed0:	32 08       	sbc	r3, r2
     ed2:	04 97       	sbiw	r24, 0x04	; 4
     ed4:	83 30       	cpi	r24, 0x03	; 3
     ed6:	91 05       	cpc	r25, r1
     ed8:	08 f0       	brcs	.+2      	; 0xedc <myRemapFn(unsigned int, unsigned int)+0x4a>
     eda:	ce c0       	rjmp	.+412    	; 0x1078 <myRemapFn(unsigned int, unsigned int)+0x1e6>
     edc:	86 59       	subi	r24, 0x96	; 150
     ede:	9a 4f       	sbci	r25, 0xFA	; 250
     ee0:	fc 01       	movw	r30, r24
     ee2:	80 81       	ld	r24, Z
     ee4:	90 e0       	ldi	r25, 0x00	; 0
     ee6:	08 95       	ret
     ee8:	02 97       	sbiw	r24, 0x02	; 2
     eea:	86 30       	cpi	r24, 0x06	; 6
     eec:	91 05       	cpc	r25, r1
     eee:	08 f0       	brcs	.+2      	; 0xef2 <myRemapFn(unsigned int, unsigned int)+0x60>
     ef0:	c3 c0       	rjmp	.+390    	; 0x1078 <myRemapFn(unsigned int, unsigned int)+0x1e6>
     ef2:	8c 59       	subi	r24, 0x9C	; 156
     ef4:	9a 4f       	sbci	r25, 0xFA	; 250
     ef6:	f4 cf       	rjmp	.-24     	; 0xee0 <myRemapFn(unsigned int, unsigned int)+0x4e>
     ef8:	01 97       	sbiw	r24, 0x01	; 1
     efa:	83 31       	cpi	r24, 0x13	; 19
     efc:	91 05       	cpc	r25, r1
     efe:	08 f0       	brcs	.+2      	; 0xf02 <myRemapFn(unsigned int, unsigned int)+0x70>
     f00:	bb c0       	rjmp	.+374    	; 0x1078 <myRemapFn(unsigned int, unsigned int)+0x1e6>
     f02:	88 0f       	add	r24, r24
     f04:	99 1f       	adc	r25, r25
     f06:	fc 01       	movw	r30, r24
     f08:	e2 5c       	subi	r30, 0xC2	; 194
     f0a:	fa 4f       	sbci	r31, 0xFA	; 250
     f0c:	80 81       	ld	r24, Z
     f0e:	91 81       	ldd	r25, Z+1	; 0x01
     f10:	08 95       	ret
     f12:	01 97       	sbiw	r24, 0x01	; 1
     f14:	85 31       	cpi	r24, 0x15	; 21
     f16:	91 05       	cpc	r25, r1
     f18:	08 f0       	brcs	.+2      	; 0xf1c <myRemapFn(unsigned int, unsigned int)+0x8a>
     f1a:	ae c0       	rjmp	.+348    	; 0x1078 <myRemapFn(unsigned int, unsigned int)+0x1e6>
     f1c:	88 0f       	add	r24, r24
     f1e:	99 1f       	adc	r25, r25
     f20:	fc 01       	movw	r30, r24
     f22:	ec 5e       	subi	r30, 0xEC	; 236
     f24:	fa 4f       	sbci	r31, 0xFA	; 250
     f26:	f2 cf       	rjmp	.-28     	; 0xf0c <myRemapFn(unsigned int, unsigned int)+0x7a>
     f28:	84 31       	cpi	r24, 0x14	; 20
     f2a:	91 05       	cpc	r25, r1
     f2c:	08 f0       	brcs	.+2      	; 0xf30 <myRemapFn(unsigned int, unsigned int)+0x9e>
     f2e:	a4 c0       	rjmp	.+328    	; 0x1078 <myRemapFn(unsigned int, unsigned int)+0x1e6>
     f30:	80 50       	subi	r24, 0x00	; 0
     f32:	9b 4f       	sbci	r25, 0xFB	; 251
     f34:	d5 cf       	rjmp	.-86     	; 0xee0 <myRemapFn(unsigned int, unsigned int)+0x4e>
     f36:	84 31       	cpi	r24, 0x14	; 20
     f38:	91 05       	cpc	r25, r1
     f3a:	08 f0       	brcs	.+2      	; 0xf3e <myRemapFn(unsigned int, unsigned int)+0xac>
     f3c:	9d c0       	rjmp	.+314    	; 0x1078 <myRemapFn(unsigned int, unsigned int)+0x1e6>
     f3e:	84 51       	subi	r24, 0x14	; 20
     f40:	9b 4f       	sbci	r25, 0xFB	; 251
     f42:	ce cf       	rjmp	.-100    	; 0xee0 <myRemapFn(unsigned int, unsigned int)+0x4e>
     f44:	8f 30       	cpi	r24, 0x0F	; 15
     f46:	91 05       	cpc	r25, r1
     f48:	08 f0       	brcs	.+2      	; 0xf4c <myRemapFn(unsigned int, unsigned int)+0xba>
     f4a:	96 c0       	rjmp	.+300    	; 0x1078 <myRemapFn(unsigned int, unsigned int)+0x1e6>
     f4c:	83 52       	subi	r24, 0x23	; 35
     f4e:	9b 4f       	sbci	r25, 0xFB	; 251
     f50:	c7 cf       	rjmp	.-114    	; 0xee0 <myRemapFn(unsigned int, unsigned int)+0x4e>
     f52:	8f 30       	cpi	r24, 0x0F	; 15
     f54:	91 05       	cpc	r25, r1
     f56:	08 f0       	brcs	.+2      	; 0xf5a <myRemapFn(unsigned int, unsigned int)+0xc8>
     f58:	8f c0       	rjmp	.+286    	; 0x1078 <myRemapFn(unsigned int, unsigned int)+0x1e6>
     f5a:	88 0f       	add	r24, r24
     f5c:	99 1f       	adc	r25, r25
     f5e:	fc 01       	movw	r30, r24
     f60:	e1 54       	subi	r30, 0x41	; 65
     f62:	fb 4f       	sbci	r31, 0xFB	; 251
     f64:	d3 cf       	rjmp	.-90     	; 0xf0c <myRemapFn(unsigned int, unsigned int)+0x7a>
     f66:	8f 30       	cpi	r24, 0x0F	; 15
     f68:	91 05       	cpc	r25, r1
     f6a:	08 f0       	brcs	.+2      	; 0xf6e <myRemapFn(unsigned int, unsigned int)+0xdc>
     f6c:	85 c0       	rjmp	.+266    	; 0x1078 <myRemapFn(unsigned int, unsigned int)+0x1e6>
     f6e:	88 0f       	add	r24, r24
     f70:	99 1f       	adc	r25, r25
     f72:	fc 01       	movw	r30, r24
     f74:	ef 55       	subi	r30, 0x5F	; 95
     f76:	fb 4f       	sbci	r31, 0xFB	; 251
     f78:	c9 cf       	rjmp	.-110    	; 0xf0c <myRemapFn(unsigned int, unsigned int)+0x7a>
     f7a:	8f 30       	cpi	r24, 0x0F	; 15
     f7c:	91 05       	cpc	r25, r1
     f7e:	08 f0       	brcs	.+2      	; 0xf82 <myRemapFn(unsigned int, unsigned int)+0xf0>
     f80:	7b c0       	rjmp	.+246    	; 0x1078 <myRemapFn(unsigned int, unsigned int)+0x1e6>
     f82:	88 0f       	add	r24, r24
     f84:	99 1f       	adc	r25, r25
     f86:	fc 01       	movw	r30, r24
     f88:	ed 57       	subi	r30, 0x7D	; 125
     f8a:	fb 4f       	sbci	r31, 0xFB	; 251
     f8c:	bf cf       	rjmp	.-130    	; 0xf0c <myRemapFn(unsigned int, unsigned int)+0x7a>
     f8e:	8f 30       	cpi	r24, 0x0F	; 15
     f90:	91 05       	cpc	r25, r1
     f92:	08 f0       	brcs	.+2      	; 0xf96 <myRemapFn(unsigned int, unsigned int)+0x104>
     f94:	71 c0       	rjmp	.+226    	; 0x1078 <myRemapFn(unsigned int, unsigned int)+0x1e6>
     f96:	88 0f       	add	r24, r24
     f98:	99 1f       	adc	r25, r25
     f9a:	fc 01       	movw	r30, r24
     f9c:	eb 59       	subi	r30, 0x9B	; 155
     f9e:	fb 4f       	sbci	r31, 0xFB	; 251
     fa0:	b5 cf       	rjmp	.-150    	; 0xf0c <myRemapFn(unsigned int, unsigned int)+0x7a>
     fa2:	8f 30       	cpi	r24, 0x0F	; 15
     fa4:	91 05       	cpc	r25, r1
     fa6:	08 f0       	brcs	.+2      	; 0xfaa <myRemapFn(unsigned int, unsigned int)+0x118>
     fa8:	67 c0       	rjmp	.+206    	; 0x1078 <myRemapFn(unsigned int, unsigned int)+0x1e6>
     faa:	88 0f       	add	r24, r24
     fac:	99 1f       	adc	r25, r25
     fae:	fc 01       	movw	r30, r24
     fb0:	e9 5b       	subi	r30, 0xB9	; 185
     fb2:	fb 4f       	sbci	r31, 0xFB	; 251
     fb4:	ab cf       	rjmp	.-170    	; 0xf0c <myRemapFn(unsigned int, unsigned int)+0x7a>
     fb6:	8f 30       	cpi	r24, 0x0F	; 15
     fb8:	91 05       	cpc	r25, r1
     fba:	08 f0       	brcs	.+2      	; 0xfbe <myRemapFn(unsigned int, unsigned int)+0x12c>
     fbc:	5d c0       	rjmp	.+186    	; 0x1078 <myRemapFn(unsigned int, unsigned int)+0x1e6>
     fbe:	88 0f       	add	r24, r24
     fc0:	99 1f       	adc	r25, r25
     fc2:	fc 01       	movw	r30, r24
     fc4:	e7 5d       	subi	r30, 0xD7	; 215
     fc6:	fb 4f       	sbci	r31, 0xFB	; 251
     fc8:	a1 cf       	rjmp	.-190    	; 0xf0c <myRemapFn(unsigned int, unsigned int)+0x7a>
     fca:	8f 30       	cpi	r24, 0x0F	; 15
     fcc:	91 05       	cpc	r25, r1
     fce:	08 f0       	brcs	.+2      	; 0xfd2 <myRemapFn(unsigned int, unsigned int)+0x140>
     fd0:	53 c0       	rjmp	.+166    	; 0x1078 <myRemapFn(unsigned int, unsigned int)+0x1e6>
     fd2:	88 0f       	add	r24, r24
     fd4:	99 1f       	adc	r25, r25
     fd6:	fc 01       	movw	r30, r24
     fd8:	e5 5f       	subi	r30, 0xF5	; 245
     fda:	fb 4f       	sbci	r31, 0xFB	; 251
     fdc:	97 cf       	rjmp	.-210    	; 0xf0c <myRemapFn(unsigned int, unsigned int)+0x7a>
     fde:	01 97       	sbiw	r24, 0x01	; 1
     fe0:	8e 30       	cpi	r24, 0x0E	; 14
     fe2:	91 05       	cpc	r25, r1
     fe4:	08 f0       	brcs	.+2      	; 0xfe8 <myRemapFn(unsigned int, unsigned int)+0x156>
     fe6:	48 c0       	rjmp	.+144    	; 0x1078 <myRemapFn(unsigned int, unsigned int)+0x1e6>
     fe8:	83 50       	subi	r24, 0x03	; 3
     fea:	9c 4f       	sbci	r25, 0xFC	; 252
     fec:	79 cf       	rjmp	.-270    	; 0xee0 <myRemapFn(unsigned int, unsigned int)+0x4e>
     fee:	02 97       	sbiw	r24, 0x02	; 2
     ff0:	81 31       	cpi	r24, 0x11	; 17
     ff2:	91 05       	cpc	r25, r1
     ff4:	08 f0       	brcs	.+2      	; 0xff8 <myRemapFn(unsigned int, unsigned int)+0x166>
     ff6:	40 c0       	rjmp	.+128    	; 0x1078 <myRemapFn(unsigned int, unsigned int)+0x1e6>
     ff8:	84 51       	subi	r24, 0x14	; 20
     ffa:	9c 4f       	sbci	r25, 0xFC	; 252
     ffc:	71 cf       	rjmp	.-286    	; 0xee0 <myRemapFn(unsigned int, unsigned int)+0x4e>
     ffe:	01 97       	sbiw	r24, 0x01	; 1
    1000:	82 31       	cpi	r24, 0x12	; 18
    1002:	91 05       	cpc	r25, r1
    1004:	c8 f5       	brcc	.+114    	; 0x1078 <myRemapFn(unsigned int, unsigned int)+0x1e6>
    1006:	86 52       	subi	r24, 0x26	; 38
    1008:	9c 4f       	sbci	r25, 0xFC	; 252
    100a:	6a cf       	rjmp	.-300    	; 0xee0 <myRemapFn(unsigned int, unsigned int)+0x4e>
    100c:	01 97       	sbiw	r24, 0x01	; 1
    100e:	83 31       	cpi	r24, 0x13	; 19
    1010:	91 05       	cpc	r25, r1
    1012:	90 f5       	brcc	.+100    	; 0x1078 <myRemapFn(unsigned int, unsigned int)+0x1e6>
    1014:	89 53       	subi	r24, 0x39	; 57
    1016:	9c 4f       	sbci	r25, 0xFC	; 252
    1018:	63 cf       	rjmp	.-314    	; 0xee0 <myRemapFn(unsigned int, unsigned int)+0x4e>
    101a:	01 97       	sbiw	r24, 0x01	; 1
    101c:	84 31       	cpi	r24, 0x14	; 20
    101e:	91 05       	cpc	r25, r1
    1020:	58 f5       	brcc	.+86     	; 0x1078 <myRemapFn(unsigned int, unsigned int)+0x1e6>
    1022:	8d 54       	subi	r24, 0x4D	; 77
    1024:	9c 4f       	sbci	r25, 0xFC	; 252
    1026:	5c cf       	rjmp	.-328    	; 0xee0 <myRemapFn(unsigned int, unsigned int)+0x4e>
    1028:	01 97       	sbiw	r24, 0x01	; 1
    102a:	83 31       	cpi	r24, 0x13	; 19
    102c:	91 05       	cpc	r25, r1
    102e:	20 f5       	brcc	.+72     	; 0x1078 <myRemapFn(unsigned int, unsigned int)+0x1e6>
    1030:	88 0f       	add	r24, r24
    1032:	99 1f       	adc	r25, r25
    1034:	fc 01       	movw	r30, r24
    1036:	e3 57       	subi	r30, 0x73	; 115
    1038:	fc 4f       	sbci	r31, 0xFC	; 252
    103a:	68 cf       	rjmp	.-304    	; 0xf0c <myRemapFn(unsigned int, unsigned int)+0x7a>
    103c:	02 97       	sbiw	r24, 0x02	; 2
    103e:	87 30       	cpi	r24, 0x07	; 7
    1040:	91 05       	cpc	r25, r1
    1042:	d0 f4       	brcc	.+52     	; 0x1078 <myRemapFn(unsigned int, unsigned int)+0x1e6>
    1044:	88 0f       	add	r24, r24
    1046:	99 1f       	adc	r25, r25
    1048:	fc 01       	movw	r30, r24
    104a:	e1 58       	subi	r30, 0x81	; 129
    104c:	fc 4f       	sbci	r31, 0xFC	; 252
    104e:	5e cf       	rjmp	.-324    	; 0xf0c <myRemapFn(unsigned int, unsigned int)+0x7a>
    1050:	03 97       	sbiw	r24, 0x03	; 3
    1052:	85 30       	cpi	r24, 0x05	; 5
    1054:	91 05       	cpc	r25, r1
    1056:	80 f4       	brcc	.+32     	; 0x1078 <myRemapFn(unsigned int, unsigned int)+0x1e6>
    1058:	88 0f       	add	r24, r24
    105a:	99 1f       	adc	r25, r25
    105c:	fc 01       	movw	r30, r24
    105e:	eb 58       	subi	r30, 0x8B	; 139
    1060:	fc 4f       	sbci	r31, 0xFC	; 252
    1062:	54 cf       	rjmp	.-344    	; 0xf0c <myRemapFn(unsigned int, unsigned int)+0x7a>
    1064:	04 97       	sbiw	r24, 0x04	; 4
    1066:	83 30       	cpi	r24, 0x03	; 3
    1068:	91 05       	cpc	r25, r1
    106a:	30 f4       	brcc	.+12     	; 0x1078 <myRemapFn(unsigned int, unsigned int)+0x1e6>
    106c:	88 0f       	add	r24, r24
    106e:	99 1f       	adc	r25, r25
    1070:	fc 01       	movw	r30, r24
    1072:	e1 59       	subi	r30, 0x91	; 145
    1074:	fc 4f       	sbci	r31, 0xFC	; 252
    1076:	4a cf       	rjmp	.-364    	; 0xf0c <myRemapFn(unsigned int, unsigned int)+0x7a>
    1078:	8c e2       	ldi	r24, 0x2C	; 44
    107a:	91 e0       	ldi	r25, 0x01	; 1
    107c:	08 95       	ret

0000107e <ClocklessController<(unsigned char)12, 4, 10, 6, (EOrder)66, 0, false, 10>::getMaxRefreshRate() const>:
    107e:	80 e9       	ldi	r24, 0x90	; 144
    1080:	91 e0       	ldi	r25, 0x01	; 1
    1082:	08 95       	ret

00001084 <ClocklessController<(unsigned char)12, 4, 10, 6, (EOrder)66, 0, false, 10>::init()>:
    1084:	3a 9a       	sbi	0x07, 2	; 7
    1086:	08 95       	ret

00001088 <Print::write(char const*)>:
    1088:	fb 01       	movw	r30, r22
    108a:	01 90       	ld	r0, Z+
    108c:	00 20       	and	r0, r0
    108e:	e9 f7       	brne	.-6      	; 0x108a <Print::write(char const*)+0x2>
    1090:	31 97       	sbiw	r30, 0x01	; 1
    1092:	af 01       	movw	r20, r30
    1094:	46 1b       	sub	r20, r22
    1096:	57 0b       	sbc	r21, r23
    1098:	dc 01       	movw	r26, r24
    109a:	ed 91       	ld	r30, X+
    109c:	fc 91       	ld	r31, X
    109e:	02 80       	ldd	r0, Z+2	; 0x02
    10a0:	f3 81       	ldd	r31, Z+3	; 0x03
    10a2:	e0 2d       	mov	r30, r0
    10a4:	09 94       	ijmp

000010a6 <Print::print(char const*)>:
    10a6:	f0 cf       	rjmp	.-32     	; 0x1088 <Print::write(char const*)>

000010a8 <Print::println(char const*)>:
    10a8:	0f 93       	push	r16
    10aa:	1f 93       	push	r17
    10ac:	cf 93       	push	r28
    10ae:	df 93       	push	r29
    10b0:	ec 01       	movw	r28, r24
    10b2:	ea df       	rcall	.-44     	; 0x1088 <Print::write(char const*)>
    10b4:	8c 01       	movw	r16, r24
    10b6:	ce 01       	movw	r24, r28
    10b8:	0e 94 1e 4e 	call	0x9c3c	; 0x9c3c <Print::println()>
    10bc:	80 0f       	add	r24, r16
    10be:	91 1f       	adc	r25, r17
    10c0:	df 91       	pop	r29
    10c2:	cf 91       	pop	r28
    10c4:	1f 91       	pop	r17
    10c6:	0f 91       	pop	r16
    10c8:	08 95       	ret

000010ca <Print::println(unsigned char)>:
    10ca:	0f 93       	push	r16
    10cc:	1f 93       	push	r17
    10ce:	cf 93       	push	r28
    10d0:	df 93       	push	r29
    10d2:	ec 01       	movw	r28, r24
    10d4:	46 2f       	mov	r20, r22
    10d6:	50 e0       	ldi	r21, 0x00	; 0
    10d8:	70 e0       	ldi	r23, 0x00	; 0
    10da:	60 e0       	ldi	r22, 0x00	; 0
    10dc:	20 e0       	ldi	r18, 0x00	; 0
    10de:	0e 94 38 4e 	call	0x9c70	; 0x9c70 <Print::printNumberDec(unsigned long, unsigned char)>
    10e2:	8c 01       	movw	r16, r24
    10e4:	ce 01       	movw	r24, r28
    10e6:	0e 94 1e 4e 	call	0x9c3c	; 0x9c3c <Print::println()>
    10ea:	80 0f       	add	r24, r16
    10ec:	91 1f       	adc	r25, r17
    10ee:	df 91       	pop	r29
    10f0:	cf 91       	pop	r28
    10f2:	1f 91       	pop	r17
    10f4:	0f 91       	pop	r16
    10f6:	08 95       	ret

000010f8 <CRGBPalette16::operator=(unsigned long const (&) [16])>:
    10f8:	0f 93       	push	r16
    10fa:	1f 93       	push	r17
    10fc:	dc 01       	movw	r26, r24
    10fe:	ac 01       	movw	r20, r24
    1100:	40 5d       	subi	r20, 0xD0	; 208
    1102:	5f 4f       	sbci	r21, 0xFF	; 255
    1104:	fb 01       	movw	r30, r22
    1106:	05 91       	lpm	r16, Z+
    1108:	15 91       	lpm	r17, Z+
    110a:	25 91       	lpm	r18, Z+
    110c:	34 91       	lpm	r19, Z
    110e:	2c 93       	st	X, r18
    1110:	11 96       	adiw	r26, 0x01	; 1
    1112:	1c 93       	st	X, r17
    1114:	11 97       	sbiw	r26, 0x01	; 1
    1116:	12 96       	adiw	r26, 0x02	; 2
    1118:	0c 93       	st	X, r16
    111a:	12 97       	sbiw	r26, 0x02	; 2
    111c:	6c 5f       	subi	r22, 0xFC	; 252
    111e:	7f 4f       	sbci	r23, 0xFF	; 255
    1120:	13 96       	adiw	r26, 0x03	; 3
    1122:	a4 17       	cp	r26, r20
    1124:	b5 07       	cpc	r27, r21
    1126:	71 f7       	brne	.-36     	; 0x1104 <CRGBPalette16::operator=(unsigned long const (&) [16])+0xc>
    1128:	1f 91       	pop	r17
    112a:	0f 91       	pop	r16
    112c:	08 95       	ret

0000112e <CFastLED::show()>:
    112e:	fc 01       	movw	r30, r24
    1130:	60 81       	ld	r22, Z
    1132:	0c 94 69 43 	jmp	0x86d2	; 0x86d2 <CFastLED::show(unsigned char)>

00001136 <CFastLED::showColor(CRGB const&)>:
    1136:	fc 01       	movw	r30, r24
    1138:	40 81       	ld	r20, Z
    113a:	0c 94 f9 43 	jmp	0x87f2	; 0x87f2 <CFastLED::showColor(CRGB const&, unsigned char)>

0000113e <Framebuffer_GFX::clear()>:
    113e:	dc 01       	movw	r26, r24
    1140:	ed 91       	ld	r30, X+
    1142:	fc 91       	ld	r31, X
    1144:	02 a0       	ldd	r0, Z+34	; 0x22
    1146:	f3 a1       	ldd	r31, Z+35	; 0x23
    1148:	e0 2d       	mov	r30, r0
    114a:	70 e0       	ldi	r23, 0x00	; 0
    114c:	60 e0       	ldi	r22, 0x00	; 0
    114e:	09 94       	ijmp

00001150 <fixdrawRGBBitmap(int, int, unsigned int const*, int, int)>:
    1150:	2f 92       	push	r2
    1152:	3f 92       	push	r3
    1154:	4f 92       	push	r4
    1156:	5f 92       	push	r5
    1158:	6f 92       	push	r6
    115a:	7f 92       	push	r7
    115c:	8f 92       	push	r8
    115e:	9f 92       	push	r9
    1160:	af 92       	push	r10
    1162:	bf 92       	push	r11
    1164:	cf 92       	push	r12
    1166:	df 92       	push	r13
    1168:	ef 92       	push	r14
    116a:	ff 92       	push	r15
    116c:	0f 93       	push	r16
    116e:	1f 93       	push	r17
    1170:	cf 93       	push	r28
    1172:	df 93       	push	r29
    1174:	cd b7       	in	r28, 0x3d	; 61
    1176:	de b7       	in	r29, 0x3e	; 62
    1178:	2c 97       	sbiw	r28, 0x0c	; 12
    117a:	0f b6       	in	r0, 0x3f	; 63
    117c:	f8 94       	cli
    117e:	de bf       	out	0x3e, r29	; 62
    1180:	0f be       	out	0x3f, r0	; 63
    1182:	cd bf       	out	0x3d, r28	; 61
    1184:	9c 83       	std	Y+4, r25	; 0x04
    1186:	8b 83       	std	Y+3, r24	; 0x03
    1188:	7e 83       	std	Y+6, r23	; 0x06
    118a:	6d 83       	std	Y+5, r22	; 0x05
    118c:	58 87       	std	Y+8, r21	; 0x08
    118e:	4f 83       	std	Y+7, r20	; 0x07
    1190:	29 01       	movw	r4, r18
    1192:	38 01       	movw	r6, r16
    1194:	80 91 7a 0a 	lds	r24, 0x0A7A	; 0x800a7a <guard variable for fixdrawRGBBitmap(int, int, unsigned int const*, int, int)::RGB_bmp_fixed>
    1198:	40 9e       	mul	r4, r16
    119a:	90 01       	movw	r18, r0
    119c:	41 9e       	mul	r4, r17
    119e:	30 0d       	add	r19, r0
    11a0:	50 9e       	mul	r5, r16
    11a2:	30 0d       	add	r19, r0
    11a4:	11 24       	eor	r1, r1
    11a6:	3a 83       	std	Y+2, r19	; 0x02
    11a8:	29 83       	std	Y+1, r18	; 0x01
    11aa:	81 11       	cpse	r24, r1
    11ac:	14 c0       	rjmp	.+40     	; 0x11d6 <fixdrawRGBBitmap(int, int, unsigned int const*, int, int)+0x86>
    11ae:	8a e7       	ldi	r24, 0x7A	; 122
    11b0:	9a e0       	ldi	r25, 0x0A	; 10
    11b2:	0e 94 93 4d 	call	0x9b26	; 0x9b26 <__cxa_guard_acquire>
    11b6:	89 2b       	or	r24, r25
    11b8:	71 f0       	breq	.+28     	; 0x11d6 <fixdrawRGBBitmap(int, int, unsigned int const*, int, int)+0x86>
    11ba:	89 81       	ldd	r24, Y+1	; 0x01
    11bc:	9a 81       	ldd	r25, Y+2	; 0x02
    11be:	88 0f       	add	r24, r24
    11c0:	99 1f       	adc	r25, r25
    11c2:	0e 94 06 46 	call	0x8c0c	; 0x8c0c <malloc>
    11c6:	90 93 83 0a 	sts	0x0A83, r25	; 0x800a83 <fixdrawRGBBitmap(int, int, unsigned int const*, int, int)::RGB_bmp_fixed+0x1>
    11ca:	80 93 82 0a 	sts	0x0A82, r24	; 0x800a82 <fixdrawRGBBitmap(int, int, unsigned int const*, int, int)::RGB_bmp_fixed>
    11ce:	8a e7       	ldi	r24, 0x7A	; 122
    11d0:	9a e0       	ldi	r25, 0x0A	; 10
    11d2:	0e 94 9c 4d 	call	0x9b38	; 0x9b38 <__cxa_guard_release>
    11d6:	91 2c       	mov	r9, r1
    11d8:	81 2c       	mov	r8, r1
    11da:	89 81       	ldd	r24, Y+1	; 0x01
    11dc:	9a 81       	ldd	r25, Y+2	; 0x02
    11de:	88 15       	cp	r24, r8
    11e0:	99 05       	cpc	r25, r9
    11e2:	09 f4       	brne	.+2      	; 0x11e6 <fixdrawRGBBitmap(int, int, unsigned int const*, int, int)+0x96>
    11e4:	6a c0       	rjmp	.+212    	; 0x12ba <fixdrawRGBBitmap(int, int, unsigned int const*, int, int)+0x16a>
    11e6:	14 01       	movw	r2, r8
    11e8:	22 0c       	add	r2, r2
    11ea:	33 1c       	adc	r3, r3
    11ec:	ef 81       	ldd	r30, Y+7	; 0x07
    11ee:	f8 85       	ldd	r31, Y+8	; 0x08
    11f0:	e2 0d       	add	r30, r2
    11f2:	f3 1d       	adc	r31, r3
    11f4:	25 91       	lpm	r18, Z+
    11f6:	34 91       	lpm	r19, Z
    11f8:	3b 87       	std	Y+11, r19	; 0x0b
    11fa:	2a 87       	std	Y+10, r18	; 0x0a
    11fc:	63 2f       	mov	r22, r19
    11fe:	6f 70       	andi	r22, 0x0F	; 15
    1200:	70 e0       	ldi	r23, 0x00	; 0
    1202:	90 e0       	ldi	r25, 0x00	; 0
    1204:	80 e0       	ldi	r24, 0x00	; 0
    1206:	1f 92       	push	r1
    1208:	1f 92       	push	r1
    120a:	1f 92       	push	r1
    120c:	3f e1       	ldi	r19, 0x1F	; 31
    120e:	3f 93       	push	r19
    1210:	a1 2c       	mov	r10, r1
    1212:	b1 2c       	mov	r11, r1
    1214:	65 01       	movw	r12, r10
    1216:	1f e0       	ldi	r17, 0x0F	; 15
    1218:	e1 2e       	mov	r14, r17
    121a:	f1 2c       	mov	r15, r1
    121c:	00 e0       	ldi	r16, 0x00	; 0
    121e:	10 e0       	ldi	r17, 0x00	; 0
    1220:	20 e0       	ldi	r18, 0x00	; 0
    1222:	30 e0       	ldi	r19, 0x00	; 0
    1224:	a9 01       	movw	r20, r18
    1226:	0e 94 88 50 	call	0xa110	; 0xa110 <map(long, long, long, long, long)>
    122a:	69 87       	std	Y+9, r22	; 0x09
    122c:	6a 85       	ldd	r22, Y+10	; 0x0a
    122e:	7b 85       	ldd	r23, Y+11	; 0x0b
    1230:	34 e0       	ldi	r19, 0x04	; 4
    1232:	76 95       	lsr	r23
    1234:	67 95       	ror	r22
    1236:	3a 95       	dec	r19
    1238:	e1 f7       	brne	.-8      	; 0x1232 <fixdrawRGBBitmap(int, int, unsigned int const*, int, int)+0xe2>
    123a:	6f 70       	andi	r22, 0x0F	; 15
    123c:	70 e0       	ldi	r23, 0x00	; 0
    123e:	90 e0       	ldi	r25, 0x00	; 0
    1240:	80 e0       	ldi	r24, 0x00	; 0
    1242:	1f 92       	push	r1
    1244:	1f 92       	push	r1
    1246:	1f 92       	push	r1
    1248:	2f e3       	ldi	r18, 0x3F	; 63
    124a:	2f 93       	push	r18
    124c:	20 e0       	ldi	r18, 0x00	; 0
    124e:	30 e0       	ldi	r19, 0x00	; 0
    1250:	a9 01       	movw	r20, r18
    1252:	0e 94 88 50 	call	0xa110	; 0xa110 <map(long, long, long, long, long)>
    1256:	6c 87       	std	Y+12, r22	; 0x0c
    1258:	3a 85       	ldd	r19, Y+10	; 0x0a
    125a:	3f 70       	andi	r19, 0x0F	; 15
    125c:	63 2f       	mov	r22, r19
    125e:	70 e0       	ldi	r23, 0x00	; 0
    1260:	90 e0       	ldi	r25, 0x00	; 0
    1262:	80 e0       	ldi	r24, 0x00	; 0
    1264:	1f 92       	push	r1
    1266:	1f 92       	push	r1
    1268:	1f 92       	push	r1
    126a:	2f e1       	ldi	r18, 0x1F	; 31
    126c:	2f 93       	push	r18
    126e:	20 e0       	ldi	r18, 0x00	; 0
    1270:	30 e0       	ldi	r19, 0x00	; 0
    1272:	a9 01       	movw	r20, r18
    1274:	0e 94 88 50 	call	0xa110	; 0xa110 <map(long, long, long, long, long)>
    1278:	e0 91 82 0a 	lds	r30, 0x0A82	; 0x800a82 <fixdrawRGBBitmap(int, int, unsigned int const*, int, int)::RGB_bmp_fixed>
    127c:	f0 91 83 0a 	lds	r31, 0x0A83	; 0x800a83 <fixdrawRGBBitmap(int, int, unsigned int const*, int, int)::RGB_bmp_fixed+0x1>
    1280:	e2 0d       	add	r30, r2
    1282:	f3 1d       	adc	r31, r3
    1284:	70 e0       	ldi	r23, 0x00	; 0
    1286:	76 2f       	mov	r23, r22
    1288:	66 27       	eor	r22, r22
    128a:	77 0f       	add	r23, r23
    128c:	77 0f       	add	r23, r23
    128e:	77 0f       	add	r23, r23
    1290:	2c 85       	ldd	r18, Y+12	; 0x0c
    1292:	30 e2       	ldi	r19, 0x20	; 32
    1294:	23 9f       	mul	r18, r19
    1296:	c0 01       	movw	r24, r0
    1298:	11 24       	eor	r1, r1
    129a:	68 0f       	add	r22, r24
    129c:	79 1f       	adc	r23, r25
    129e:	39 85       	ldd	r19, Y+9	; 0x09
    12a0:	63 0f       	add	r22, r19
    12a2:	71 1d       	adc	r23, r1
    12a4:	71 83       	std	Z+1, r23	; 0x01
    12a6:	60 83       	st	Z, r22
    12a8:	8f ef       	ldi	r24, 0xFF	; 255
    12aa:	88 1a       	sub	r8, r24
    12ac:	98 0a       	sbc	r9, r24
    12ae:	0f b6       	in	r0, 0x3f	; 63
    12b0:	f8 94       	cli
    12b2:	de bf       	out	0x3e, r29	; 62
    12b4:	0f be       	out	0x3f, r0	; 63
    12b6:	cd bf       	out	0x3d, r28	; 61
    12b8:	90 cf       	rjmp	.-224    	; 0x11da <fixdrawRGBBitmap(int, int, unsigned int const*, int, int)+0x8a>
    12ba:	20 91 82 0a 	lds	r18, 0x0A82	; 0x800a82 <fixdrawRGBBitmap(int, int, unsigned int const*, int, int)::RGB_bmp_fixed>
    12be:	30 91 83 0a 	lds	r19, 0x0A83	; 0x800a83 <fixdrawRGBBitmap(int, int, unsigned int const*, int, int)::RGB_bmp_fixed+0x1>
    12c2:	73 01       	movw	r14, r6
    12c4:	82 01       	movw	r16, r4
    12c6:	4d 81       	ldd	r20, Y+5	; 0x05
    12c8:	5e 81       	ldd	r21, Y+6	; 0x06
    12ca:	6b 81       	ldd	r22, Y+3	; 0x03
    12cc:	7c 81       	ldd	r23, Y+4	; 0x04
    12ce:	80 91 c9 10 	lds	r24, 0x10C9	; 0x8010c9 <matrix>
    12d2:	90 91 ca 10 	lds	r25, 0x10CA	; 0x8010ca <matrix+0x1>
    12d6:	0e 94 7a 3b 	call	0x76f4	; 0x76f4 <Adafruit_GFX::drawRGBBitmap(int, int, unsigned int*, int, int)>
    12da:	2c 96       	adiw	r28, 0x0c	; 12
    12dc:	0f b6       	in	r0, 0x3f	; 63
    12de:	f8 94       	cli
    12e0:	de bf       	out	0x3e, r29	; 62
    12e2:	0f be       	out	0x3f, r0	; 63
    12e4:	cd bf       	out	0x3d, r28	; 61
    12e6:	df 91       	pop	r29
    12e8:	cf 91       	pop	r28
    12ea:	1f 91       	pop	r17
    12ec:	0f 91       	pop	r16
    12ee:	ff 90       	pop	r15
    12f0:	ef 90       	pop	r14
    12f2:	df 90       	pop	r13
    12f4:	cf 90       	pop	r12
    12f6:	bf 90       	pop	r11
    12f8:	af 90       	pop	r10
    12fa:	9f 90       	pop	r9
    12fc:	8f 90       	pop	r8
    12fe:	7f 90       	pop	r7
    1300:	6f 90       	pop	r6
    1302:	5f 90       	pop	r5
    1304:	4f 90       	pop	r4
    1306:	3f 90       	pop	r3
    1308:	2f 90       	pop	r2
    130a:	08 95       	ret

0000130c <display_rgbBitmap(unsigned char)>:
    130c:	0f 93       	push	r16
    130e:	1f 93       	push	r17
    1310:	90 e8       	ldi	r25, 0x80	; 128
    1312:	89 9f       	mul	r24, r25
    1314:	a0 01       	movw	r20, r0
    1316:	11 24       	eor	r1, r1
    1318:	48 52       	subi	r20, 0x28	; 40
    131a:	5f 4f       	sbci	r21, 0xFF	; 255
    131c:	60 91 76 0a 	lds	r22, 0x0A76	; 0x800a76 <display_rgbBitmap(unsigned char)::bmy>
    1320:	70 91 77 0a 	lds	r23, 0x0A77	; 0x800a77 <display_rgbBitmap(unsigned char)::bmy+0x1>
    1324:	08 e0       	ldi	r16, 0x08	; 8
    1326:	10 e0       	ldi	r17, 0x00	; 0
    1328:	28 e0       	ldi	r18, 0x08	; 8
    132a:	30 e0       	ldi	r19, 0x00	; 0
    132c:	80 91 78 0a 	lds	r24, 0x0A78	; 0x800a78 <display_rgbBitmap(unsigned char)::bmx>
    1330:	90 91 79 0a 	lds	r25, 0x0A79	; 0x800a79 <display_rgbBitmap(unsigned char)::bmx+0x1>
    1334:	0d df       	rcall	.-486    	; 0x1150 <fixdrawRGBBitmap(int, int, unsigned int const*, int, int)>
    1336:	80 91 78 0a 	lds	r24, 0x0A78	; 0x800a78 <display_rgbBitmap(unsigned char)::bmx>
    133a:	90 91 79 0a 	lds	r25, 0x0A79	; 0x800a79 <display_rgbBitmap(unsigned char)::bmx+0x1>
    133e:	08 96       	adiw	r24, 0x08	; 8
    1340:	86 31       	cpi	r24, 0x16	; 22
    1342:	91 05       	cpc	r25, r1
    1344:	28 f5       	brcc	.+74     	; 0x1390 <display_rgbBitmap(unsigned char)+0x84>
    1346:	90 93 79 0a 	sts	0x0A79, r25	; 0x800a79 <display_rgbBitmap(unsigned char)::bmx+0x1>
    134a:	80 93 78 0a 	sts	0x0A78, r24	; 0x800a78 <display_rgbBitmap(unsigned char)::bmx>
    134e:	80 91 78 0a 	lds	r24, 0x0A78	; 0x800a78 <display_rgbBitmap(unsigned char)::bmx>
    1352:	90 91 79 0a 	lds	r25, 0x0A79	; 0x800a79 <display_rgbBitmap(unsigned char)::bmx+0x1>
    1356:	89 2b       	or	r24, r25
    1358:	49 f4       	brne	.+18     	; 0x136c <display_rgbBitmap(unsigned char)+0x60>
    135a:	80 91 76 0a 	lds	r24, 0x0A76	; 0x800a76 <display_rgbBitmap(unsigned char)::bmy>
    135e:	90 91 77 0a 	lds	r25, 0x0A77	; 0x800a77 <display_rgbBitmap(unsigned char)::bmy+0x1>
    1362:	08 96       	adiw	r24, 0x08	; 8
    1364:	90 93 77 0a 	sts	0x0A77, r25	; 0x800a77 <display_rgbBitmap(unsigned char)::bmy+0x1>
    1368:	80 93 76 0a 	sts	0x0A76, r24	; 0x800a76 <display_rgbBitmap(unsigned char)::bmy>
    136c:	80 91 76 0a 	lds	r24, 0x0A76	; 0x800a76 <display_rgbBitmap(unsigned char)::bmy>
    1370:	90 91 77 0a 	lds	r25, 0x0A77	; 0x800a77 <display_rgbBitmap(unsigned char)::bmy+0x1>
    1374:	47 97       	sbiw	r24, 0x17	; 23
    1376:	20 f0       	brcs	.+8      	; 0x1380 <display_rgbBitmap(unsigned char)+0x74>
    1378:	10 92 77 0a 	sts	0x0A77, r1	; 0x800a77 <display_rgbBitmap(unsigned char)::bmy+0x1>
    137c:	10 92 76 0a 	sts	0x0A76, r1	; 0x800a76 <display_rgbBitmap(unsigned char)::bmy>
    1380:	80 91 c9 10 	lds	r24, 0x10C9	; 0x8010c9 <matrix>
    1384:	90 91 ca 10 	lds	r25, 0x10CA	; 0x8010ca <matrix+0x1>
    1388:	1f 91       	pop	r17
    138a:	0f 91       	pop	r16
    138c:	0c 94 14 3f 	jmp	0x7e28	; 0x7e28 <FastLED_NeoMatrix::show()>
    1390:	10 92 79 0a 	sts	0x0A79, r1	; 0x800a79 <display_rgbBitmap(unsigned char)::bmx+0x1>
    1394:	10 92 78 0a 	sts	0x0A78, r1	; 0x800a78 <display_rgbBitmap(unsigned char)::bmx>
    1398:	da cf       	rjmp	.-76     	; 0x134e <display_rgbBitmap(unsigned char)+0x42>

0000139a <getRandomColorValue()>:
    139a:	24 e0       	ldi	r18, 0x04	; 4
    139c:	30 e0       	ldi	r19, 0x00	; 0
    139e:	40 e0       	ldi	r20, 0x00	; 0
    13a0:	50 e0       	ldi	r21, 0x00	; 0
    13a2:	61 e0       	ldi	r22, 0x01	; 1
    13a4:	70 e0       	ldi	r23, 0x00	; 0
    13a6:	80 e0       	ldi	r24, 0x00	; 0
    13a8:	90 e0       	ldi	r25, 0x00	; 0
    13aa:	0e 94 6b 50 	call	0xa0d6	; 0xa0d6 <random(long, long)>
    13ae:	62 30       	cpi	r22, 0x02	; 2
    13b0:	71 05       	cpc	r23, r1
    13b2:	31 f0       	breq	.+12     	; 0x13c0 <getRandomColorValue()+0x26>
    13b4:	63 30       	cpi	r22, 0x03	; 3
    13b6:	71 05       	cpc	r23, r1
    13b8:	31 f0       	breq	.+12     	; 0x13c6 <getRandomColorValue()+0x2c>
    13ba:	90 e0       	ldi	r25, 0x00	; 0
    13bc:	80 e0       	ldi	r24, 0x00	; 0
    13be:	08 95       	ret
    13c0:	8f e7       	ldi	r24, 0x7F	; 127
    13c2:	90 e0       	ldi	r25, 0x00	; 0
    13c4:	08 95       	ret
    13c6:	8f ef       	ldi	r24, 0xFF	; 255
    13c8:	90 e0       	ldi	r25, 0x00	; 0
    13ca:	08 95       	ret

000013cc <getRandomColor()>:
    13cc:	27 e0       	ldi	r18, 0x07	; 7
    13ce:	30 e0       	ldi	r19, 0x00	; 0
    13d0:	40 e0       	ldi	r20, 0x00	; 0
    13d2:	50 e0       	ldi	r21, 0x00	; 0
    13d4:	61 e0       	ldi	r22, 0x01	; 1
    13d6:	70 e0       	ldi	r23, 0x00	; 0
    13d8:	80 e0       	ldi	r24, 0x00	; 0
    13da:	90 e0       	ldi	r25, 0x00	; 0
    13dc:	0e 94 6b 50 	call	0xa0d6	; 0xa0d6 <random(long, long)>
    13e0:	61 50       	subi	r22, 0x01	; 1
    13e2:	71 09       	sbc	r23, r1
    13e4:	67 30       	cpi	r22, 0x07	; 7
    13e6:	71 05       	cpc	r23, r1
    13e8:	40 f4       	brcc	.+16     	; 0x13fa <getRandomColor()+0x2e>
    13ea:	66 0f       	add	r22, r22
    13ec:	77 1f       	adc	r23, r23
    13ee:	fb 01       	movw	r30, r22
    13f0:	ef 59       	subi	r30, 0x9F	; 159
    13f2:	fc 4f       	sbci	r31, 0xFC	; 252
    13f4:	80 81       	ld	r24, Z
    13f6:	91 81       	ldd	r25, Z+1	; 0x01
    13f8:	08 95       	ret
    13fa:	90 e0       	ldi	r25, 0x00	; 0
    13fc:	80 e0       	ldi	r24, 0x00	; 0
    13fe:	08 95       	ret

00001400 <getRandomColorIncludingBlack()>:
    1400:	29 e0       	ldi	r18, 0x09	; 9
    1402:	30 e0       	ldi	r19, 0x00	; 0
    1404:	40 e0       	ldi	r20, 0x00	; 0
    1406:	50 e0       	ldi	r21, 0x00	; 0
    1408:	61 e0       	ldi	r22, 0x01	; 1
    140a:	70 e0       	ldi	r23, 0x00	; 0
    140c:	80 e0       	ldi	r24, 0x00	; 0
    140e:	90 e0       	ldi	r25, 0x00	; 0
    1410:	0e 94 6b 50 	call	0xa0d6	; 0xa0d6 <random(long, long)>
    1414:	61 50       	subi	r22, 0x01	; 1
    1416:	71 09       	sbc	r23, r1
    1418:	67 30       	cpi	r22, 0x07	; 7
    141a:	71 05       	cpc	r23, r1
    141c:	40 f4       	brcc	.+16     	; 0x142e <getRandomColorIncludingBlack()+0x2e>
    141e:	66 0f       	add	r22, r22
    1420:	77 1f       	adc	r23, r23
    1422:	fb 01       	movw	r30, r22
    1424:	ed 5a       	subi	r30, 0xAD	; 173
    1426:	fc 4f       	sbci	r31, 0xFC	; 252
    1428:	80 81       	ld	r24, Z
    142a:	91 81       	ldd	r25, Z+1	; 0x01
    142c:	08 95       	ret
    142e:	90 e0       	ldi	r25, 0x00	; 0
    1430:	80 e0       	ldi	r24, 0x00	; 0
    1432:	08 95       	ret

00001434 <progBlingBlingColoring(unsigned int, unsigned char, unsigned int)>:
    1434:	ef 92       	push	r14
    1436:	ff 92       	push	r15
    1438:	0f 93       	push	r16
    143a:	1f 93       	push	r17
    143c:	cf 93       	push	r28
    143e:	df 93       	push	r29
    1440:	7c 01       	movw	r14, r24
    1442:	16 2f       	mov	r17, r22
    1444:	ea 01       	movw	r28, r20
    1446:	80 91 c7 0a 	lds	r24, 0x0AC7	; 0x800ac7 <nextChangeMillisAlreadyCalculated>
    144a:	81 11       	cpse	r24, r1
    144c:	12 c0       	rjmp	.+36     	; 0x1472 <progBlingBlingColoring(unsigned int, unsigned char, unsigned int)+0x3e>
    144e:	61 e0       	ldi	r22, 0x01	; 1
    1450:	8a ed       	ldi	r24, 0xDA	; 218
    1452:	90 e1       	ldi	r25, 0x10	; 16
    1454:	0e 94 91 44 	call	0x8922	; 0x8922 <CFastLED::clear(bool)>
    1458:	f0 92 07 01 	sts	0x0107, r15	; 0x800107 <nextChangeMillis+0x1>
    145c:	e0 92 06 01 	sts	0x0106, r14	; 0x800106 <nextChangeMillis>
    1460:	10 93 c6 0a 	sts	0x0AC6, r17	; 0x800ac6 <nextSongPart>
    1464:	81 e0       	ldi	r24, 0x01	; 1
    1466:	80 93 c7 0a 	sts	0x0AC7, r24	; 0x800ac7 <nextChangeMillisAlreadyCalculated>
    146a:	10 92 72 0a 	sts	0x0A72, r1	; 0x800a72 <progBlingBlingColoring_rounds+0x1>
    146e:	10 92 71 0a 	sts	0x0A71, r1	; 0x800a71 <progBlingBlingColoring_rounds>
    1472:	80 91 71 0a 	lds	r24, 0x0A71	; 0x800a71 <progBlingBlingColoring_rounds>
    1476:	90 91 72 0a 	lds	r25, 0x0A72	; 0x800a72 <progBlingBlingColoring_rounds+0x1>
    147a:	89 2b       	or	r24, r25
    147c:	49 f4       	brne	.+18     	; 0x1490 <progBlingBlingColoring(unsigned int, unsigned char, unsigned int)+0x5c>
    147e:	8d df       	rcall	.-230    	; 0x139a <getRandomColorValue()>
    1480:	80 93 75 0a 	sts	0x0A75, r24	; 0x800a75 <r>
    1484:	8a df       	rcall	.-236    	; 0x139a <getRandomColorValue()>
    1486:	80 93 74 0a 	sts	0x0A74, r24	; 0x800a74 <g>
    148a:	87 df       	rcall	.-242    	; 0x139a <getRandomColorValue()>
    148c:	80 93 73 0a 	sts	0x0A73, r24	; 0x800a73 <b>
    1490:	10 91 73 0a 	lds	r17, 0x0A73	; 0x800a73 <b>
    1494:	00 91 74 0a 	lds	r16, 0x0A74	; 0x800a74 <g>
    1498:	f0 90 75 0a 	lds	r15, 0x0A75	; 0x800a75 <r>
    149c:	26 e1       	ldi	r18, 0x16	; 22
    149e:	31 e0       	ldi	r19, 0x01	; 1
    14a0:	40 e0       	ldi	r20, 0x00	; 0
    14a2:	50 e0       	ldi	r21, 0x00	; 0
    14a4:	60 e0       	ldi	r22, 0x00	; 0
    14a6:	70 e0       	ldi	r23, 0x00	; 0
    14a8:	cb 01       	movw	r24, r22
    14aa:	0e 94 6b 50 	call	0xa0d6	; 0xa0d6 <random(long, long)>
    14ae:	fb 01       	movw	r30, r22
    14b0:	ee 0f       	add	r30, r30
    14b2:	ff 1f       	adc	r31, r31
    14b4:	e6 0f       	add	r30, r22
    14b6:	f7 1f       	adc	r31, r23
    14b8:	e5 52       	subi	r30, 0x25	; 37
    14ba:	f5 4f       	sbci	r31, 0xF5	; 245
    14bc:	f0 82       	st	Z, r15
    14be:	01 83       	std	Z+1, r16	; 0x01
    14c0:	12 83       	std	Z+2, r17	; 0x02
    14c2:	23 e0       	ldi	r18, 0x03	; 3
    14c4:	30 e0       	ldi	r19, 0x00	; 0
    14c6:	40 e0       	ldi	r20, 0x00	; 0
    14c8:	50 e0       	ldi	r21, 0x00	; 0
    14ca:	60 e0       	ldi	r22, 0x00	; 0
    14cc:	70 e0       	ldi	r23, 0x00	; 0
    14ce:	cb 01       	movw	r24, r22
    14d0:	0e 94 6b 50 	call	0xa0d6	; 0xa0d6 <random(long, long)>
    14d4:	61 30       	cpi	r22, 0x01	; 1
    14d6:	71 05       	cpc	r23, r1
    14d8:	81 05       	cpc	r24, r1
    14da:	91 05       	cpc	r25, r1
    14dc:	99 f4       	brne	.+38     	; 0x1504 <progBlingBlingColoring(unsigned int, unsigned char, unsigned int)+0xd0>
    14de:	26 e1       	ldi	r18, 0x16	; 22
    14e0:	31 e0       	ldi	r19, 0x01	; 1
    14e2:	40 e0       	ldi	r20, 0x00	; 0
    14e4:	50 e0       	ldi	r21, 0x00	; 0
    14e6:	60 e0       	ldi	r22, 0x00	; 0
    14e8:	70 e0       	ldi	r23, 0x00	; 0
    14ea:	cb 01       	movw	r24, r22
    14ec:	0e 94 6b 50 	call	0xa0d6	; 0xa0d6 <random(long, long)>
    14f0:	fb 01       	movw	r30, r22
    14f2:	ee 0f       	add	r30, r30
    14f4:	ff 1f       	adc	r31, r31
    14f6:	e6 0f       	add	r30, r22
    14f8:	f7 1f       	adc	r31, r23
    14fa:	e5 52       	subi	r30, 0x25	; 37
    14fc:	f5 4f       	sbci	r31, 0xF5	; 245
    14fe:	10 82       	st	Z, r1
    1500:	11 82       	std	Z+1, r1	; 0x01
    1502:	12 82       	std	Z+2, r1	; 0x02
    1504:	8a ed       	ldi	r24, 0xDA	; 218
    1506:	90 e1       	ldi	r25, 0x10	; 16
    1508:	12 de       	rcall	.-988    	; 0x112e <CFastLED::show()>
    150a:	80 91 cd 0a 	lds	r24, 0x0ACD	; 0x800acd <millisCounterTimer>
    150e:	90 91 ce 0a 	lds	r25, 0x0ACE	; 0x800ace <millisCounterTimer+0x1>
    1512:	8c 17       	cp	r24, r28
    1514:	9d 07       	cpc	r25, r29
    1516:	d0 f0       	brcs	.+52     	; 0x154c <progBlingBlingColoring(unsigned int, unsigned char, unsigned int)+0x118>
    1518:	10 92 ce 0a 	sts	0x0ACE, r1	; 0x800ace <millisCounterTimer+0x1>
    151c:	10 92 cd 0a 	sts	0x0ACD, r1	; 0x800acd <millisCounterTimer>
    1520:	80 91 71 0a 	lds	r24, 0x0A71	; 0x800a71 <progBlingBlingColoring_rounds>
    1524:	90 91 72 0a 	lds	r25, 0x0A72	; 0x800a72 <progBlingBlingColoring_rounds+0x1>
    1528:	01 96       	adiw	r24, 0x01	; 1
    152a:	84 30       	cpi	r24, 0x04	; 4
    152c:	91 05       	cpc	r25, r1
    152e:	a9 f0       	breq	.+42     	; 0x155a <progBlingBlingColoring(unsigned int, unsigned char, unsigned int)+0x126>
    1530:	90 93 72 0a 	sts	0x0A72, r25	; 0x800a72 <progBlingBlingColoring_rounds+0x1>
    1534:	80 93 71 0a 	sts	0x0A71, r24	; 0x800a71 <progBlingBlingColoring_rounds>
    1538:	80 91 71 0a 	lds	r24, 0x0A71	; 0x800a71 <progBlingBlingColoring_rounds>
    153c:	90 91 72 0a 	lds	r25, 0x0A72	; 0x800a72 <progBlingBlingColoring_rounds+0x1>
    1540:	81 30       	cpi	r24, 0x01	; 1
    1542:	91 05       	cpc	r25, r1
    1544:	69 f4       	brne	.+26     	; 0x1560 <progBlingBlingColoring(unsigned int, unsigned char, unsigned int)+0x12c>
    1546:	29 df       	rcall	.-430    	; 0x139a <getRandomColorValue()>
    1548:	80 93 73 0a 	sts	0x0A73, r24	; 0x800a73 <b>
    154c:	df 91       	pop	r29
    154e:	cf 91       	pop	r28
    1550:	1f 91       	pop	r17
    1552:	0f 91       	pop	r16
    1554:	ff 90       	pop	r15
    1556:	ef 90       	pop	r14
    1558:	08 95       	ret
    155a:	81 e0       	ldi	r24, 0x01	; 1
    155c:	90 e0       	ldi	r25, 0x00	; 0
    155e:	e8 cf       	rjmp	.-48     	; 0x1530 <progBlingBlingColoring(unsigned int, unsigned char, unsigned int)+0xfc>
    1560:	82 30       	cpi	r24, 0x02	; 2
    1562:	91 05       	cpc	r25, r1
    1564:	21 f4       	brne	.+8      	; 0x156e <progBlingBlingColoring(unsigned int, unsigned char, unsigned int)+0x13a>
    1566:	19 df       	rcall	.-462    	; 0x139a <getRandomColorValue()>
    1568:	80 93 74 0a 	sts	0x0A74, r24	; 0x800a74 <g>
    156c:	ef cf       	rjmp	.-34     	; 0x154c <progBlingBlingColoring(unsigned int, unsigned char, unsigned int)+0x118>
    156e:	03 97       	sbiw	r24, 0x03	; 3
    1570:	69 f7       	brne	.-38     	; 0x154c <progBlingBlingColoring(unsigned int, unsigned char, unsigned int)+0x118>
    1572:	13 df       	rcall	.-474    	; 0x139a <getRandomColorValue()>
    1574:	80 93 75 0a 	sts	0x0A75, r24	; 0x800a75 <r>
    1578:	e9 cf       	rjmp	.-46     	; 0x154c <progBlingBlingColoring(unsigned int, unsigned char, unsigned int)+0x118>

0000157a <progFastBlingBling(unsigned int, unsigned char, unsigned char, unsigned char, unsigned char, unsigned int)>:
    157a:	cf 92       	push	r12
    157c:	df 92       	push	r13
    157e:	ef 92       	push	r14
    1580:	ff 92       	push	r15
    1582:	0f 93       	push	r16
    1584:	1f 93       	push	r17
    1586:	cf 93       	push	r28
    1588:	df 93       	push	r29
    158a:	6c 01       	movw	r12, r24
    158c:	d6 2f       	mov	r29, r22
    158e:	14 2f       	mov	r17, r20
    1590:	c2 2f       	mov	r28, r18
    1592:	80 91 c7 0a 	lds	r24, 0x0AC7	; 0x800ac7 <nextChangeMillisAlreadyCalculated>
    1596:	81 11       	cpse	r24, r1
    1598:	10 c0       	rjmp	.+32     	; 0x15ba <progFastBlingBling(unsigned int, unsigned char, unsigned char, unsigned char, unsigned char, unsigned int)+0x40>
    159a:	61 e0       	ldi	r22, 0x01	; 1
    159c:	8a ed       	ldi	r24, 0xDA	; 218
    159e:	90 e1       	ldi	r25, 0x10	; 16
    15a0:	0e 94 91 44 	call	0x8922	; 0x8922 <CFastLED::clear(bool)>
    15a4:	d0 92 07 01 	sts	0x0107, r13	; 0x800107 <nextChangeMillis+0x1>
    15a8:	c0 92 06 01 	sts	0x0106, r12	; 0x800106 <nextChangeMillis>
    15ac:	10 93 c6 0a 	sts	0x0AC6, r17	; 0x800ac6 <nextSongPart>
    15b0:	81 e0       	ldi	r24, 0x01	; 1
    15b2:	80 93 c7 0a 	sts	0x0AC7, r24	; 0x800ac7 <nextChangeMillisAlreadyCalculated>
    15b6:	d0 93 b6 0a 	sts	0x0AB6, r29	; 0x800ab6 <actualAnzahlLEDs>
    15ba:	80 91 cd 0a 	lds	r24, 0x0ACD	; 0x800acd <millisCounterTimer>
    15be:	90 91 ce 0a 	lds	r25, 0x0ACE	; 0x800ace <millisCounterTimer+0x1>
    15c2:	8e 15       	cp	r24, r14
    15c4:	9f 05       	cpc	r25, r15
    15c6:	90 f0       	brcs	.+36     	; 0x15ec <progFastBlingBling(unsigned int, unsigned char, unsigned char, unsigned char, unsigned char, unsigned int)+0x72>
    15c8:	10 92 ce 0a 	sts	0x0ACE, r1	; 0x800ace <millisCounterTimer+0x1>
    15cc:	10 92 cd 0a 	sts	0x0ACD, r1	; 0x800acd <millisCounterTimer>
    15d0:	cc 23       	and	r28, r28
    15d2:	61 f0       	breq	.+24     	; 0x15ec <progFastBlingBling(unsigned int, unsigned char, unsigned char, unsigned char, unsigned char, unsigned int)+0x72>
    15d4:	20 91 b6 0a 	lds	r18, 0x0AB6	; 0x800ab6 <actualAnzahlLEDs>
    15d8:	42 2f       	mov	r20, r18
    15da:	4c 0f       	add	r20, r28
    15dc:	55 27       	eor	r21, r21
    15de:	55 1f       	adc	r21, r21
    15e0:	04 17       	cp	r16, r20
    15e2:	15 06       	cpc	r1, r21
    15e4:	1c f0       	brlt	.+6      	; 0x15ec <progFastBlingBling(unsigned int, unsigned char, unsigned char, unsigned char, unsigned char, unsigned int)+0x72>
    15e6:	2c 0f       	add	r18, r28
    15e8:	20 93 b6 0a 	sts	0x0AB6, r18	; 0x800ab6 <actualAnzahlLEDs>
    15ec:	60 e0       	ldi	r22, 0x00	; 0
    15ee:	8a ed       	ldi	r24, 0xDA	; 218
    15f0:	90 e1       	ldi	r25, 0x10	; 16
    15f2:	0e 94 91 44 	call	0x8922	; 0x8922 <CFastLED::clear(bool)>
    15f6:	8f ef       	ldi	r24, 0xFF	; 255
    15f8:	80 93 da 10 	sts	0x10DA, r24	; 0x8010da <FastLED>
    15fc:	d0 e0       	ldi	r29, 0x00	; 0
    15fe:	c0 e0       	ldi	r28, 0x00	; 0
    1600:	80 91 b6 0a 	lds	r24, 0x0AB6	; 0x800ab6 <actualAnzahlLEDs>
    1604:	8c 17       	cp	r24, r28
    1606:	1d 06       	cpc	r1, r29
    1608:	e1 f0       	breq	.+56     	; 0x1642 <progFastBlingBling(unsigned int, unsigned char, unsigned char, unsigned char, unsigned char, unsigned int)+0xc8>
    160a:	dc f0       	brlt	.+54     	; 0x1642 <progFastBlingBling(unsigned int, unsigned char, unsigned char, unsigned char, unsigned char, unsigned int)+0xc8>
    160c:	c6 de       	rcall	.-628    	; 0x139a <getRandomColorValue()>
    160e:	18 2f       	mov	r17, r24
    1610:	c4 de       	rcall	.-632    	; 0x139a <getRandomColorValue()>
    1612:	08 2f       	mov	r16, r24
    1614:	c2 de       	rcall	.-636    	; 0x139a <getRandomColorValue()>
    1616:	f8 2e       	mov	r15, r24
    1618:	26 e1       	ldi	r18, 0x16	; 22
    161a:	31 e0       	ldi	r19, 0x01	; 1
    161c:	40 e0       	ldi	r20, 0x00	; 0
    161e:	50 e0       	ldi	r21, 0x00	; 0
    1620:	60 e0       	ldi	r22, 0x00	; 0
    1622:	70 e0       	ldi	r23, 0x00	; 0
    1624:	cb 01       	movw	r24, r22
    1626:	0e 94 6b 50 	call	0xa0d6	; 0xa0d6 <random(long, long)>
    162a:	fb 01       	movw	r30, r22
    162c:	ee 0f       	add	r30, r30
    162e:	ff 1f       	adc	r31, r31
    1630:	e6 0f       	add	r30, r22
    1632:	f7 1f       	adc	r31, r23
    1634:	e5 52       	subi	r30, 0x25	; 37
    1636:	f5 4f       	sbci	r31, 0xF5	; 245
    1638:	f0 82       	st	Z, r15
    163a:	01 83       	std	Z+1, r16	; 0x01
    163c:	12 83       	std	Z+2, r17	; 0x02
    163e:	21 96       	adiw	r28, 0x01	; 1
    1640:	df cf       	rjmp	.-66     	; 0x1600 <progFastBlingBling(unsigned int, unsigned char, unsigned char, unsigned char, unsigned char, unsigned int)+0x86>
    1642:	8a ed       	ldi	r24, 0xDA	; 218
    1644:	90 e1       	ldi	r25, 0x10	; 16
    1646:	df 91       	pop	r29
    1648:	cf 91       	pop	r28
    164a:	1f 91       	pop	r17
    164c:	0f 91       	pop	r16
    164e:	ff 90       	pop	r15
    1650:	ef 90       	pop	r14
    1652:	df 90       	pop	r13
    1654:	cf 90       	pop	r12
    1656:	6b cd       	rjmp	.-1322   	; 0x112e <CFastLED::show()>

00001658 <progFastBlingBling(unsigned int, unsigned char, unsigned char)>:
    1658:	ef 92       	push	r14
    165a:	ff 92       	push	r15
    165c:	0f 93       	push	r16
    165e:	f1 2c       	mov	r15, r1
    1660:	e1 2c       	mov	r14, r1
    1662:	00 e0       	ldi	r16, 0x00	; 0
    1664:	20 e0       	ldi	r18, 0x00	; 0
    1666:	89 df       	rcall	.-238    	; 0x157a <progFastBlingBling(unsigned int, unsigned char, unsigned char, unsigned char, unsigned char, unsigned int)>
    1668:	0f 91       	pop	r16
    166a:	ff 90       	pop	r15
    166c:	ef 90       	pop	r14
    166e:	08 95       	ret

00001670 <progFullColors(unsigned int, unsigned char, unsigned int)>:
    1670:	cf 92       	push	r12
    1672:	df 92       	push	r13
    1674:	ff 92       	push	r15
    1676:	0f 93       	push	r16
    1678:	1f 93       	push	r17
    167a:	cf 93       	push	r28
    167c:	df 93       	push	r29
    167e:	00 d0       	rcall	.+0      	; 0x1680 <progFullColors(unsigned int, unsigned char, unsigned int)+0x10>
    1680:	1f 92       	push	r1
    1682:	cd b7       	in	r28, 0x3d	; 61
    1684:	de b7       	in	r29, 0x3e	; 62
    1686:	6c 01       	movw	r12, r24
    1688:	f6 2e       	mov	r15, r22
    168a:	8a 01       	movw	r16, r20
    168c:	80 91 c7 0a 	lds	r24, 0x0AC7	; 0x800ac7 <nextChangeMillisAlreadyCalculated>
    1690:	81 11       	cpse	r24, r1
    1692:	12 c0       	rjmp	.+36     	; 0x16b8 <progFullColors(unsigned int, unsigned char, unsigned int)+0x48>
    1694:	61 e0       	ldi	r22, 0x01	; 1
    1696:	8a ed       	ldi	r24, 0xDA	; 218
    1698:	90 e1       	ldi	r25, 0x10	; 16
    169a:	0e 94 91 44 	call	0x8922	; 0x8922 <CFastLED::clear(bool)>
    169e:	d0 92 07 01 	sts	0x0107, r13	; 0x800107 <nextChangeMillis+0x1>
    16a2:	c0 92 06 01 	sts	0x0106, r12	; 0x800106 <nextChangeMillis>
    16a6:	f0 92 c6 0a 	sts	0x0AC6, r15	; 0x800ac6 <nextSongPart>
    16aa:	81 e0       	ldi	r24, 0x01	; 1
    16ac:	80 93 c7 0a 	sts	0x0AC7, r24	; 0x800ac7 <nextChangeMillisAlreadyCalculated>
    16b0:	10 93 ce 0a 	sts	0x0ACE, r17	; 0x800ace <millisCounterTimer+0x1>
    16b4:	00 93 cd 0a 	sts	0x0ACD, r16	; 0x800acd <millisCounterTimer>
    16b8:	80 91 cd 0a 	lds	r24, 0x0ACD	; 0x800acd <millisCounterTimer>
    16bc:	90 91 ce 0a 	lds	r25, 0x0ACE	; 0x800ace <millisCounterTimer+0x1>
    16c0:	80 17       	cp	r24, r16
    16c2:	91 07       	cpc	r25, r17
    16c4:	78 f1       	brcs	.+94     	; 0x1724 <progFullColors(unsigned int, unsigned char, unsigned int)+0xb4>
    16c6:	10 92 ce 0a 	sts	0x0ACE, r1	; 0x800ace <millisCounterTimer+0x1>
    16ca:	10 92 cd 0a 	sts	0x0ACD, r1	; 0x800acd <millisCounterTimer>
    16ce:	65 de       	rcall	.-822    	; 0x139a <getRandomColorValue()>
    16d0:	80 93 75 0a 	sts	0x0A75, r24	; 0x800a75 <r>
    16d4:	62 de       	rcall	.-828    	; 0x139a <getRandomColorValue()>
    16d6:	80 93 74 0a 	sts	0x0A74, r24	; 0x800a74 <g>
    16da:	5f de       	rcall	.-834    	; 0x139a <getRandomColorValue()>
    16dc:	80 93 73 0a 	sts	0x0A73, r24	; 0x800a73 <b>
    16e0:	90 91 75 0a 	lds	r25, 0x0A75	; 0x800a75 <r>
    16e4:	91 11       	cpse	r25, r1
    16e6:	0f c0       	rjmp	.+30     	; 0x1706 <progFullColors(unsigned int, unsigned char, unsigned int)+0x96>
    16e8:	90 91 74 0a 	lds	r25, 0x0A74	; 0x800a74 <g>
    16ec:	91 11       	cpse	r25, r1
    16ee:	0b c0       	rjmp	.+22     	; 0x1706 <progFullColors(unsigned int, unsigned char, unsigned int)+0x96>
    16f0:	81 11       	cpse	r24, r1
    16f2:	09 c0       	rjmp	.+18     	; 0x1706 <progFullColors(unsigned int, unsigned char, unsigned int)+0x96>
    16f4:	52 de       	rcall	.-860    	; 0x139a <getRandomColorValue()>
    16f6:	80 93 75 0a 	sts	0x0A75, r24	; 0x800a75 <r>
    16fa:	4f de       	rcall	.-866    	; 0x139a <getRandomColorValue()>
    16fc:	80 93 74 0a 	sts	0x0A74, r24	; 0x800a74 <g>
    1700:	4c de       	rcall	.-872    	; 0x139a <getRandomColorValue()>
    1702:	80 93 73 0a 	sts	0x0A73, r24	; 0x800a73 <b>
    1706:	80 91 73 0a 	lds	r24, 0x0A73	; 0x800a73 <b>
    170a:	90 91 74 0a 	lds	r25, 0x0A74	; 0x800a74 <g>
    170e:	20 91 75 0a 	lds	r18, 0x0A75	; 0x800a75 <r>
    1712:	29 83       	std	Y+1, r18	; 0x01
    1714:	9a 83       	std	Y+2, r25	; 0x02
    1716:	8b 83       	std	Y+3, r24	; 0x03
    1718:	be 01       	movw	r22, r28
    171a:	6f 5f       	subi	r22, 0xFF	; 255
    171c:	7f 4f       	sbci	r23, 0xFF	; 255
    171e:	8a ed       	ldi	r24, 0xDA	; 218
    1720:	90 e1       	ldi	r25, 0x10	; 16
    1722:	09 dd       	rcall	.-1518   	; 0x1136 <CFastLED::showColor(CRGB const&)>
    1724:	0f 90       	pop	r0
    1726:	0f 90       	pop	r0
    1728:	0f 90       	pop	r0
    172a:	df 91       	pop	r29
    172c:	cf 91       	pop	r28
    172e:	1f 91       	pop	r17
    1730:	0f 91       	pop	r16
    1732:	ff 90       	pop	r15
    1734:	df 90       	pop	r13
    1736:	cf 90       	pop	r12
    1738:	08 95       	ret

0000173a <progStrobo(unsigned int, unsigned char, unsigned int, int, int, int)>:
    173a:	af 92       	push	r10
    173c:	bf 92       	push	r11
    173e:	cf 92       	push	r12
    1740:	df 92       	push	r13
    1742:	ef 92       	push	r14
    1744:	ff 92       	push	r15
    1746:	0f 93       	push	r16
    1748:	1f 93       	push	r17
    174a:	cf 93       	push	r28
    174c:	df 93       	push	r29
    174e:	00 d0       	rcall	.+0      	; 0x1750 <progStrobo(unsigned int, unsigned char, unsigned int, int, int, int)+0x16>
    1750:	1f 92       	push	r1
    1752:	cd b7       	in	r28, 0x3d	; 61
    1754:	de b7       	in	r29, 0x3e	; 62
    1756:	5c 01       	movw	r10, r24
    1758:	f6 2e       	mov	r15, r22
    175a:	6a 01       	movw	r12, r20
    175c:	12 2f       	mov	r17, r18
    175e:	80 91 c7 0a 	lds	r24, 0x0AC7	; 0x800ac7 <nextChangeMillisAlreadyCalculated>
    1762:	81 11       	cpse	r24, r1
    1764:	12 c0       	rjmp	.+36     	; 0x178a <progStrobo(unsigned int, unsigned char, unsigned int, int, int, int)+0x50>
    1766:	61 e0       	ldi	r22, 0x01	; 1
    1768:	8a ed       	ldi	r24, 0xDA	; 218
    176a:	90 e1       	ldi	r25, 0x10	; 16
    176c:	0e 94 91 44 	call	0x8922	; 0x8922 <CFastLED::clear(bool)>
    1770:	b0 92 07 01 	sts	0x0107, r11	; 0x800107 <nextChangeMillis+0x1>
    1774:	a0 92 06 01 	sts	0x0106, r10	; 0x800106 <nextChangeMillis>
    1778:	f0 92 c6 0a 	sts	0x0AC6, r15	; 0x800ac6 <nextSongPart>
    177c:	81 e0       	ldi	r24, 0x01	; 1
    177e:	80 93 c7 0a 	sts	0x0AC7, r24	; 0x800ac7 <nextChangeMillisAlreadyCalculated>
    1782:	d0 92 ce 0a 	sts	0x0ACE, r13	; 0x800ace <millisCounterTimer+0x1>
    1786:	c0 92 cd 0a 	sts	0x0ACD, r12	; 0x800acd <millisCounterTimer>
    178a:	80 91 cd 0a 	lds	r24, 0x0ACD	; 0x800acd <millisCounterTimer>
    178e:	90 91 ce 0a 	lds	r25, 0x0ACE	; 0x800ace <millisCounterTimer+0x1>
    1792:	8c 15       	cp	r24, r12
    1794:	9d 05       	cpc	r25, r13
    1796:	98 f0       	brcs	.+38     	; 0x17be <progStrobo(unsigned int, unsigned char, unsigned int, int, int, int)+0x84>
    1798:	10 92 ce 0a 	sts	0x0ACE, r1	; 0x800ace <millisCounterTimer+0x1>
    179c:	10 92 cd 0a 	sts	0x0ACD, r1	; 0x800acd <millisCounterTimer>
    17a0:	80 91 d0 0a 	lds	r24, 0x0AD0	; 0x800ad0 <progStroboIsBlack>
    17a4:	88 23       	and	r24, r24
    17a6:	c9 f0       	breq	.+50     	; 0x17da <progStrobo(unsigned int, unsigned char, unsigned int, int, int, int)+0xa0>
    17a8:	19 83       	std	Y+1, r17	; 0x01
    17aa:	0a 83       	std	Y+2, r16	; 0x02
    17ac:	eb 82       	std	Y+3, r14	; 0x03
    17ae:	be 01       	movw	r22, r28
    17b0:	6f 5f       	subi	r22, 0xFF	; 255
    17b2:	7f 4f       	sbci	r23, 0xFF	; 255
    17b4:	8a ed       	ldi	r24, 0xDA	; 218
    17b6:	90 e1       	ldi	r25, 0x10	; 16
    17b8:	be dc       	rcall	.-1668   	; 0x1136 <CFastLED::showColor(CRGB const&)>
    17ba:	10 92 d0 0a 	sts	0x0AD0, r1	; 0x800ad0 <progStroboIsBlack>
    17be:	0f 90       	pop	r0
    17c0:	0f 90       	pop	r0
    17c2:	0f 90       	pop	r0
    17c4:	df 91       	pop	r29
    17c6:	cf 91       	pop	r28
    17c8:	1f 91       	pop	r17
    17ca:	0f 91       	pop	r16
    17cc:	ff 90       	pop	r15
    17ce:	ef 90       	pop	r14
    17d0:	df 90       	pop	r13
    17d2:	cf 90       	pop	r12
    17d4:	bf 90       	pop	r11
    17d6:	af 90       	pop	r10
    17d8:	08 95       	ret
    17da:	19 82       	std	Y+1, r1	; 0x01
    17dc:	1a 82       	std	Y+2, r1	; 0x02
    17de:	1b 82       	std	Y+3, r1	; 0x03
    17e0:	be 01       	movw	r22, r28
    17e2:	6f 5f       	subi	r22, 0xFF	; 255
    17e4:	7f 4f       	sbci	r23, 0xFF	; 255
    17e6:	8a ed       	ldi	r24, 0xDA	; 218
    17e8:	90 e1       	ldi	r25, 0x10	; 16
    17ea:	a5 dc       	rcall	.-1718   	; 0x1136 <CFastLED::showColor(CRGB const&)>
    17ec:	81 e0       	ldi	r24, 0x01	; 1
    17ee:	80 93 d0 0a 	sts	0x0AD0, r24	; 0x800ad0 <progStroboIsBlack>
    17f2:	e5 cf       	rjmp	.-54     	; 0x17be <progStrobo(unsigned int, unsigned char, unsigned int, int, int, int)+0x84>

000017f4 <progMatrixScanner(unsigned int, unsigned char, unsigned int)>:
    17f4:	ef 92       	push	r14
    17f6:	ff 92       	push	r15
    17f8:	0f 93       	push	r16
    17fa:	1f 93       	push	r17
    17fc:	cf 93       	push	r28
    17fe:	df 93       	push	r29
    1800:	7c 01       	movw	r14, r24
    1802:	16 2f       	mov	r17, r22
    1804:	ea 01       	movw	r28, r20
    1806:	80 91 c7 0a 	lds	r24, 0x0AC7	; 0x800ac7 <nextChangeMillisAlreadyCalculated>
    180a:	81 11       	cpse	r24, r1
    180c:	0e c0       	rjmp	.+28     	; 0x182a <progMatrixScanner(unsigned int, unsigned char, unsigned int)+0x36>
    180e:	61 e0       	ldi	r22, 0x01	; 1
    1810:	8a ed       	ldi	r24, 0xDA	; 218
    1812:	90 e1       	ldi	r25, 0x10	; 16
    1814:	0e 94 91 44 	call	0x8922	; 0x8922 <CFastLED::clear(bool)>
    1818:	f0 92 07 01 	sts	0x0107, r15	; 0x800107 <nextChangeMillis+0x1>
    181c:	e0 92 06 01 	sts	0x0106, r14	; 0x800106 <nextChangeMillis>
    1820:	10 93 c6 0a 	sts	0x0AC6, r17	; 0x800ac6 <nextSongPart>
    1824:	81 e0       	ldi	r24, 0x01	; 1
    1826:	80 93 c7 0a 	sts	0x0AC7, r24	; 0x800ac7 <nextChangeMillisAlreadyCalculated>
    182a:	80 91 cd 0a 	lds	r24, 0x0ACD	; 0x800acd <millisCounterTimer>
    182e:	90 91 ce 0a 	lds	r25, 0x0ACE	; 0x800ace <millisCounterTimer+0x1>
    1832:	8c 17       	cp	r24, r28
    1834:	9d 07       	cpc	r25, r29
    1836:	08 f4       	brcc	.+2      	; 0x183a <progMatrixScanner(unsigned int, unsigned char, unsigned int)+0x46>
    1838:	ad c0       	rjmp	.+346    	; 0x1994 <progMatrixScanner(unsigned int, unsigned char, unsigned int)+0x1a0>
    183a:	10 92 ce 0a 	sts	0x0ACE, r1	; 0x800ace <millisCounterTimer+0x1>
    183e:	10 92 cd 0a 	sts	0x0ACD, r1	; 0x800acd <millisCounterTimer>
    1842:	60 e0       	ldi	r22, 0x00	; 0
    1844:	8a ed       	ldi	r24, 0xDA	; 218
    1846:	90 e1       	ldi	r25, 0x10	; 16
    1848:	0e 94 91 44 	call	0x8922	; 0x8922 <CFastLED::clear(bool)>
    184c:	20 91 b9 0a 	lds	r18, 0x0AB9	; 0x800ab9 <scannerGoesBack>
    1850:	60 91 be 0a 	lds	r22, 0x0ABE	; 0x800abe <zaehler>
    1854:	70 91 bf 0a 	lds	r23, 0x0ABF	; 0x800abf <zaehler+0x1>
    1858:	80 91 c9 10 	lds	r24, 0x10C9	; 0x8010c9 <matrix>
    185c:	90 91 ca 10 	lds	r25, 0x10CA	; 0x8010ca <matrix+0x1>
    1860:	21 11       	cpse	r18, r1
    1862:	52 c0       	rjmp	.+164    	; 0x1908 <progMatrixScanner(unsigned int, unsigned char, unsigned int)+0x114>
    1864:	6f 5f       	subi	r22, 0xFF	; 255
    1866:	7f 4f       	sbci	r23, 0xFF	; 255
    1868:	70 93 bf 0a 	sts	0x0ABF, r23	; 0x800abf <zaehler+0x1>
    186c:	60 93 be 0a 	sts	0x0ABE, r22	; 0x800abe <zaehler>
    1870:	6c 31       	cpi	r22, 0x1C	; 28
    1872:	71 05       	cpc	r23, r1
    1874:	1c f0       	brlt	.+6      	; 0x187c <progMatrixScanner(unsigned int, unsigned char, unsigned int)+0x88>
    1876:	21 e0       	ldi	r18, 0x01	; 1
    1878:	20 93 b9 0a 	sts	0x0AB9, r18	; 0x800ab9 <scannerGoesBack>
    187c:	dc 01       	movw	r26, r24
    187e:	ed 91       	ld	r30, X+
    1880:	fc 91       	ld	r31, X
    1882:	04 a0       	ldd	r0, Z+36	; 0x24
    1884:	f5 a1       	ldd	r31, Z+37	; 0x25
    1886:	e0 2d       	mov	r30, r0
    1888:	e1 2c       	mov	r14, r1
    188a:	58 ef       	ldi	r21, 0xF8	; 248
    188c:	f5 2e       	mov	r15, r21
    188e:	07 e1       	ldi	r16, 0x17	; 23
    1890:	10 e0       	ldi	r17, 0x00	; 0
    1892:	9b 01       	movw	r18, r22
    1894:	50 e0       	ldi	r21, 0x00	; 0
    1896:	40 e0       	ldi	r20, 0x00	; 0
    1898:	09 95       	icall
    189a:	80 91 c9 10 	lds	r24, 0x10C9	; 0x8010c9 <matrix>
    189e:	90 91 ca 10 	lds	r25, 0x10CA	; 0x8010ca <matrix+0x1>
    18a2:	60 91 be 0a 	lds	r22, 0x0ABE	; 0x800abe <zaehler>
    18a6:	70 91 bf 0a 	lds	r23, 0x0ABF	; 0x800abf <zaehler+0x1>
    18aa:	61 50       	subi	r22, 0x01	; 1
    18ac:	71 09       	sbc	r23, r1
    18ae:	dc 01       	movw	r26, r24
    18b0:	ed 91       	ld	r30, X+
    18b2:	fc 91       	ld	r31, X
    18b4:	04 a0       	ldd	r0, Z+36	; 0x24
    18b6:	f5 a1       	ldd	r31, Z+37	; 0x25
    18b8:	e0 2d       	mov	r30, r0
    18ba:	ee 24       	eor	r14, r14
    18bc:	ea 94       	dec	r14
    18be:	fe 2c       	mov	r15, r14
    18c0:	9b 01       	movw	r18, r22
    18c2:	50 e0       	ldi	r21, 0x00	; 0
    18c4:	40 e0       	ldi	r20, 0x00	; 0
    18c6:	09 95       	icall
    18c8:	80 91 c9 10 	lds	r24, 0x10C9	; 0x8010c9 <matrix>
    18cc:	90 91 ca 10 	lds	r25, 0x10CA	; 0x8010ca <matrix+0x1>
    18d0:	60 91 be 0a 	lds	r22, 0x0ABE	; 0x800abe <zaehler>
    18d4:	70 91 bf 0a 	lds	r23, 0x0ABF	; 0x800abf <zaehler+0x1>
    18d8:	62 50       	subi	r22, 0x02	; 2
    18da:	71 09       	sbc	r23, r1
    18dc:	dc 01       	movw	r26, r24
    18de:	ed 91       	ld	r30, X+
    18e0:	fc 91       	ld	r31, X
    18e2:	04 a0       	ldd	r0, Z+36	; 0x24
    18e4:	f5 a1       	ldd	r31, Z+37	; 0x25
    18e6:	e0 2d       	mov	r30, r0
    18e8:	e1 2c       	mov	r14, r1
    18ea:	b8 ef       	ldi	r27, 0xF8	; 248
    18ec:	fb 2e       	mov	r15, r27
    18ee:	9b 01       	movw	r18, r22
    18f0:	50 e0       	ldi	r21, 0x00	; 0
    18f2:	40 e0       	ldi	r20, 0x00	; 0
    18f4:	09 95       	icall
    18f6:	8a ed       	ldi	r24, 0xDA	; 218
    18f8:	90 e1       	ldi	r25, 0x10	; 16
    18fa:	df 91       	pop	r29
    18fc:	cf 91       	pop	r28
    18fe:	1f 91       	pop	r17
    1900:	0f 91       	pop	r16
    1902:	ff 90       	pop	r15
    1904:	ef 90       	pop	r14
    1906:	13 cc       	rjmp	.-2010   	; 0x112e <CFastLED::show()>
    1908:	61 50       	subi	r22, 0x01	; 1
    190a:	71 09       	sbc	r23, r1
    190c:	70 93 bf 0a 	sts	0x0ABF, r23	; 0x800abf <zaehler+0x1>
    1910:	60 93 be 0a 	sts	0x0ABE, r22	; 0x800abe <zaehler>
    1914:	6b 3f       	cpi	r22, 0xFB	; 251
    1916:	bf ef       	ldi	r27, 0xFF	; 255
    1918:	7b 07       	cpc	r23, r27
    191a:	14 f4       	brge	.+4      	; 0x1920 <progMatrixScanner(unsigned int, unsigned char, unsigned int)+0x12c>
    191c:	10 92 b9 0a 	sts	0x0AB9, r1	; 0x800ab9 <scannerGoesBack>
    1920:	dc 01       	movw	r26, r24
    1922:	ed 91       	ld	r30, X+
    1924:	fc 91       	ld	r31, X
    1926:	04 a0       	ldd	r0, Z+36	; 0x24
    1928:	f5 a1       	ldd	r31, Z+37	; 0x25
    192a:	e0 2d       	mov	r30, r0
    192c:	ee 24       	eor	r14, r14
    192e:	ea 94       	dec	r14
    1930:	fe 2c       	mov	r15, r14
    1932:	07 e1       	ldi	r16, 0x17	; 23
    1934:	10 e0       	ldi	r17, 0x00	; 0
    1936:	9b 01       	movw	r18, r22
    1938:	50 e0       	ldi	r21, 0x00	; 0
    193a:	40 e0       	ldi	r20, 0x00	; 0
    193c:	09 95       	icall
    193e:	80 91 c9 10 	lds	r24, 0x10C9	; 0x8010c9 <matrix>
    1942:	90 91 ca 10 	lds	r25, 0x10CA	; 0x8010ca <matrix+0x1>
    1946:	60 91 be 0a 	lds	r22, 0x0ABE	; 0x800abe <zaehler>
    194a:	70 91 bf 0a 	lds	r23, 0x0ABF	; 0x800abf <zaehler+0x1>
    194e:	61 50       	subi	r22, 0x01	; 1
    1950:	71 09       	sbc	r23, r1
    1952:	dc 01       	movw	r26, r24
    1954:	ed 91       	ld	r30, X+
    1956:	fc 91       	ld	r31, X
    1958:	04 a0       	ldd	r0, Z+36	; 0x24
    195a:	f5 a1       	ldd	r31, Z+37	; 0x25
    195c:	e0 2d       	mov	r30, r0
    195e:	e1 2c       	mov	r14, r1
    1960:	38 ef       	ldi	r19, 0xF8	; 248
    1962:	f3 2e       	mov	r15, r19
    1964:	9b 01       	movw	r18, r22
    1966:	50 e0       	ldi	r21, 0x00	; 0
    1968:	40 e0       	ldi	r20, 0x00	; 0
    196a:	09 95       	icall
    196c:	80 91 c9 10 	lds	r24, 0x10C9	; 0x8010c9 <matrix>
    1970:	90 91 ca 10 	lds	r25, 0x10CA	; 0x8010ca <matrix+0x1>
    1974:	60 91 be 0a 	lds	r22, 0x0ABE	; 0x800abe <zaehler>
    1978:	70 91 bf 0a 	lds	r23, 0x0ABF	; 0x800abf <zaehler+0x1>
    197c:	62 50       	subi	r22, 0x02	; 2
    197e:	71 09       	sbc	r23, r1
    1980:	dc 01       	movw	r26, r24
    1982:	ed 91       	ld	r30, X+
    1984:	fc 91       	ld	r31, X
    1986:	04 a0       	ldd	r0, Z+36	; 0x24
    1988:	f5 a1       	ldd	r31, Z+37	; 0x25
    198a:	e0 2d       	mov	r30, r0
    198c:	ee 24       	eor	r14, r14
    198e:	ea 94       	dec	r14
    1990:	fe 2c       	mov	r15, r14
    1992:	ad cf       	rjmp	.-166    	; 0x18ee <progMatrixScanner(unsigned int, unsigned char, unsigned int)+0xfa>
    1994:	df 91       	pop	r29
    1996:	cf 91       	pop	r28
    1998:	1f 91       	pop	r17
    199a:	0f 91       	pop	r16
    199c:	ff 90       	pop	r15
    199e:	ef 90       	pop	r14
    19a0:	08 95       	ret

000019a2 <progMatrixScanner(unsigned int, unsigned char)>:
    19a2:	50 e0       	ldi	r21, 0x00	; 0
    19a4:	40 e0       	ldi	r20, 0x00	; 0
    19a6:	26 cf       	rjmp	.-436    	; 0x17f4 <progMatrixScanner(unsigned int, unsigned char, unsigned int)>

000019a8 <progStern(unsigned int, int, unsigned char)>:
    19a8:	8f 92       	push	r8
    19aa:	9f 92       	push	r9
    19ac:	af 92       	push	r10
    19ae:	bf 92       	push	r11
    19b0:	cf 92       	push	r12
    19b2:	df 92       	push	r13
    19b4:	ef 92       	push	r14
    19b6:	ff 92       	push	r15
    19b8:	0f 93       	push	r16
    19ba:	1f 93       	push	r17
    19bc:	cf 93       	push	r28
    19be:	df 93       	push	r29
    19c0:	7c 01       	movw	r14, r24
    19c2:	eb 01       	movw	r28, r22
    19c4:	14 2f       	mov	r17, r20
    19c6:	80 91 c7 0a 	lds	r24, 0x0AC7	; 0x800ac7 <nextChangeMillisAlreadyCalculated>
    19ca:	81 11       	cpse	r24, r1
    19cc:	18 c0       	rjmp	.+48     	; 0x19fe <progStern(unsigned int, int, unsigned char)+0x56>
    19ce:	61 e0       	ldi	r22, 0x01	; 1
    19d0:	8a ed       	ldi	r24, 0xDA	; 218
    19d2:	90 e1       	ldi	r25, 0x10	; 16
    19d4:	0e 94 91 44 	call	0x8922	; 0x8922 <CFastLED::clear(bool)>
    19d8:	f0 92 07 01 	sts	0x0107, r15	; 0x800107 <nextChangeMillis+0x1>
    19dc:	e0 92 06 01 	sts	0x0106, r14	; 0x800106 <nextChangeMillis>
    19e0:	10 93 c6 0a 	sts	0x0AC6, r17	; 0x800ac6 <nextSongPart>
    19e4:	81 e0       	ldi	r24, 0x01	; 1
    19e6:	80 93 c7 0a 	sts	0x0AC7, r24	; 0x800ac7 <nextChangeMillisAlreadyCalculated>
    19ea:	f0 dc       	rcall	.-1568   	; 0x13cc <getRandomColor()>
    19ec:	90 93 d9 0a 	sts	0x0AD9, r25	; 0x800ad9 <col1+0x1>
    19f0:	80 93 d8 0a 	sts	0x0AD8, r24	; 0x800ad8 <col1>
    19f4:	eb dc       	rcall	.-1578   	; 0x13cc <getRandomColor()>
    19f6:	90 93 d7 0a 	sts	0x0AD7, r25	; 0x800ad7 <col2+0x1>
    19fa:	80 93 d6 0a 	sts	0x0AD6, r24	; 0x800ad6 <col2>
    19fe:	1c 16       	cp	r1, r28
    1a00:	1d 06       	cpc	r1, r29
    1a02:	ac f4       	brge	.+42     	; 0x1a2e <progStern(unsigned int, int, unsigned char)+0x86>
    1a04:	80 91 cd 0a 	lds	r24, 0x0ACD	; 0x800acd <millisCounterTimer>
    1a08:	90 91 ce 0a 	lds	r25, 0x0ACE	; 0x800ace <millisCounterTimer+0x1>
    1a0c:	8c 17       	cp	r24, r28
    1a0e:	9d 07       	cpc	r25, r29
    1a10:	70 f0       	brcs	.+28     	; 0x1a2e <progStern(unsigned int, int, unsigned char)+0x86>
    1a12:	10 92 ce 0a 	sts	0x0ACE, r1	; 0x800ace <millisCounterTimer+0x1>
    1a16:	10 92 cd 0a 	sts	0x0ACD, r1	; 0x800acd <millisCounterTimer>
    1a1a:	d8 dc       	rcall	.-1616   	; 0x13cc <getRandomColor()>
    1a1c:	90 93 d9 0a 	sts	0x0AD9, r25	; 0x800ad9 <col1+0x1>
    1a20:	80 93 d8 0a 	sts	0x0AD8, r24	; 0x800ad8 <col1>
    1a24:	d3 dc       	rcall	.-1626   	; 0x13cc <getRandomColor()>
    1a26:	90 93 d7 0a 	sts	0x0AD7, r25	; 0x800ad7 <col2+0x1>
    1a2a:	80 93 d6 0a 	sts	0x0AD6, r24	; 0x800ad6 <col2>
    1a2e:	80 91 be 0a 	lds	r24, 0x0ABE	; 0x800abe <zaehler>
    1a32:	90 91 bf 0a 	lds	r25, 0x0ABF	; 0x800abf <zaehler+0x1>
    1a36:	01 96       	adiw	r24, 0x01	; 1
    1a38:	8a 30       	cpi	r24, 0x0A	; 10
    1a3a:	91 05       	cpc	r25, r1
    1a3c:	0c f0       	brlt	.+2      	; 0x1a40 <progStern(unsigned int, int, unsigned char)+0x98>
    1a3e:	fc c0       	rjmp	.+504    	; 0x1c38 <progStern(unsigned int, int, unsigned char)+0x290>
    1a40:	90 93 bf 0a 	sts	0x0ABF, r25	; 0x800abf <zaehler+0x1>
    1a44:	80 93 be 0a 	sts	0x0ABE, r24	; 0x800abe <zaehler>
    1a48:	60 e0       	ldi	r22, 0x00	; 0
    1a4a:	8a ed       	ldi	r24, 0xDA	; 218
    1a4c:	90 e1       	ldi	r25, 0x10	; 16
    1a4e:	0e 94 91 44 	call	0x8922	; 0x8922 <CFastLED::clear(bool)>
    1a52:	80 91 c9 10 	lds	r24, 0x10C9	; 0x8010c9 <matrix>
    1a56:	90 91 ca 10 	lds	r25, 0x10CA	; 0x8010ca <matrix+0x1>
    1a5a:	40 91 be 0a 	lds	r20, 0x0ABE	; 0x800abe <zaehler>
    1a5e:	50 91 bf 0a 	lds	r21, 0x0ABF	; 0x800abf <zaehler+0x1>
    1a62:	e0 90 d8 0a 	lds	r14, 0x0AD8	; 0x800ad8 <col1>
    1a66:	f0 90 d9 0a 	lds	r15, 0x0AD9	; 0x800ad9 <col1+0x1>
    1a6a:	9a 01       	movw	r18, r20
    1a6c:	26 5f       	subi	r18, 0xF6	; 246
    1a6e:	3f 4f       	sbci	r19, 0xFF	; 255
    1a70:	6a e0       	ldi	r22, 0x0A	; 10
    1a72:	a6 2e       	mov	r10, r22
    1a74:	b1 2c       	mov	r11, r1
    1a76:	b5 01       	movw	r22, r10
    1a78:	64 1b       	sub	r22, r20
    1a7a:	75 0b       	sbc	r23, r21
    1a7c:	dc 01       	movw	r26, r24
    1a7e:	ed 91       	ld	r30, X+
    1a80:	fc 91       	ld	r31, X
    1a82:	04 a0       	ldd	r0, Z+36	; 0x24
    1a84:	f5 a1       	ldd	r31, Z+37	; 0x25
    1a86:	e0 2d       	mov	r30, r0
    1a88:	06 e1       	ldi	r16, 0x16	; 22
    1a8a:	10 e0       	ldi	r17, 0x00	; 0
    1a8c:	50 e0       	ldi	r21, 0x00	; 0
    1a8e:	40 e0       	ldi	r20, 0x00	; 0
    1a90:	09 95       	icall
    1a92:	80 91 c9 10 	lds	r24, 0x10C9	; 0x8010c9 <matrix>
    1a96:	90 91 ca 10 	lds	r25, 0x10CA	; 0x8010ca <matrix+0x1>
    1a9a:	40 91 be 0a 	lds	r20, 0x0ABE	; 0x800abe <zaehler>
    1a9e:	50 91 bf 0a 	lds	r21, 0x0ABF	; 0x800abf <zaehler+0x1>
    1aa2:	e0 90 d6 0a 	lds	r14, 0x0AD6	; 0x800ad6 <col2>
    1aa6:	f0 90 d7 0a 	lds	r15, 0x0AD7	; 0x800ad7 <col2+0x1>
    1aaa:	9a 01       	movw	r18, r20
    1aac:	25 5f       	subi	r18, 0xF5	; 245
    1aae:	3f 4f       	sbci	r19, 0xFF	; 255
    1ab0:	7b e0       	ldi	r23, 0x0B	; 11
    1ab2:	87 2e       	mov	r8, r23
    1ab4:	91 2c       	mov	r9, r1
    1ab6:	b4 01       	movw	r22, r8
    1ab8:	64 1b       	sub	r22, r20
    1aba:	75 0b       	sbc	r23, r21
    1abc:	dc 01       	movw	r26, r24
    1abe:	ed 91       	ld	r30, X+
    1ac0:	fc 91       	ld	r31, X
    1ac2:	04 a0       	ldd	r0, Z+36	; 0x24
    1ac4:	f5 a1       	ldd	r31, Z+37	; 0x25
    1ac6:	e0 2d       	mov	r30, r0
    1ac8:	50 e0       	ldi	r21, 0x00	; 0
    1aca:	40 e0       	ldi	r20, 0x00	; 0
    1acc:	09 95       	icall
    1ace:	80 91 c9 10 	lds	r24, 0x10C9	; 0x8010c9 <matrix>
    1ad2:	90 91 ca 10 	lds	r25, 0x10CA	; 0x8010ca <matrix+0x1>
    1ad6:	40 91 be 0a 	lds	r20, 0x0ABE	; 0x800abe <zaehler>
    1ada:	50 91 bf 0a 	lds	r21, 0x0ABF	; 0x800abf <zaehler+0x1>
    1ade:	e0 90 d8 0a 	lds	r14, 0x0AD8	; 0x800ad8 <col1>
    1ae2:	f0 90 d9 0a 	lds	r15, 0x0AD9	; 0x800ad9 <col1+0x1>
    1ae6:	e6 e1       	ldi	r30, 0x16	; 22
    1ae8:	ce 2e       	mov	r12, r30
    1aea:	d1 2c       	mov	r13, r1
    1aec:	04 1b       	sub	r16, r20
    1aee:	15 0b       	sbc	r17, r21
    1af0:	4f 5f       	subi	r20, 0xFF	; 255
    1af2:	5f 4f       	sbci	r21, 0xFF	; 255
    1af4:	dc 01       	movw	r26, r24
    1af6:	ed 91       	ld	r30, X+
    1af8:	fc 91       	ld	r31, X
    1afa:	04 a0       	ldd	r0, Z+36	; 0x24
    1afc:	f5 a1       	ldd	r31, Z+37	; 0x25
    1afe:	e0 2d       	mov	r30, r0
    1b00:	25 e1       	ldi	r18, 0x15	; 21
    1b02:	30 e0       	ldi	r19, 0x00	; 0
    1b04:	70 e0       	ldi	r23, 0x00	; 0
    1b06:	60 e0       	ldi	r22, 0x00	; 0
    1b08:	09 95       	icall
    1b0a:	80 91 c9 10 	lds	r24, 0x10C9	; 0x8010c9 <matrix>
    1b0e:	90 91 ca 10 	lds	r25, 0x10CA	; 0x8010ca <matrix+0x1>
    1b12:	40 91 be 0a 	lds	r20, 0x0ABE	; 0x800abe <zaehler>
    1b16:	50 91 bf 0a 	lds	r21, 0x0ABF	; 0x800abf <zaehler+0x1>
    1b1a:	e0 90 d6 0a 	lds	r14, 0x0AD6	; 0x800ad6 <col2>
    1b1e:	f0 90 d7 0a 	lds	r15, 0x0AD7	; 0x800ad7 <col2+0x1>
    1b22:	c5 e1       	ldi	r28, 0x15	; 21
    1b24:	d0 e0       	ldi	r29, 0x00	; 0
    1b26:	8e 01       	movw	r16, r28
    1b28:	04 1b       	sub	r16, r20
    1b2a:	15 0b       	sbc	r17, r21
    1b2c:	dc 01       	movw	r26, r24
    1b2e:	ed 91       	ld	r30, X+
    1b30:	fc 91       	ld	r31, X
    1b32:	04 a0       	ldd	r0, Z+36	; 0x24
    1b34:	f5 a1       	ldd	r31, Z+37	; 0x25
    1b36:	e0 2d       	mov	r30, r0
    1b38:	25 e1       	ldi	r18, 0x15	; 21
    1b3a:	30 e0       	ldi	r19, 0x00	; 0
    1b3c:	70 e0       	ldi	r23, 0x00	; 0
    1b3e:	60 e0       	ldi	r22, 0x00	; 0
    1b40:	09 95       	icall
    1b42:	80 91 c9 10 	lds	r24, 0x10C9	; 0x8010c9 <matrix>
    1b46:	90 91 ca 10 	lds	r25, 0x10CA	; 0x8010ca <matrix+0x1>
    1b4a:	40 91 be 0a 	lds	r20, 0x0ABE	; 0x800abe <zaehler>
    1b4e:	50 91 bf 0a 	lds	r21, 0x0ABF	; 0x800abf <zaehler+0x1>
    1b52:	e0 90 d8 0a 	lds	r14, 0x0AD8	; 0x800ad8 <col1>
    1b56:	f0 90 d9 0a 	lds	r15, 0x0AD9	; 0x800ad9 <col1+0x1>
    1b5a:	84 01       	movw	r16, r8
    1b5c:	04 1b       	sub	r16, r20
    1b5e:	15 0b       	sbc	r17, r21
    1b60:	45 5f       	subi	r20, 0xF5	; 245
    1b62:	5f 4f       	sbci	r21, 0xFF	; 255
    1b64:	dc 01       	movw	r26, r24
    1b66:	ed 91       	ld	r30, X+
    1b68:	fc 91       	ld	r31, X
    1b6a:	04 a0       	ldd	r0, Z+36	; 0x24
    1b6c:	f5 a1       	ldd	r31, Z+37	; 0x25
    1b6e:	e0 2d       	mov	r30, r0
    1b70:	25 e1       	ldi	r18, 0x15	; 21
    1b72:	30 e0       	ldi	r19, 0x00	; 0
    1b74:	70 e0       	ldi	r23, 0x00	; 0
    1b76:	60 e0       	ldi	r22, 0x00	; 0
    1b78:	09 95       	icall
    1b7a:	80 91 c9 10 	lds	r24, 0x10C9	; 0x8010c9 <matrix>
    1b7e:	90 91 ca 10 	lds	r25, 0x10CA	; 0x8010ca <matrix+0x1>
    1b82:	40 91 be 0a 	lds	r20, 0x0ABE	; 0x800abe <zaehler>
    1b86:	50 91 bf 0a 	lds	r21, 0x0ABF	; 0x800abf <zaehler+0x1>
    1b8a:	e0 90 d6 0a 	lds	r14, 0x0AD6	; 0x800ad6 <col2>
    1b8e:	f0 90 d7 0a 	lds	r15, 0x0AD7	; 0x800ad7 <col2+0x1>
    1b92:	85 01       	movw	r16, r10
    1b94:	04 1b       	sub	r16, r20
    1b96:	15 0b       	sbc	r17, r21
    1b98:	46 5f       	subi	r20, 0xF6	; 246
    1b9a:	5f 4f       	sbci	r21, 0xFF	; 255
    1b9c:	dc 01       	movw	r26, r24
    1b9e:	ed 91       	ld	r30, X+
    1ba0:	fc 91       	ld	r31, X
    1ba2:	04 a0       	ldd	r0, Z+36	; 0x24
    1ba4:	f5 a1       	ldd	r31, Z+37	; 0x25
    1ba6:	e0 2d       	mov	r30, r0
    1ba8:	25 e1       	ldi	r18, 0x15	; 21
    1baa:	30 e0       	ldi	r19, 0x00	; 0
    1bac:	70 e0       	ldi	r23, 0x00	; 0
    1bae:	60 e0       	ldi	r22, 0x00	; 0
    1bb0:	09 95       	icall
    1bb2:	80 91 c9 10 	lds	r24, 0x10C9	; 0x8010c9 <matrix>
    1bb6:	90 91 ca 10 	lds	r25, 0x10CA	; 0x8010ca <matrix+0x1>
    1bba:	60 91 be 0a 	lds	r22, 0x0ABE	; 0x800abe <zaehler>
    1bbe:	70 91 bf 0a 	lds	r23, 0x0ABF	; 0x800abf <zaehler+0x1>
    1bc2:	e0 90 d8 0a 	lds	r14, 0x0AD8	; 0x800ad8 <col1>
    1bc6:	f0 90 d9 0a 	lds	r15, 0x0AD9	; 0x800ad9 <col1+0x1>
    1bca:	96 01       	movw	r18, r12
    1bcc:	26 1b       	sub	r18, r22
    1bce:	37 0b       	sbc	r19, r23
    1bd0:	dc 01       	movw	r26, r24
    1bd2:	ed 91       	ld	r30, X+
    1bd4:	fc 91       	ld	r31, X
    1bd6:	04 a0       	ldd	r0, Z+36	; 0x24
    1bd8:	f5 a1       	ldd	r31, Z+37	; 0x25
    1bda:	e0 2d       	mov	r30, r0
    1bdc:	10 e0       	ldi	r17, 0x00	; 0
    1bde:	00 e0       	ldi	r16, 0x00	; 0
    1be0:	46 e1       	ldi	r20, 0x16	; 22
    1be2:	50 e0       	ldi	r21, 0x00	; 0
    1be4:	09 95       	icall
    1be6:	80 91 c9 10 	lds	r24, 0x10C9	; 0x8010c9 <matrix>
    1bea:	90 91 ca 10 	lds	r25, 0x10CA	; 0x8010ca <matrix+0x1>
    1bee:	60 91 be 0a 	lds	r22, 0x0ABE	; 0x800abe <zaehler>
    1bf2:	70 91 bf 0a 	lds	r23, 0x0ABF	; 0x800abf <zaehler+0x1>
    1bf6:	e0 90 d6 0a 	lds	r14, 0x0AD6	; 0x800ad6 <col2>
    1bfa:	f0 90 d7 0a 	lds	r15, 0x0AD7	; 0x800ad7 <col2+0x1>
    1bfe:	9e 01       	movw	r18, r28
    1c00:	26 1b       	sub	r18, r22
    1c02:	37 0b       	sbc	r19, r23
    1c04:	61 50       	subi	r22, 0x01	; 1
    1c06:	71 09       	sbc	r23, r1
    1c08:	dc 01       	movw	r26, r24
    1c0a:	ed 91       	ld	r30, X+
    1c0c:	fc 91       	ld	r31, X
    1c0e:	04 a0       	ldd	r0, Z+36	; 0x24
    1c10:	f5 a1       	ldd	r31, Z+37	; 0x25
    1c12:	e0 2d       	mov	r30, r0
    1c14:	46 e1       	ldi	r20, 0x16	; 22
    1c16:	50 e0       	ldi	r21, 0x00	; 0
    1c18:	09 95       	icall
    1c1a:	8a ed       	ldi	r24, 0xDA	; 218
    1c1c:	90 e1       	ldi	r25, 0x10	; 16
    1c1e:	df 91       	pop	r29
    1c20:	cf 91       	pop	r28
    1c22:	1f 91       	pop	r17
    1c24:	0f 91       	pop	r16
    1c26:	ff 90       	pop	r15
    1c28:	ef 90       	pop	r14
    1c2a:	df 90       	pop	r13
    1c2c:	cf 90       	pop	r12
    1c2e:	bf 90       	pop	r11
    1c30:	af 90       	pop	r10
    1c32:	9f 90       	pop	r9
    1c34:	8f 90       	pop	r8
    1c36:	7b ca       	rjmp	.-2826   	; 0x112e <CFastLED::show()>
    1c38:	10 92 bf 0a 	sts	0x0ABF, r1	; 0x800abf <zaehler+0x1>
    1c3c:	10 92 be 0a 	sts	0x0ABE, r1	; 0x800abe <zaehler>
    1c40:	03 cf       	rjmp	.-506    	; 0x1a48 <progStern(unsigned int, int, unsigned char)+0xa0>

00001c42 <progStern(unsigned int, unsigned char)>:
    1c42:	46 2f       	mov	r20, r22
    1c44:	70 e0       	ldi	r23, 0x00	; 0
    1c46:	60 e0       	ldi	r22, 0x00	; 0
    1c48:	af ce       	rjmp	.-674    	; 0x19a8 <progStern(unsigned int, int, unsigned char)>

00001c4a <progBlack(unsigned int, unsigned char)>:
    1c4a:	0f 93       	push	r16
    1c4c:	1f 93       	push	r17
    1c4e:	cf 93       	push	r28
    1c50:	8c 01       	movw	r16, r24
    1c52:	c6 2f       	mov	r28, r22
    1c54:	80 91 c7 0a 	lds	r24, 0x0AC7	; 0x800ac7 <nextChangeMillisAlreadyCalculated>
    1c58:	81 11       	cpse	r24, r1
    1c5a:	0e c0       	rjmp	.+28     	; 0x1c78 <progBlack(unsigned int, unsigned char)+0x2e>
    1c5c:	61 e0       	ldi	r22, 0x01	; 1
    1c5e:	8a ed       	ldi	r24, 0xDA	; 218
    1c60:	90 e1       	ldi	r25, 0x10	; 16
    1c62:	0e 94 91 44 	call	0x8922	; 0x8922 <CFastLED::clear(bool)>
    1c66:	10 93 07 01 	sts	0x0107, r17	; 0x800107 <nextChangeMillis+0x1>
    1c6a:	00 93 06 01 	sts	0x0106, r16	; 0x800106 <nextChangeMillis>
    1c6e:	c0 93 c6 0a 	sts	0x0AC6, r28	; 0x800ac6 <nextSongPart>
    1c72:	81 e0       	ldi	r24, 0x01	; 1
    1c74:	80 93 c7 0a 	sts	0x0AC7, r24	; 0x800ac7 <nextChangeMillisAlreadyCalculated>
    1c78:	60 e0       	ldi	r22, 0x00	; 0
    1c7a:	8a ed       	ldi	r24, 0xDA	; 218
    1c7c:	90 e1       	ldi	r25, 0x10	; 16
    1c7e:	0e 94 91 44 	call	0x8922	; 0x8922 <CFastLED::clear(bool)>
    1c82:	8a ed       	ldi	r24, 0xDA	; 218
    1c84:	90 e1       	ldi	r25, 0x10	; 16
    1c86:	cf 91       	pop	r28
    1c88:	1f 91       	pop	r17
    1c8a:	0f 91       	pop	r16
    1c8c:	50 ca       	rjmp	.-2912   	; 0x112e <CFastLED::show()>

00001c8e <progCircles(unsigned int, unsigned char, unsigned int, bool)>:
    1c8e:	8f 92       	push	r8
    1c90:	9f 92       	push	r9
    1c92:	af 92       	push	r10
    1c94:	bf 92       	push	r11
    1c96:	cf 92       	push	r12
    1c98:	df 92       	push	r13
    1c9a:	ef 92       	push	r14
    1c9c:	ff 92       	push	r15
    1c9e:	0f 93       	push	r16
    1ca0:	1f 93       	push	r17
    1ca2:	cf 93       	push	r28
    1ca4:	df 93       	push	r29
    1ca6:	7c 01       	movw	r14, r24
    1ca8:	06 2f       	mov	r16, r22
    1caa:	ea 01       	movw	r28, r20
    1cac:	12 2f       	mov	r17, r18
    1cae:	80 91 c7 0a 	lds	r24, 0x0AC7	; 0x800ac7 <nextChangeMillisAlreadyCalculated>
    1cb2:	81 11       	cpse	r24, r1
    1cb4:	12 c0       	rjmp	.+36     	; 0x1cda <progCircles(unsigned int, unsigned char, unsigned int, bool)+0x4c>
    1cb6:	61 e0       	ldi	r22, 0x01	; 1
    1cb8:	8a ed       	ldi	r24, 0xDA	; 218
    1cba:	90 e1       	ldi	r25, 0x10	; 16
    1cbc:	0e 94 91 44 	call	0x8922	; 0x8922 <CFastLED::clear(bool)>
    1cc0:	f0 92 07 01 	sts	0x0107, r15	; 0x800107 <nextChangeMillis+0x1>
    1cc4:	e0 92 06 01 	sts	0x0106, r14	; 0x800106 <nextChangeMillis>
    1cc8:	00 93 c6 0a 	sts	0x0AC6, r16	; 0x800ac6 <nextSongPart>
    1ccc:	81 e0       	ldi	r24, 0x01	; 1
    1cce:	80 93 c7 0a 	sts	0x0AC7, r24	; 0x800ac7 <nextChangeMillisAlreadyCalculated>
    1cd2:	d0 93 ce 0a 	sts	0x0ACE, r29	; 0x800ace <millisCounterTimer+0x1>
    1cd6:	c0 93 cd 0a 	sts	0x0ACD, r28	; 0x800acd <millisCounterTimer>
    1cda:	80 91 cd 0a 	lds	r24, 0x0ACD	; 0x800acd <millisCounterTimer>
    1cde:	90 91 ce 0a 	lds	r25, 0x0ACE	; 0x800ace <millisCounterTimer+0x1>
    1ce2:	8c 17       	cp	r24, r28
    1ce4:	9d 07       	cpc	r25, r29
    1ce6:	08 f4       	brcc	.+2      	; 0x1cea <progCircles(unsigned int, unsigned char, unsigned int, bool)+0x5c>
    1ce8:	4d c0       	rjmp	.+154    	; 0x1d84 <progCircles(unsigned int, unsigned char, unsigned int, bool)+0xf6>
    1cea:	10 92 ce 0a 	sts	0x0ACE, r1	; 0x800ace <millisCounterTimer+0x1>
    1cee:	10 92 cd 0a 	sts	0x0ACD, r1	; 0x800acd <millisCounterTimer>
    1cf2:	11 23       	and	r17, r17
    1cf4:	09 f4       	brne	.+2      	; 0x1cf8 <progCircles(unsigned int, unsigned char, unsigned int, bool)+0x6a>
    1cf6:	44 c0       	rjmp	.+136    	; 0x1d80 <progCircles(unsigned int, unsigned char, unsigned int, bool)+0xf2>
    1cf8:	60 e0       	ldi	r22, 0x00	; 0
    1cfa:	8a ed       	ldi	r24, 0xDA	; 218
    1cfc:	90 e1       	ldi	r25, 0x10	; 16
    1cfe:	0e 94 91 44 	call	0x8922	; 0x8922 <CFastLED::clear(bool)>
    1d02:	64 db       	rcall	.-2360   	; 0x13cc <getRandomColor()>
    1d04:	90 93 d9 0a 	sts	0x0AD9, r25	; 0x800ad9 <col1+0x1>
    1d08:	80 93 d8 0a 	sts	0x0AD8, r24	; 0x800ad8 <col1>
    1d0c:	c0 91 c9 10 	lds	r28, 0x10C9	; 0x8010c9 <matrix>
    1d10:	d0 91 ca 10 	lds	r29, 0x10CA	; 0x8010ca <matrix+0x1>
    1d14:	00 91 d8 0a 	lds	r16, 0x0AD8	; 0x800ad8 <col1>
    1d18:	10 91 d9 0a 	lds	r17, 0x0AD9	; 0x800ad9 <col1+0x1>
    1d1c:	2a e0       	ldi	r18, 0x0A	; 10
    1d1e:	30 e0       	ldi	r19, 0x00	; 0
    1d20:	40 e0       	ldi	r20, 0x00	; 0
    1d22:	50 e0       	ldi	r21, 0x00	; 0
    1d24:	63 e0       	ldi	r22, 0x03	; 3
    1d26:	70 e0       	ldi	r23, 0x00	; 0
    1d28:	80 e0       	ldi	r24, 0x00	; 0
    1d2a:	90 e0       	ldi	r25, 0x00	; 0
    1d2c:	0e 94 6b 50 	call	0xa0d6	; 0xa0d6 <random(long, long)>
    1d30:	4b 01       	movw	r8, r22
    1d32:	26 e1       	ldi	r18, 0x16	; 22
    1d34:	30 e0       	ldi	r19, 0x00	; 0
    1d36:	40 e0       	ldi	r20, 0x00	; 0
    1d38:	50 e0       	ldi	r21, 0x00	; 0
    1d3a:	60 e0       	ldi	r22, 0x00	; 0
    1d3c:	70 e0       	ldi	r23, 0x00	; 0
    1d3e:	cb 01       	movw	r24, r22
    1d40:	0e 94 6b 50 	call	0xa0d6	; 0xa0d6 <random(long, long)>
    1d44:	6b 01       	movw	r12, r22
    1d46:	25 e1       	ldi	r18, 0x15	; 21
    1d48:	30 e0       	ldi	r19, 0x00	; 0
    1d4a:	40 e0       	ldi	r20, 0x00	; 0
    1d4c:	50 e0       	ldi	r21, 0x00	; 0
    1d4e:	60 e0       	ldi	r22, 0x00	; 0
    1d50:	70 e0       	ldi	r23, 0x00	; 0
    1d52:	cb 01       	movw	r24, r22
    1d54:	0e 94 6b 50 	call	0xa0d6	; 0xa0d6 <random(long, long)>
    1d58:	94 01       	movw	r18, r8
    1d5a:	a6 01       	movw	r20, r12
    1d5c:	ce 01       	movw	r24, r28
    1d5e:	0e 94 34 3b 	call	0x7668	; 0x7668 <Adafruit_GFX::fillCircle(int, int, int, unsigned int)>
    1d62:	8a ed       	ldi	r24, 0xDA	; 218
    1d64:	90 e1       	ldi	r25, 0x10	; 16
    1d66:	df 91       	pop	r29
    1d68:	cf 91       	pop	r28
    1d6a:	1f 91       	pop	r17
    1d6c:	0f 91       	pop	r16
    1d6e:	ff 90       	pop	r15
    1d70:	ef 90       	pop	r14
    1d72:	df 90       	pop	r13
    1d74:	cf 90       	pop	r12
    1d76:	bf 90       	pop	r11
    1d78:	af 90       	pop	r10
    1d7a:	9f 90       	pop	r9
    1d7c:	8f 90       	pop	r8
    1d7e:	d7 c9       	rjmp	.-3154   	; 0x112e <CFastLED::show()>
    1d80:	3f db       	rcall	.-2434   	; 0x1400 <getRandomColorIncludingBlack()>
    1d82:	c0 cf       	rjmp	.-128    	; 0x1d04 <progCircles(unsigned int, unsigned char, unsigned int, bool)+0x76>
    1d84:	df 91       	pop	r29
    1d86:	cf 91       	pop	r28
    1d88:	1f 91       	pop	r17
    1d8a:	0f 91       	pop	r16
    1d8c:	ff 90       	pop	r15
    1d8e:	ef 90       	pop	r14
    1d90:	df 90       	pop	r13
    1d92:	cf 90       	pop	r12
    1d94:	bf 90       	pop	r11
    1d96:	af 90       	pop	r10
    1d98:	9f 90       	pop	r9
    1d9a:	8f 90       	pop	r8
    1d9c:	08 95       	ret

00001d9e <progCircles(unsigned int, unsigned char, unsigned int)>:
    1d9e:	21 e0       	ldi	r18, 0x01	; 1
    1da0:	76 cf       	rjmp	.-276    	; 0x1c8e <progCircles(unsigned int, unsigned char, unsigned int, bool)>

00001da2 <progRandomLines(unsigned int, unsigned char, unsigned int, bool)>:
    1da2:	cf 92       	push	r12
    1da4:	df 92       	push	r13
    1da6:	ef 92       	push	r14
    1da8:	ff 92       	push	r15
    1daa:	0f 93       	push	r16
    1dac:	1f 93       	push	r17
    1dae:	cf 93       	push	r28
    1db0:	df 93       	push	r29
    1db2:	6c 01       	movw	r12, r24
    1db4:	e6 2e       	mov	r14, r22
    1db6:	ea 01       	movw	r28, r20
    1db8:	f2 2e       	mov	r15, r18
    1dba:	80 91 c7 0a 	lds	r24, 0x0AC7	; 0x800ac7 <nextChangeMillisAlreadyCalculated>
    1dbe:	81 11       	cpse	r24, r1
    1dc0:	12 c0       	rjmp	.+36     	; 0x1de6 <progRandomLines(unsigned int, unsigned char, unsigned int, bool)+0x44>
    1dc2:	61 e0       	ldi	r22, 0x01	; 1
    1dc4:	8a ed       	ldi	r24, 0xDA	; 218
    1dc6:	90 e1       	ldi	r25, 0x10	; 16
    1dc8:	0e 94 91 44 	call	0x8922	; 0x8922 <CFastLED::clear(bool)>
    1dcc:	d0 92 07 01 	sts	0x0107, r13	; 0x800107 <nextChangeMillis+0x1>
    1dd0:	c0 92 06 01 	sts	0x0106, r12	; 0x800106 <nextChangeMillis>
    1dd4:	e0 92 c6 0a 	sts	0x0AC6, r14	; 0x800ac6 <nextSongPart>
    1dd8:	81 e0       	ldi	r24, 0x01	; 1
    1dda:	80 93 c7 0a 	sts	0x0AC7, r24	; 0x800ac7 <nextChangeMillisAlreadyCalculated>
    1dde:	d0 93 ce 0a 	sts	0x0ACE, r29	; 0x800ace <millisCounterTimer+0x1>
    1de2:	c0 93 cd 0a 	sts	0x0ACD, r28	; 0x800acd <millisCounterTimer>
    1de6:	80 91 cd 0a 	lds	r24, 0x0ACD	; 0x800acd <millisCounterTimer>
    1dea:	90 91 ce 0a 	lds	r25, 0x0ACE	; 0x800ace <millisCounterTimer+0x1>
    1dee:	8c 17       	cp	r24, r28
    1df0:	9d 07       	cpc	r25, r29
    1df2:	08 f4       	brcc	.+2      	; 0x1df6 <progRandomLines(unsigned int, unsigned char, unsigned int, bool)+0x54>
    1df4:	77 c0       	rjmp	.+238    	; 0x1ee4 <progRandomLines(unsigned int, unsigned char, unsigned int, bool)+0x142>
    1df6:	10 92 ce 0a 	sts	0x0ACE, r1	; 0x800ace <millisCounterTimer+0x1>
    1dfa:	10 92 cd 0a 	sts	0x0ACD, r1	; 0x800acd <millisCounterTimer>
    1dfe:	25 e1       	ldi	r18, 0x15	; 21
    1e00:	30 e0       	ldi	r19, 0x00	; 0
    1e02:	40 e0       	ldi	r20, 0x00	; 0
    1e04:	50 e0       	ldi	r21, 0x00	; 0
    1e06:	60 e0       	ldi	r22, 0x00	; 0
    1e08:	70 e0       	ldi	r23, 0x00	; 0
    1e0a:	cb 01       	movw	r24, r22
    1e0c:	0e 94 6b 50 	call	0xa0d6	; 0xa0d6 <random(long, long)>
    1e10:	c6 2f       	mov	r28, r22
    1e12:	25 e1       	ldi	r18, 0x15	; 21
    1e14:	30 e0       	ldi	r19, 0x00	; 0
    1e16:	40 e0       	ldi	r20, 0x00	; 0
    1e18:	50 e0       	ldi	r21, 0x00	; 0
    1e1a:	60 e0       	ldi	r22, 0x00	; 0
    1e1c:	70 e0       	ldi	r23, 0x00	; 0
    1e1e:	cb 01       	movw	r24, r22
    1e20:	0e 94 6b 50 	call	0xa0d6	; 0xa0d6 <random(long, long)>
    1e24:	c6 2e       	mov	r12, r22
    1e26:	ff 20       	and	r15, r15
    1e28:	09 f4       	brne	.+2      	; 0x1e2c <progRandomLines(unsigned int, unsigned char, unsigned int, bool)+0x8a>
    1e2a:	5a c0       	rjmp	.+180    	; 0x1ee0 <progRandomLines(unsigned int, unsigned char, unsigned int, bool)+0x13e>
    1e2c:	60 e0       	ldi	r22, 0x00	; 0
    1e2e:	8a ed       	ldi	r24, 0xDA	; 218
    1e30:	90 e1       	ldi	r25, 0x10	; 16
    1e32:	0e 94 91 44 	call	0x8922	; 0x8922 <CFastLED::clear(bool)>
    1e36:	ca da       	rcall	.-2668   	; 0x13cc <getRandomColor()>
    1e38:	90 93 d9 0a 	sts	0x0AD9, r25	; 0x800ad9 <col1+0x1>
    1e3c:	80 93 d8 0a 	sts	0x0AD8, r24	; 0x800ad8 <col1>
    1e40:	80 91 c9 10 	lds	r24, 0x10C9	; 0x8010c9 <matrix>
    1e44:	90 91 ca 10 	lds	r25, 0x10CA	; 0x8010ca <matrix+0x1>
    1e48:	d1 2c       	mov	r13, r1
    1e4a:	d0 e0       	ldi	r29, 0x00	; 0
    1e4c:	e0 90 d8 0a 	lds	r14, 0x0AD8	; 0x800ad8 <col1>
    1e50:	f0 90 d9 0a 	lds	r15, 0x0AD9	; 0x800ad9 <col1+0x1>
    1e54:	96 01       	movw	r18, r12
    1e56:	21 50       	subi	r18, 0x01	; 1
    1e58:	31 09       	sbc	r19, r1
    1e5a:	be 01       	movw	r22, r28
    1e5c:	61 50       	subi	r22, 0x01	; 1
    1e5e:	71 09       	sbc	r23, r1
    1e60:	dc 01       	movw	r26, r24
    1e62:	ed 91       	ld	r30, X+
    1e64:	fc 91       	ld	r31, X
    1e66:	04 a0       	ldd	r0, Z+36	; 0x24
    1e68:	f5 a1       	ldd	r31, Z+37	; 0x25
    1e6a:	e0 2d       	mov	r30, r0
    1e6c:	06 e1       	ldi	r16, 0x16	; 22
    1e6e:	10 e0       	ldi	r17, 0x00	; 0
    1e70:	50 e0       	ldi	r21, 0x00	; 0
    1e72:	40 e0       	ldi	r20, 0x00	; 0
    1e74:	09 95       	icall
    1e76:	80 91 c9 10 	lds	r24, 0x10C9	; 0x8010c9 <matrix>
    1e7a:	90 91 ca 10 	lds	r25, 0x10CA	; 0x8010ca <matrix+0x1>
    1e7e:	e0 90 d8 0a 	lds	r14, 0x0AD8	; 0x800ad8 <col1>
    1e82:	f0 90 d9 0a 	lds	r15, 0x0AD9	; 0x800ad9 <col1+0x1>
    1e86:	dc 01       	movw	r26, r24
    1e88:	ed 91       	ld	r30, X+
    1e8a:	fc 91       	ld	r31, X
    1e8c:	04 a0       	ldd	r0, Z+36	; 0x24
    1e8e:	f5 a1       	ldd	r31, Z+37	; 0x25
    1e90:	e0 2d       	mov	r30, r0
    1e92:	96 01       	movw	r18, r12
    1e94:	50 e0       	ldi	r21, 0x00	; 0
    1e96:	40 e0       	ldi	r20, 0x00	; 0
    1e98:	be 01       	movw	r22, r28
    1e9a:	09 95       	icall
    1e9c:	80 91 c9 10 	lds	r24, 0x10C9	; 0x8010c9 <matrix>
    1ea0:	90 91 ca 10 	lds	r25, 0x10CA	; 0x8010ca <matrix+0x1>
    1ea4:	e0 90 d8 0a 	lds	r14, 0x0AD8	; 0x800ad8 <col1>
    1ea8:	f0 90 d9 0a 	lds	r15, 0x0AD9	; 0x800ad9 <col1+0x1>
    1eac:	96 01       	movw	r18, r12
    1eae:	2f 5f       	subi	r18, 0xFF	; 255
    1eb0:	3f 4f       	sbci	r19, 0xFF	; 255
    1eb2:	be 01       	movw	r22, r28
    1eb4:	6f 5f       	subi	r22, 0xFF	; 255
    1eb6:	7f 4f       	sbci	r23, 0xFF	; 255
    1eb8:	dc 01       	movw	r26, r24
    1eba:	ed 91       	ld	r30, X+
    1ebc:	fc 91       	ld	r31, X
    1ebe:	04 a0       	ldd	r0, Z+36	; 0x24
    1ec0:	f5 a1       	ldd	r31, Z+37	; 0x25
    1ec2:	e0 2d       	mov	r30, r0
    1ec4:	50 e0       	ldi	r21, 0x00	; 0
    1ec6:	40 e0       	ldi	r20, 0x00	; 0
    1ec8:	09 95       	icall
    1eca:	8a ed       	ldi	r24, 0xDA	; 218
    1ecc:	90 e1       	ldi	r25, 0x10	; 16
    1ece:	df 91       	pop	r29
    1ed0:	cf 91       	pop	r28
    1ed2:	1f 91       	pop	r17
    1ed4:	0f 91       	pop	r16
    1ed6:	ff 90       	pop	r15
    1ed8:	ef 90       	pop	r14
    1eda:	df 90       	pop	r13
    1edc:	cf 90       	pop	r12
    1ede:	27 c9       	rjmp	.-3506   	; 0x112e <CFastLED::show()>
    1ee0:	8f da       	rcall	.-2786   	; 0x1400 <getRandomColorIncludingBlack()>
    1ee2:	aa cf       	rjmp	.-172    	; 0x1e38 <progRandomLines(unsigned int, unsigned char, unsigned int, bool)+0x96>
    1ee4:	df 91       	pop	r29
    1ee6:	cf 91       	pop	r28
    1ee8:	1f 91       	pop	r17
    1eea:	0f 91       	pop	r16
    1eec:	ff 90       	pop	r15
    1eee:	ef 90       	pop	r14
    1ef0:	df 90       	pop	r13
    1ef2:	cf 90       	pop	r12
    1ef4:	08 95       	ret

00001ef6 <progRandomLines(unsigned int, unsigned char, unsigned int)>:
    1ef6:	21 e0       	ldi	r18, 0x01	; 1
    1ef8:	54 cf       	rjmp	.-344    	; 0x1da2 <progRandomLines(unsigned int, unsigned char, unsigned int, bool)>

00001efa <progMovingLines(unsigned int, unsigned char)>:
    1efa:	cf 92       	push	r12
    1efc:	df 92       	push	r13
    1efe:	ef 92       	push	r14
    1f00:	ff 92       	push	r15
    1f02:	0f 93       	push	r16
    1f04:	1f 93       	push	r17
    1f06:	cf 93       	push	r28
    1f08:	df 93       	push	r29
    1f0a:	8c 01       	movw	r16, r24
    1f0c:	c6 2f       	mov	r28, r22
    1f0e:	80 91 c7 0a 	lds	r24, 0x0AC7	; 0x800ac7 <nextChangeMillisAlreadyCalculated>
    1f12:	81 11       	cpse	r24, r1
    1f14:	0e c0       	rjmp	.+28     	; 0x1f32 <progMovingLines(unsigned int, unsigned char)+0x38>
    1f16:	61 e0       	ldi	r22, 0x01	; 1
    1f18:	8a ed       	ldi	r24, 0xDA	; 218
    1f1a:	90 e1       	ldi	r25, 0x10	; 16
    1f1c:	0e 94 91 44 	call	0x8922	; 0x8922 <CFastLED::clear(bool)>
    1f20:	10 93 07 01 	sts	0x0107, r17	; 0x800107 <nextChangeMillis+0x1>
    1f24:	00 93 06 01 	sts	0x0106, r16	; 0x800106 <nextChangeMillis>
    1f28:	c0 93 c6 0a 	sts	0x0AC6, r28	; 0x800ac6 <nextSongPart>
    1f2c:	81 e0       	ldi	r24, 0x01	; 1
    1f2e:	80 93 c7 0a 	sts	0x0AC7, r24	; 0x800ac7 <nextChangeMillisAlreadyCalculated>
    1f32:	60 e0       	ldi	r22, 0x00	; 0
    1f34:	8a ed       	ldi	r24, 0xDA	; 218
    1f36:	90 e1       	ldi	r25, 0x10	; 16
    1f38:	0e 94 91 44 	call	0x8922	; 0x8922 <CFastLED::clear(bool)>
    1f3c:	80 91 b7 0a 	lds	r24, 0x0AB7	; 0x800ab7 <stage>
    1f40:	90 91 b8 0a 	lds	r25, 0x0AB8	; 0x800ab8 <stage+0x1>
    1f44:	82 30       	cpi	r24, 0x02	; 2
    1f46:	91 05       	cpc	r25, r1
    1f48:	09 f4       	brne	.+2      	; 0x1f4c <progMovingLines(unsigned int, unsigned char)+0x52>
    1f4a:	59 c0       	rjmp	.+178    	; 0x1ffe <progMovingLines(unsigned int, unsigned char)+0x104>
    1f4c:	7c f4       	brge	.+30     	; 0x1f6c <progMovingLines(unsigned int, unsigned char)+0x72>
    1f4e:	00 97       	sbiw	r24, 0x00	; 0
    1f50:	39 f1       	breq	.+78     	; 0x1fa0 <progMovingLines(unsigned int, unsigned char)+0xa6>
    1f52:	01 97       	sbiw	r24, 0x01	; 1
    1f54:	e1 f1       	breq	.+120    	; 0x1fce <progMovingLines(unsigned int, unsigned char)+0xd4>
    1f56:	8a ed       	ldi	r24, 0xDA	; 218
    1f58:	90 e1       	ldi	r25, 0x10	; 16
    1f5a:	df 91       	pop	r29
    1f5c:	cf 91       	pop	r28
    1f5e:	1f 91       	pop	r17
    1f60:	0f 91       	pop	r16
    1f62:	ff 90       	pop	r15
    1f64:	ef 90       	pop	r14
    1f66:	df 90       	pop	r13
    1f68:	cf 90       	pop	r12
    1f6a:	e1 c8       	rjmp	.-3646   	; 0x112e <CFastLED::show()>
    1f6c:	84 30       	cpi	r24, 0x04	; 4
    1f6e:	91 05       	cpc	r25, r1
    1f70:	09 f4       	brne	.+2      	; 0x1f74 <progMovingLines(unsigned int, unsigned char)+0x7a>
    1f72:	9a c0       	rjmp	.+308    	; 0x20a8 <progMovingLines(unsigned int, unsigned char)+0x1ae>
    1f74:	0c f4       	brge	.+2      	; 0x1f78 <progMovingLines(unsigned int, unsigned char)+0x7e>
    1f76:	72 c0       	rjmp	.+228    	; 0x205c <progMovingLines(unsigned int, unsigned char)+0x162>
    1f78:	05 97       	sbiw	r24, 0x05	; 5
    1f7a:	69 f7       	brne	.-38     	; 0x1f56 <progMovingLines(unsigned int, unsigned char)+0x5c>
    1f7c:	80 91 be 0a 	lds	r24, 0x0ABE	; 0x800abe <zaehler>
    1f80:	90 91 bf 0a 	lds	r25, 0x0ABF	; 0x800abf <zaehler+0x1>
    1f84:	01 97       	sbiw	r24, 0x01	; 1
    1f86:	90 93 bf 0a 	sts	0x0ABF, r25	; 0x800abf <zaehler+0x1>
    1f8a:	80 93 be 0a 	sts	0x0ABE, r24	; 0x800abe <zaehler>
    1f8e:	18 16       	cp	r1, r24
    1f90:	19 06       	cpc	r1, r25
    1f92:	0c f4       	brge	.+2      	; 0x1f96 <progMovingLines(unsigned int, unsigned char)+0x9c>
    1f94:	9d c0       	rjmp	.+314    	; 0x20d0 <progMovingLines(unsigned int, unsigned char)+0x1d6>
    1f96:	10 92 b8 0a 	sts	0x0AB8, r1	; 0x800ab8 <stage+0x1>
    1f9a:	10 92 b7 0a 	sts	0x0AB7, r1	; 0x800ab7 <stage>
    1f9e:	12 c0       	rjmp	.+36     	; 0x1fc4 <progMovingLines(unsigned int, unsigned char)+0xca>
    1fa0:	80 91 be 0a 	lds	r24, 0x0ABE	; 0x800abe <zaehler>
    1fa4:	90 91 bf 0a 	lds	r25, 0x0ABF	; 0x800abf <zaehler+0x1>
    1fa8:	01 96       	adiw	r24, 0x01	; 1
    1faa:	90 93 bf 0a 	sts	0x0ABF, r25	; 0x800abf <zaehler+0x1>
    1fae:	80 93 be 0a 	sts	0x0ABE, r24	; 0x800abe <zaehler>
    1fb2:	4a 97       	sbiw	r24, 0x1a	; 26
    1fb4:	0c f4       	brge	.+2      	; 0x1fb8 <progMovingLines(unsigned int, unsigned char)+0xbe>
    1fb6:	61 c0       	rjmp	.+194    	; 0x207a <progMovingLines(unsigned int, unsigned char)+0x180>
    1fb8:	81 e0       	ldi	r24, 0x01	; 1
    1fba:	90 e0       	ldi	r25, 0x00	; 0
    1fbc:	90 93 b8 0a 	sts	0x0AB8, r25	; 0x800ab8 <stage+0x1>
    1fc0:	80 93 b7 0a 	sts	0x0AB7, r24	; 0x800ab7 <stage>
    1fc4:	10 92 bf 0a 	sts	0x0ABF, r1	; 0x800abf <zaehler+0x1>
    1fc8:	10 92 be 0a 	sts	0x0ABE, r1	; 0x800abe <zaehler>
    1fcc:	c4 cf       	rjmp	.-120    	; 0x1f56 <progMovingLines(unsigned int, unsigned char)+0x5c>
    1fce:	80 91 be 0a 	lds	r24, 0x0ABE	; 0x800abe <zaehler>
    1fd2:	90 91 bf 0a 	lds	r25, 0x0ABF	; 0x800abf <zaehler+0x1>
    1fd6:	01 96       	adiw	r24, 0x01	; 1
    1fd8:	90 93 bf 0a 	sts	0x0ABF, r25	; 0x800abf <zaehler+0x1>
    1fdc:	80 93 be 0a 	sts	0x0ABE, r24	; 0x800abe <zaehler>
    1fe0:	0c 97       	sbiw	r24, 0x0c	; 12
    1fe2:	14 f1       	brlt	.+68     	; 0x2028 <progMovingLines(unsigned int, unsigned char)+0x12e>
    1fe4:	82 e0       	ldi	r24, 0x02	; 2
    1fe6:	90 e0       	ldi	r25, 0x00	; 0
    1fe8:	90 93 b8 0a 	sts	0x0AB8, r25	; 0x800ab8 <stage+0x1>
    1fec:	80 93 b7 0a 	sts	0x0AB7, r24	; 0x800ab7 <stage>
    1ff0:	8c e0       	ldi	r24, 0x0C	; 12
    1ff2:	90 e0       	ldi	r25, 0x00	; 0
    1ff4:	90 93 bf 0a 	sts	0x0ABF, r25	; 0x800abf <zaehler+0x1>
    1ff8:	80 93 be 0a 	sts	0x0ABE, r24	; 0x800abe <zaehler>
    1ffc:	ac cf       	rjmp	.-168    	; 0x1f56 <progMovingLines(unsigned int, unsigned char)+0x5c>
    1ffe:	80 91 be 0a 	lds	r24, 0x0ABE	; 0x800abe <zaehler>
    2002:	90 91 bf 0a 	lds	r25, 0x0ABF	; 0x800abf <zaehler+0x1>
    2006:	01 97       	sbiw	r24, 0x01	; 1
    2008:	90 93 bf 0a 	sts	0x0ABF, r25	; 0x800abf <zaehler+0x1>
    200c:	80 93 be 0a 	sts	0x0ABE, r24	; 0x800abe <zaehler>
    2010:	18 16       	cp	r1, r24
    2012:	19 06       	cpc	r1, r25
    2014:	4c f0       	brlt	.+18     	; 0x2028 <progMovingLines(unsigned int, unsigned char)+0x12e>
    2016:	83 e0       	ldi	r24, 0x03	; 3
    2018:	90 e0       	ldi	r25, 0x00	; 0
    201a:	90 93 b8 0a 	sts	0x0AB8, r25	; 0x800ab8 <stage+0x1>
    201e:	80 93 b7 0a 	sts	0x0AB7, r24	; 0x800ab7 <stage>
    2022:	89 e1       	ldi	r24, 0x19	; 25
    2024:	90 e0       	ldi	r25, 0x00	; 0
    2026:	e6 cf       	rjmp	.-52     	; 0x1ff4 <progMovingLines(unsigned int, unsigned char)+0xfa>
    2028:	c0 91 c9 10 	lds	r28, 0x10C9	; 0x8010c9 <matrix>
    202c:	d0 91 ca 10 	lds	r29, 0x10CA	; 0x8010ca <matrix+0x1>
    2030:	e8 81       	ld	r30, Y
    2032:	f9 81       	ldd	r31, Y+1	; 0x01
    2034:	c4 a0       	ldd	r12, Z+36	; 0x24
    2036:	d5 a0       	ldd	r13, Z+37	; 0x25
    2038:	c9 d9       	rcall	.-3182   	; 0x13cc <getRandomColor()>
    203a:	40 91 be 0a 	lds	r20, 0x0ABE	; 0x800abe <zaehler>
    203e:	50 91 bf 0a 	lds	r21, 0x0ABF	; 0x800abf <zaehler+0x1>
    2042:	06 e1       	ldi	r16, 0x16	; 22
    2044:	10 e0       	ldi	r17, 0x00	; 0
    2046:	04 1b       	sub	r16, r20
    2048:	15 0b       	sbc	r17, r21
    204a:	7c 01       	movw	r14, r24
    204c:	30 e0       	ldi	r19, 0x00	; 0
    204e:	20 e0       	ldi	r18, 0x00	; 0
    2050:	69 e1       	ldi	r22, 0x19	; 25
    2052:	70 e0       	ldi	r23, 0x00	; 0
    2054:	ce 01       	movw	r24, r28
    2056:	f6 01       	movw	r30, r12
    2058:	09 95       	icall
    205a:	7d cf       	rjmp	.-262    	; 0x1f56 <progMovingLines(unsigned int, unsigned char)+0x5c>
    205c:	80 91 be 0a 	lds	r24, 0x0ABE	; 0x800abe <zaehler>
    2060:	90 91 bf 0a 	lds	r25, 0x0ABF	; 0x800abf <zaehler+0x1>
    2064:	01 97       	sbiw	r24, 0x01	; 1
    2066:	90 93 bf 0a 	sts	0x0ABF, r25	; 0x800abf <zaehler+0x1>
    206a:	80 93 be 0a 	sts	0x0ABE, r24	; 0x800abe <zaehler>
    206e:	18 16       	cp	r1, r24
    2070:	19 06       	cpc	r1, r25
    2072:	1c f0       	brlt	.+6      	; 0x207a <progMovingLines(unsigned int, unsigned char)+0x180>
    2074:	84 e0       	ldi	r24, 0x04	; 4
    2076:	90 e0       	ldi	r25, 0x00	; 0
    2078:	a1 cf       	rjmp	.-190    	; 0x1fbc <progMovingLines(unsigned int, unsigned char)+0xc2>
    207a:	c0 91 c9 10 	lds	r28, 0x10C9	; 0x8010c9 <matrix>
    207e:	d0 91 ca 10 	lds	r29, 0x10CA	; 0x8010ca <matrix+0x1>
    2082:	e8 81       	ld	r30, Y
    2084:	f9 81       	ldd	r31, Y+1	; 0x01
    2086:	c4 a0       	ldd	r12, Z+36	; 0x24
    2088:	d5 a0       	ldd	r13, Z+37	; 0x25
    208a:	a0 d9       	rcall	.-3264   	; 0x13cc <getRandomColor()>
    208c:	60 91 be 0a 	lds	r22, 0x0ABE	; 0x800abe <zaehler>
    2090:	70 91 bf 0a 	lds	r23, 0x0ABF	; 0x800abf <zaehler+0x1>
    2094:	29 e1       	ldi	r18, 0x19	; 25
    2096:	30 e0       	ldi	r19, 0x00	; 0
    2098:	26 1b       	sub	r18, r22
    209a:	37 0b       	sbc	r19, r23
    209c:	7c 01       	movw	r14, r24
    209e:	06 e1       	ldi	r16, 0x16	; 22
    20a0:	10 e0       	ldi	r17, 0x00	; 0
    20a2:	50 e0       	ldi	r21, 0x00	; 0
    20a4:	40 e0       	ldi	r20, 0x00	; 0
    20a6:	d6 cf       	rjmp	.-84     	; 0x2054 <progMovingLines(unsigned int, unsigned char)+0x15a>
    20a8:	80 91 be 0a 	lds	r24, 0x0ABE	; 0x800abe <zaehler>
    20ac:	90 91 bf 0a 	lds	r25, 0x0ABF	; 0x800abf <zaehler+0x1>
    20b0:	01 96       	adiw	r24, 0x01	; 1
    20b2:	90 93 bf 0a 	sts	0x0ABF, r25	; 0x800abf <zaehler+0x1>
    20b6:	80 93 be 0a 	sts	0x0ABE, r24	; 0x800abe <zaehler>
    20ba:	0b 97       	sbiw	r24, 0x0b	; 11
    20bc:	4c f0       	brlt	.+18     	; 0x20d0 <progMovingLines(unsigned int, unsigned char)+0x1d6>
    20be:	85 e0       	ldi	r24, 0x05	; 5
    20c0:	90 e0       	ldi	r25, 0x00	; 0
    20c2:	90 93 b8 0a 	sts	0x0AB8, r25	; 0x800ab8 <stage+0x1>
    20c6:	80 93 b7 0a 	sts	0x0AB7, r24	; 0x800ab7 <stage>
    20ca:	8a e0       	ldi	r24, 0x0A	; 10
    20cc:	90 e0       	ldi	r25, 0x00	; 0
    20ce:	92 cf       	rjmp	.-220    	; 0x1ff4 <progMovingLines(unsigned int, unsigned char)+0xfa>
    20d0:	c0 91 c9 10 	lds	r28, 0x10C9	; 0x8010c9 <matrix>
    20d4:	d0 91 ca 10 	lds	r29, 0x10CA	; 0x8010ca <matrix+0x1>
    20d8:	e8 81       	ld	r30, Y
    20da:	f9 81       	ldd	r31, Y+1	; 0x01
    20dc:	c4 a0       	ldd	r12, Z+36	; 0x24
    20de:	d5 a0       	ldd	r13, Z+37	; 0x25
    20e0:	75 d9       	rcall	.-3350   	; 0x13cc <getRandomColor()>
    20e2:	40 91 be 0a 	lds	r20, 0x0ABE	; 0x800abe <zaehler>
    20e6:	50 91 bf 0a 	lds	r21, 0x0ABF	; 0x800abf <zaehler+0x1>
    20ea:	06 e1       	ldi	r16, 0x16	; 22
    20ec:	10 e0       	ldi	r17, 0x00	; 0
    20ee:	04 1b       	sub	r16, r20
    20f0:	15 0b       	sbc	r17, r21
    20f2:	7c 01       	movw	r14, r24
    20f4:	29 e1       	ldi	r18, 0x19	; 25
    20f6:	30 e0       	ldi	r19, 0x00	; 0
    20f8:	70 e0       	ldi	r23, 0x00	; 0
    20fa:	60 e0       	ldi	r22, 0x00	; 0
    20fc:	ab cf       	rjmp	.-170    	; 0x2054 <progMovingLines(unsigned int, unsigned char)+0x15a>

000020fe <progOutline(unsigned int, unsigned char)>:
    20fe:	cf 92       	push	r12
    2100:	df 92       	push	r13
    2102:	ef 92       	push	r14
    2104:	ff 92       	push	r15
    2106:	0f 93       	push	r16
    2108:	1f 93       	push	r17
    210a:	cf 93       	push	r28
    210c:	df 93       	push	r29
    210e:	8c 01       	movw	r16, r24
    2110:	c6 2f       	mov	r28, r22
    2112:	80 91 c7 0a 	lds	r24, 0x0AC7	; 0x800ac7 <nextChangeMillisAlreadyCalculated>
    2116:	81 11       	cpse	r24, r1
    2118:	0e c0       	rjmp	.+28     	; 0x2136 <__stack+0x37>
    211a:	61 e0       	ldi	r22, 0x01	; 1
    211c:	8a ed       	ldi	r24, 0xDA	; 218
    211e:	90 e1       	ldi	r25, 0x10	; 16
    2120:	0e 94 91 44 	call	0x8922	; 0x8922 <CFastLED::clear(bool)>
    2124:	10 93 07 01 	sts	0x0107, r17	; 0x800107 <nextChangeMillis+0x1>
    2128:	00 93 06 01 	sts	0x0106, r16	; 0x800106 <nextChangeMillis>
    212c:	c0 93 c6 0a 	sts	0x0AC6, r28	; 0x800ac6 <nextSongPart>
    2130:	81 e0       	ldi	r24, 0x01	; 1
    2132:	80 93 c7 0a 	sts	0x0AC7, r24	; 0x800ac7 <nextChangeMillisAlreadyCalculated>
    2136:	60 e0       	ldi	r22, 0x00	; 0
    2138:	8a ed       	ldi	r24, 0xDA	; 218
    213a:	90 e1       	ldi	r25, 0x10	; 16
    213c:	0e 94 91 44 	call	0x8922	; 0x8922 <CFastLED::clear(bool)>
    2140:	80 91 b9 0a 	lds	r24, 0x0AB9	; 0x800ab9 <scannerGoesBack>
    2144:	e0 91 be 0a 	lds	r30, 0x0ABE	; 0x800abe <zaehler>
    2148:	f0 91 bf 0a 	lds	r31, 0x0ABF	; 0x800abf <zaehler+0x1>
    214c:	81 11       	cpse	r24, r1
    214e:	09 c1       	rjmp	.+530    	; 0x2362 <__stack+0x263>
    2150:	e9 30       	cpi	r30, 0x09	; 9
    2152:	f1 05       	cpc	r31, r1
    2154:	28 f5       	brcc	.+74     	; 0x21a0 <__stack+0xa1>
    2156:	e1 55       	subi	r30, 0x51	; 81
    2158:	ff 4e       	sbci	r31, 0xEF	; 239
    215a:	0c 94 68 53 	jmp	0xa6d0	; 0xa6d0 <__tablejump2__>
    215e:	b8 10       	cpse	r11, r8
    2160:	eb 10       	cpse	r14, r11
    2162:	04 11       	cpse	r16, r4
    2164:	1d 11       	cpse	r17, r13
    2166:	36 11       	cpse	r19, r6
    2168:	4f 11       	cpse	r20, r15
    216a:	67 11       	cpse	r22, r7
    216c:	80 11       	cpse	r24, r0
    216e:	99 11       	cpse	r25, r9
    2170:	c7 e6       	ldi	r28, 0x67	; 103
    2172:	d8 e0       	ldi	r29, 0x08	; 8
    2174:	03 e0       	ldi	r16, 0x03	; 3
    2176:	19 e0       	ldi	r17, 0x09	; 9
    2178:	e9 90       	ld	r14, Y+
    217a:	f9 90       	ld	r15, Y+
    217c:	0e d9       	rcall	.-3556   	; 0x139a <getRandomColorValue()>
    217e:	d8 2e       	mov	r13, r24
    2180:	0c d9       	rcall	.-3560   	; 0x139a <getRandomColorValue()>
    2182:	c8 2e       	mov	r12, r24
    2184:	0a d9       	rcall	.-3564   	; 0x139a <getRandomColorValue()>
    2186:	f7 01       	movw	r30, r14
    2188:	ee 0f       	add	r30, r30
    218a:	ff 1f       	adc	r31, r31
    218c:	ee 0d       	add	r30, r14
    218e:	ff 1d       	adc	r31, r15
    2190:	e5 52       	subi	r30, 0x25	; 37
    2192:	f5 4f       	sbci	r31, 0xF5	; 245
    2194:	80 83       	st	Z, r24
    2196:	c1 82       	std	Z+1, r12	; 0x01
    2198:	d2 82       	std	Z+2, r13	; 0x02
    219a:	0c 17       	cp	r16, r28
    219c:	1d 07       	cpc	r17, r29
    219e:	61 f7       	brne	.-40     	; 0x2178 <__stack+0x79>
    21a0:	8a ed       	ldi	r24, 0xDA	; 218
    21a2:	90 e1       	ldi	r25, 0x10	; 16
    21a4:	0e 94 97 08 	call	0x112e	; 0x112e <CFastLED::show()>
    21a8:	80 91 be 0a 	lds	r24, 0x0ABE	; 0x800abe <zaehler>
    21ac:	90 91 bf 0a 	lds	r25, 0x0ABF	; 0x800abf <zaehler+0x1>
    21b0:	01 96       	adiw	r24, 0x01	; 1
    21b2:	90 93 bf 0a 	sts	0x0ABF, r25	; 0x800abf <zaehler+0x1>
    21b6:	80 93 be 0a 	sts	0x0ABE, r24	; 0x800abe <zaehler>
    21ba:	09 97       	sbiw	r24, 0x09	; 9
    21bc:	1c f0       	brlt	.+6      	; 0x21c4 <__stack+0xc5>
    21be:	81 e0       	ldi	r24, 0x01	; 1
    21c0:	80 93 b9 0a 	sts	0x0AB9, r24	; 0x800ab9 <scannerGoesBack>
    21c4:	df 91       	pop	r29
    21c6:	cf 91       	pop	r28
    21c8:	1f 91       	pop	r17
    21ca:	0f 91       	pop	r16
    21cc:	ff 90       	pop	r15
    21ce:	ef 90       	pop	r14
    21d0:	df 90       	pop	r13
    21d2:	cf 90       	pop	r12
    21d4:	08 95       	ret
    21d6:	cb ed       	ldi	r28, 0xDB	; 219
    21d8:	d7 e0       	ldi	r29, 0x07	; 7
    21da:	07 e6       	ldi	r16, 0x67	; 103
    21dc:	18 e0       	ldi	r17, 0x08	; 8
    21de:	e9 90       	ld	r14, Y+
    21e0:	f9 90       	ld	r15, Y+
    21e2:	db d8       	rcall	.-3658   	; 0x139a <getRandomColorValue()>
    21e4:	d8 2e       	mov	r13, r24
    21e6:	d9 d8       	rcall	.-3662   	; 0x139a <getRandomColorValue()>
    21e8:	c8 2e       	mov	r12, r24
    21ea:	d7 d8       	rcall	.-3666   	; 0x139a <getRandomColorValue()>
    21ec:	f7 01       	movw	r30, r14
    21ee:	ee 0f       	add	r30, r30
    21f0:	ff 1f       	adc	r31, r31
    21f2:	ee 0d       	add	r30, r14
    21f4:	ff 1d       	adc	r31, r15
    21f6:	e5 52       	subi	r30, 0x25	; 37
    21f8:	f5 4f       	sbci	r31, 0xF5	; 245
    21fa:	80 83       	st	Z, r24
    21fc:	c1 82       	std	Z+1, r12	; 0x01
    21fe:	d2 82       	std	Z+2, r13	; 0x02
    2200:	0c 17       	cp	r16, r28
    2202:	1d 07       	cpc	r17, r29
    2204:	61 f7       	brne	.-40     	; 0x21de <__stack+0xdf>
    2206:	cc cf       	rjmp	.-104    	; 0x21a0 <__stack+0xa1>
    2208:	cf e6       	ldi	r28, 0x6F	; 111
    220a:	d7 e0       	ldi	r29, 0x07	; 7
    220c:	0b ed       	ldi	r16, 0xDB	; 219
    220e:	17 e0       	ldi	r17, 0x07	; 7
    2210:	e9 90       	ld	r14, Y+
    2212:	f9 90       	ld	r15, Y+
    2214:	c2 d8       	rcall	.-3708   	; 0x139a <getRandomColorValue()>
    2216:	d8 2e       	mov	r13, r24
    2218:	c0 d8       	rcall	.-3712   	; 0x139a <getRandomColorValue()>
    221a:	c8 2e       	mov	r12, r24
    221c:	be d8       	rcall	.-3716   	; 0x139a <getRandomColorValue()>
    221e:	f7 01       	movw	r30, r14
    2220:	ee 0f       	add	r30, r30
    2222:	ff 1f       	adc	r31, r31
    2224:	ee 0d       	add	r30, r14
    2226:	ff 1d       	adc	r31, r15
    2228:	e5 52       	subi	r30, 0x25	; 37
    222a:	f5 4f       	sbci	r31, 0xF5	; 245
    222c:	80 83       	st	Z, r24
    222e:	c1 82       	std	Z+1, r12	; 0x01
    2230:	d2 82       	std	Z+2, r13	; 0x02
    2232:	0c 17       	cp	r16, r28
    2234:	1d 07       	cpc	r17, r29
    2236:	61 f7       	brne	.-40     	; 0x2210 <__stack+0x111>
    2238:	b3 cf       	rjmp	.-154    	; 0x21a0 <__stack+0xa1>
    223a:	c5 e2       	ldi	r28, 0x25	; 37
    223c:	d7 e0       	ldi	r29, 0x07	; 7
    223e:	0f e6       	ldi	r16, 0x6F	; 111
    2240:	17 e0       	ldi	r17, 0x07	; 7
    2242:	e9 90       	ld	r14, Y+
    2244:	f9 90       	ld	r15, Y+
    2246:	a9 d8       	rcall	.-3758   	; 0x139a <getRandomColorValue()>
    2248:	d8 2e       	mov	r13, r24
    224a:	a7 d8       	rcall	.-3762   	; 0x139a <getRandomColorValue()>
    224c:	c8 2e       	mov	r12, r24
    224e:	a5 d8       	rcall	.-3766   	; 0x139a <getRandomColorValue()>
    2250:	f7 01       	movw	r30, r14
    2252:	ee 0f       	add	r30, r30
    2254:	ff 1f       	adc	r31, r31
    2256:	ee 0d       	add	r30, r14
    2258:	ff 1d       	adc	r31, r15
    225a:	e5 52       	subi	r30, 0x25	; 37
    225c:	f5 4f       	sbci	r31, 0xF5	; 245
    225e:	80 83       	st	Z, r24
    2260:	c1 82       	std	Z+1, r12	; 0x01
    2262:	d2 82       	std	Z+2, r13	; 0x02
    2264:	0c 17       	cp	r16, r28
    2266:	1d 07       	cpc	r17, r29
    2268:	61 f7       	brne	.-40     	; 0x2242 <__stack+0x143>
    226a:	9a cf       	rjmp	.-204    	; 0x21a0 <__stack+0xa1>
    226c:	c5 ee       	ldi	r28, 0xE5	; 229
    226e:	d6 e0       	ldi	r29, 0x06	; 6
    2270:	05 e2       	ldi	r16, 0x25	; 37
    2272:	17 e0       	ldi	r17, 0x07	; 7
    2274:	e9 90       	ld	r14, Y+
    2276:	f9 90       	ld	r15, Y+
    2278:	90 d8       	rcall	.-3808   	; 0x139a <getRandomColorValue()>
    227a:	d8 2e       	mov	r13, r24
    227c:	8e d8       	rcall	.-3812   	; 0x139a <getRandomColorValue()>
    227e:	c8 2e       	mov	r12, r24
    2280:	8c d8       	rcall	.-3816   	; 0x139a <getRandomColorValue()>
    2282:	f7 01       	movw	r30, r14
    2284:	ee 0f       	add	r30, r30
    2286:	ff 1f       	adc	r31, r31
    2288:	ee 0d       	add	r30, r14
    228a:	ff 1d       	adc	r31, r15
    228c:	e5 52       	subi	r30, 0x25	; 37
    228e:	f5 4f       	sbci	r31, 0xF5	; 245
    2290:	80 83       	st	Z, r24
    2292:	c1 82       	std	Z+1, r12	; 0x01
    2294:	d2 82       	std	Z+2, r13	; 0x02
    2296:	0c 17       	cp	r16, r28
    2298:	1d 07       	cpc	r17, r29
    229a:	61 f7       	brne	.-40     	; 0x2274 <__stack+0x175>
    229c:	81 cf       	rjmp	.-254    	; 0x21a0 <__stack+0xa1>
    229e:	c9 ea       	ldi	r28, 0xA9	; 169
    22a0:	d6 e0       	ldi	r29, 0x06	; 6
    22a2:	09 91       	ld	r16, Y+
    22a4:	19 91       	ld	r17, Y+
    22a6:	79 d8       	rcall	.-3854   	; 0x139a <getRandomColorValue()>
    22a8:	f8 2e       	mov	r15, r24
    22aa:	77 d8       	rcall	.-3858   	; 0x139a <getRandomColorValue()>
    22ac:	e8 2e       	mov	r14, r24
    22ae:	75 d8       	rcall	.-3862   	; 0x139a <getRandomColorValue()>
    22b0:	f8 01       	movw	r30, r16
    22b2:	ee 0f       	add	r30, r30
    22b4:	ff 1f       	adc	r31, r31
    22b6:	e0 0f       	add	r30, r16
    22b8:	f1 1f       	adc	r31, r17
    22ba:	e5 52       	subi	r30, 0x25	; 37
    22bc:	f5 4f       	sbci	r31, 0xF5	; 245
    22be:	80 83       	st	Z, r24
    22c0:	e1 82       	std	Z+1, r14	; 0x01
    22c2:	f2 82       	std	Z+2, r15	; 0x02
    22c4:	86 e0       	ldi	r24, 0x06	; 6
    22c6:	c5 3e       	cpi	r28, 0xE5	; 229
    22c8:	d8 07       	cpc	r29, r24
    22ca:	59 f7       	brne	.-42     	; 0x22a2 <__stack+0x1a3>
    22cc:	69 cf       	rjmp	.-302    	; 0x21a0 <__stack+0xa1>
    22ce:	c3 e7       	ldi	r28, 0x73	; 115
    22d0:	d6 e0       	ldi	r29, 0x06	; 6
    22d2:	09 ea       	ldi	r16, 0xA9	; 169
    22d4:	16 e0       	ldi	r17, 0x06	; 6
    22d6:	e9 90       	ld	r14, Y+
    22d8:	f9 90       	ld	r15, Y+
    22da:	5f d8       	rcall	.-3906   	; 0x139a <getRandomColorValue()>
    22dc:	d8 2e       	mov	r13, r24
    22de:	5d d8       	rcall	.-3910   	; 0x139a <getRandomColorValue()>
    22e0:	c8 2e       	mov	r12, r24
    22e2:	5b d8       	rcall	.-3914   	; 0x139a <getRandomColorValue()>
    22e4:	f7 01       	movw	r30, r14
    22e6:	ee 0f       	add	r30, r30
    22e8:	ff 1f       	adc	r31, r31
    22ea:	ee 0d       	add	r30, r14
    22ec:	ff 1d       	adc	r31, r15
    22ee:	e5 52       	subi	r30, 0x25	; 37
    22f0:	f5 4f       	sbci	r31, 0xF5	; 245
    22f2:	80 83       	st	Z, r24
    22f4:	c1 82       	std	Z+1, r12	; 0x01
    22f6:	d2 82       	std	Z+2, r13	; 0x02
    22f8:	0c 17       	cp	r16, r28
    22fa:	1d 07       	cpc	r17, r29
    22fc:	61 f7       	brne	.-40     	; 0x22d6 <__stack+0x1d7>
    22fe:	50 cf       	rjmp	.-352    	; 0x21a0 <__stack+0xa1>
    2300:	cf e3       	ldi	r28, 0x3F	; 63
    2302:	d6 e0       	ldi	r29, 0x06	; 6
    2304:	03 e7       	ldi	r16, 0x73	; 115
    2306:	16 e0       	ldi	r17, 0x06	; 6
    2308:	e9 90       	ld	r14, Y+
    230a:	f9 90       	ld	r15, Y+
    230c:	46 d8       	rcall	.-3956   	; 0x139a <getRandomColorValue()>
    230e:	d8 2e       	mov	r13, r24
    2310:	44 d8       	rcall	.-3960   	; 0x139a <getRandomColorValue()>
    2312:	c8 2e       	mov	r12, r24
    2314:	42 d8       	rcall	.-3964   	; 0x139a <getRandomColorValue()>
    2316:	f7 01       	movw	r30, r14
    2318:	ee 0f       	add	r30, r30
    231a:	ff 1f       	adc	r31, r31
    231c:	ee 0d       	add	r30, r14
    231e:	ff 1d       	adc	r31, r15
    2320:	e5 52       	subi	r30, 0x25	; 37
    2322:	f5 4f       	sbci	r31, 0xF5	; 245
    2324:	80 83       	st	Z, r24
    2326:	c1 82       	std	Z+1, r12	; 0x01
    2328:	d2 82       	std	Z+2, r13	; 0x02
    232a:	0c 17       	cp	r16, r28
    232c:	1d 07       	cpc	r17, r29
    232e:	61 f7       	brne	.-40     	; 0x2308 <__stack+0x209>
    2330:	37 cf       	rjmp	.-402    	; 0x21a0 <__stack+0xa1>
    2332:	cf e0       	ldi	r28, 0x0F	; 15
    2334:	d6 e0       	ldi	r29, 0x06	; 6
    2336:	09 91       	ld	r16, Y+
    2338:	19 91       	ld	r17, Y+
    233a:	2f d8       	rcall	.-4002   	; 0x139a <getRandomColorValue()>
    233c:	f8 2e       	mov	r15, r24
    233e:	2d d8       	rcall	.-4006   	; 0x139a <getRandomColorValue()>
    2340:	e8 2e       	mov	r14, r24
    2342:	2b d8       	rcall	.-4010   	; 0x139a <getRandomColorValue()>
    2344:	f8 01       	movw	r30, r16
    2346:	ee 0f       	add	r30, r30
    2348:	ff 1f       	adc	r31, r31
    234a:	e0 0f       	add	r30, r16
    234c:	f1 1f       	adc	r31, r17
    234e:	e5 52       	subi	r30, 0x25	; 37
    2350:	f5 4f       	sbci	r31, 0xF5	; 245
    2352:	80 83       	st	Z, r24
    2354:	e1 82       	std	Z+1, r14	; 0x01
    2356:	f2 82       	std	Z+2, r15	; 0x02
    2358:	86 e0       	ldi	r24, 0x06	; 6
    235a:	cf 33       	cpi	r28, 0x3F	; 63
    235c:	d8 07       	cpc	r29, r24
    235e:	59 f7       	brne	.-42     	; 0x2336 <__stack+0x237>
    2360:	1f cf       	rjmp	.-450    	; 0x21a0 <__stack+0xa1>
    2362:	e9 30       	cpi	r30, 0x09	; 9
    2364:	f1 05       	cpc	r31, r1
    2366:	20 f5       	brcc	.+72     	; 0x23b0 <__stack+0x2b1>
    2368:	e8 54       	subi	r30, 0x48	; 72
    236a:	fe 4e       	sbci	r31, 0xEE	; 238
    236c:	0c 94 68 53 	jmp	0xa6d0	; 0xa6d0 <__tablejump2__>
    2370:	c1 11       	cpse	r28, r1
    2372:	ec 11       	cpse	r30, r12
    2374:	07 12       	cpse	r0, r23
    2376:	22 12       	cpse	r2, r18
    2378:	3d 12       	cpse	r3, r29
    237a:	58 12       	cpse	r5, r24
    237c:	73 12       	cpse	r7, r19
    237e:	8e 12       	cpse	r8, r30
    2380:	a9 12       	cpse	r10, r25
    2382:	c7 e6       	ldi	r28, 0x67	; 103
    2384:	d8 e0       	ldi	r29, 0x08	; 8
    2386:	09 91       	ld	r16, Y+
    2388:	19 91       	ld	r17, Y+
    238a:	07 d8       	rcall	.-4082   	; 0x139a <getRandomColorValue()>
    238c:	f8 2e       	mov	r15, r24
    238e:	05 d8       	rcall	.-4086   	; 0x139a <getRandomColorValue()>
    2390:	e8 2e       	mov	r14, r24
    2392:	03 d8       	rcall	.-4090   	; 0x139a <getRandomColorValue()>
    2394:	f8 01       	movw	r30, r16
    2396:	ee 0f       	add	r30, r30
    2398:	ff 1f       	adc	r31, r31
    239a:	e0 0f       	add	r30, r16
    239c:	f1 1f       	adc	r31, r17
    239e:	e5 52       	subi	r30, 0x25	; 37
    23a0:	f5 4f       	sbci	r31, 0xF5	; 245
    23a2:	80 83       	st	Z, r24
    23a4:	e1 82       	std	Z+1, r14	; 0x01
    23a6:	f2 82       	std	Z+2, r15	; 0x02
    23a8:	89 e0       	ldi	r24, 0x09	; 9
    23aa:	c3 30       	cpi	r28, 0x03	; 3
    23ac:	d8 07       	cpc	r29, r24
    23ae:	59 f7       	brne	.-42     	; 0x2386 <__stack+0x287>
    23b0:	8a ed       	ldi	r24, 0xDA	; 218
    23b2:	90 e1       	ldi	r25, 0x10	; 16
    23b4:	0e 94 97 08 	call	0x112e	; 0x112e <CFastLED::show()>
    23b8:	80 91 be 0a 	lds	r24, 0x0ABE	; 0x800abe <zaehler>
    23bc:	90 91 bf 0a 	lds	r25, 0x0ABF	; 0x800abf <zaehler+0x1>
    23c0:	01 97       	sbiw	r24, 0x01	; 1
    23c2:	90 93 bf 0a 	sts	0x0ABF, r25	; 0x800abf <zaehler+0x1>
    23c6:	80 93 be 0a 	sts	0x0ABE, r24	; 0x800abe <zaehler>
    23ca:	18 16       	cp	r1, r24
    23cc:	19 06       	cpc	r1, r25
    23ce:	0c f4       	brge	.+2      	; 0x23d2 <__stack+0x2d3>
    23d0:	f9 ce       	rjmp	.-526    	; 0x21c4 <__stack+0xc5>
    23d2:	10 92 b9 0a 	sts	0x0AB9, r1	; 0x800ab9 <scannerGoesBack>
    23d6:	f6 ce       	rjmp	.-532    	; 0x21c4 <__stack+0xc5>
    23d8:	cb ed       	ldi	r28, 0xDB	; 219
    23da:	d7 e0       	ldi	r29, 0x07	; 7
    23dc:	09 91       	ld	r16, Y+
    23de:	19 91       	ld	r17, Y+
    23e0:	0e 94 cd 09 	call	0x139a	; 0x139a <getRandomColorValue()>
    23e4:	f8 2e       	mov	r15, r24
    23e6:	0e 94 cd 09 	call	0x139a	; 0x139a <getRandomColorValue()>
    23ea:	e8 2e       	mov	r14, r24
    23ec:	0e 94 cd 09 	call	0x139a	; 0x139a <getRandomColorValue()>
    23f0:	f8 01       	movw	r30, r16
    23f2:	ee 0f       	add	r30, r30
    23f4:	ff 1f       	adc	r31, r31
    23f6:	e0 0f       	add	r30, r16
    23f8:	f1 1f       	adc	r31, r17
    23fa:	e5 52       	subi	r30, 0x25	; 37
    23fc:	f5 4f       	sbci	r31, 0xF5	; 245
    23fe:	80 83       	st	Z, r24
    2400:	e1 82       	std	Z+1, r14	; 0x01
    2402:	f2 82       	std	Z+2, r15	; 0x02
    2404:	88 e0       	ldi	r24, 0x08	; 8
    2406:	c7 36       	cpi	r28, 0x67	; 103
    2408:	d8 07       	cpc	r29, r24
    240a:	41 f7       	brne	.-48     	; 0x23dc <__stack+0x2dd>
    240c:	d1 cf       	rjmp	.-94     	; 0x23b0 <__stack+0x2b1>
    240e:	cf e6       	ldi	r28, 0x6F	; 111
    2410:	d7 e0       	ldi	r29, 0x07	; 7
    2412:	09 91       	ld	r16, Y+
    2414:	19 91       	ld	r17, Y+
    2416:	0e 94 cd 09 	call	0x139a	; 0x139a <getRandomColorValue()>
    241a:	f8 2e       	mov	r15, r24
    241c:	0e 94 cd 09 	call	0x139a	; 0x139a <getRandomColorValue()>
    2420:	e8 2e       	mov	r14, r24
    2422:	0e 94 cd 09 	call	0x139a	; 0x139a <getRandomColorValue()>
    2426:	f8 01       	movw	r30, r16
    2428:	ee 0f       	add	r30, r30
    242a:	ff 1f       	adc	r31, r31
    242c:	e0 0f       	add	r30, r16
    242e:	f1 1f       	adc	r31, r17
    2430:	e5 52       	subi	r30, 0x25	; 37
    2432:	f5 4f       	sbci	r31, 0xF5	; 245
    2434:	80 83       	st	Z, r24
    2436:	e1 82       	std	Z+1, r14	; 0x01
    2438:	f2 82       	std	Z+2, r15	; 0x02
    243a:	87 e0       	ldi	r24, 0x07	; 7
    243c:	cb 3d       	cpi	r28, 0xDB	; 219
    243e:	d8 07       	cpc	r29, r24
    2440:	41 f7       	brne	.-48     	; 0x2412 <__stack+0x313>
    2442:	b6 cf       	rjmp	.-148    	; 0x23b0 <__stack+0x2b1>
    2444:	c5 e2       	ldi	r28, 0x25	; 37
    2446:	d7 e0       	ldi	r29, 0x07	; 7
    2448:	09 91       	ld	r16, Y+
    244a:	19 91       	ld	r17, Y+
    244c:	0e 94 cd 09 	call	0x139a	; 0x139a <getRandomColorValue()>
    2450:	f8 2e       	mov	r15, r24
    2452:	0e 94 cd 09 	call	0x139a	; 0x139a <getRandomColorValue()>
    2456:	e8 2e       	mov	r14, r24
    2458:	0e 94 cd 09 	call	0x139a	; 0x139a <getRandomColorValue()>
    245c:	f8 01       	movw	r30, r16
    245e:	ee 0f       	add	r30, r30
    2460:	ff 1f       	adc	r31, r31
    2462:	e0 0f       	add	r30, r16
    2464:	f1 1f       	adc	r31, r17
    2466:	e5 52       	subi	r30, 0x25	; 37
    2468:	f5 4f       	sbci	r31, 0xF5	; 245
    246a:	80 83       	st	Z, r24
    246c:	e1 82       	std	Z+1, r14	; 0x01
    246e:	f2 82       	std	Z+2, r15	; 0x02
    2470:	87 e0       	ldi	r24, 0x07	; 7
    2472:	cf 36       	cpi	r28, 0x6F	; 111
    2474:	d8 07       	cpc	r29, r24
    2476:	41 f7       	brne	.-48     	; 0x2448 <__stack+0x349>
    2478:	9b cf       	rjmp	.-202    	; 0x23b0 <__stack+0x2b1>
    247a:	c5 ee       	ldi	r28, 0xE5	; 229
    247c:	d6 e0       	ldi	r29, 0x06	; 6
    247e:	09 91       	ld	r16, Y+
    2480:	19 91       	ld	r17, Y+
    2482:	0e 94 cd 09 	call	0x139a	; 0x139a <getRandomColorValue()>
    2486:	f8 2e       	mov	r15, r24
    2488:	0e 94 cd 09 	call	0x139a	; 0x139a <getRandomColorValue()>
    248c:	e8 2e       	mov	r14, r24
    248e:	0e 94 cd 09 	call	0x139a	; 0x139a <getRandomColorValue()>
    2492:	f8 01       	movw	r30, r16
    2494:	ee 0f       	add	r30, r30
    2496:	ff 1f       	adc	r31, r31
    2498:	e0 0f       	add	r30, r16
    249a:	f1 1f       	adc	r31, r17
    249c:	e5 52       	subi	r30, 0x25	; 37
    249e:	f5 4f       	sbci	r31, 0xF5	; 245
    24a0:	80 83       	st	Z, r24
    24a2:	e1 82       	std	Z+1, r14	; 0x01
    24a4:	f2 82       	std	Z+2, r15	; 0x02
    24a6:	87 e0       	ldi	r24, 0x07	; 7
    24a8:	c5 32       	cpi	r28, 0x25	; 37
    24aa:	d8 07       	cpc	r29, r24
    24ac:	41 f7       	brne	.-48     	; 0x247e <__stack+0x37f>
    24ae:	80 cf       	rjmp	.-256    	; 0x23b0 <__stack+0x2b1>
    24b0:	c9 ea       	ldi	r28, 0xA9	; 169
    24b2:	d6 e0       	ldi	r29, 0x06	; 6
    24b4:	09 91       	ld	r16, Y+
    24b6:	19 91       	ld	r17, Y+
    24b8:	0e 94 cd 09 	call	0x139a	; 0x139a <getRandomColorValue()>
    24bc:	f8 2e       	mov	r15, r24
    24be:	0e 94 cd 09 	call	0x139a	; 0x139a <getRandomColorValue()>
    24c2:	e8 2e       	mov	r14, r24
    24c4:	0e 94 cd 09 	call	0x139a	; 0x139a <getRandomColorValue()>
    24c8:	f8 01       	movw	r30, r16
    24ca:	ee 0f       	add	r30, r30
    24cc:	ff 1f       	adc	r31, r31
    24ce:	e0 0f       	add	r30, r16
    24d0:	f1 1f       	adc	r31, r17
    24d2:	e5 52       	subi	r30, 0x25	; 37
    24d4:	f5 4f       	sbci	r31, 0xF5	; 245
    24d6:	80 83       	st	Z, r24
    24d8:	e1 82       	std	Z+1, r14	; 0x01
    24da:	f2 82       	std	Z+2, r15	; 0x02
    24dc:	86 e0       	ldi	r24, 0x06	; 6
    24de:	c5 3e       	cpi	r28, 0xE5	; 229
    24e0:	d8 07       	cpc	r29, r24
    24e2:	41 f7       	brne	.-48     	; 0x24b4 <__stack+0x3b5>
    24e4:	65 cf       	rjmp	.-310    	; 0x23b0 <__stack+0x2b1>
    24e6:	c3 e7       	ldi	r28, 0x73	; 115
    24e8:	d6 e0       	ldi	r29, 0x06	; 6
    24ea:	09 91       	ld	r16, Y+
    24ec:	19 91       	ld	r17, Y+
    24ee:	0e 94 cd 09 	call	0x139a	; 0x139a <getRandomColorValue()>
    24f2:	f8 2e       	mov	r15, r24
    24f4:	0e 94 cd 09 	call	0x139a	; 0x139a <getRandomColorValue()>
    24f8:	e8 2e       	mov	r14, r24
    24fa:	0e 94 cd 09 	call	0x139a	; 0x139a <getRandomColorValue()>
    24fe:	f8 01       	movw	r30, r16
    2500:	ee 0f       	add	r30, r30
    2502:	ff 1f       	adc	r31, r31
    2504:	e0 0f       	add	r30, r16
    2506:	f1 1f       	adc	r31, r17
    2508:	e5 52       	subi	r30, 0x25	; 37
    250a:	f5 4f       	sbci	r31, 0xF5	; 245
    250c:	80 83       	st	Z, r24
    250e:	e1 82       	std	Z+1, r14	; 0x01
    2510:	f2 82       	std	Z+2, r15	; 0x02
    2512:	86 e0       	ldi	r24, 0x06	; 6
    2514:	c9 3a       	cpi	r28, 0xA9	; 169
    2516:	d8 07       	cpc	r29, r24
    2518:	41 f7       	brne	.-48     	; 0x24ea <__stack+0x3eb>
    251a:	4a cf       	rjmp	.-364    	; 0x23b0 <__stack+0x2b1>
    251c:	cf e3       	ldi	r28, 0x3F	; 63
    251e:	d6 e0       	ldi	r29, 0x06	; 6
    2520:	09 91       	ld	r16, Y+
    2522:	19 91       	ld	r17, Y+
    2524:	0e 94 cd 09 	call	0x139a	; 0x139a <getRandomColorValue()>
    2528:	f8 2e       	mov	r15, r24
    252a:	0e 94 cd 09 	call	0x139a	; 0x139a <getRandomColorValue()>
    252e:	e8 2e       	mov	r14, r24
    2530:	0e 94 cd 09 	call	0x139a	; 0x139a <getRandomColorValue()>
    2534:	f8 01       	movw	r30, r16
    2536:	ee 0f       	add	r30, r30
    2538:	ff 1f       	adc	r31, r31
    253a:	e0 0f       	add	r30, r16
    253c:	f1 1f       	adc	r31, r17
    253e:	e5 52       	subi	r30, 0x25	; 37
    2540:	f5 4f       	sbci	r31, 0xF5	; 245
    2542:	80 83       	st	Z, r24
    2544:	e1 82       	std	Z+1, r14	; 0x01
    2546:	f2 82       	std	Z+2, r15	; 0x02
    2548:	86 e0       	ldi	r24, 0x06	; 6
    254a:	c3 37       	cpi	r28, 0x73	; 115
    254c:	d8 07       	cpc	r29, r24
    254e:	41 f7       	brne	.-48     	; 0x2520 <__stack+0x421>
    2550:	2f cf       	rjmp	.-418    	; 0x23b0 <__stack+0x2b1>
    2552:	cf e0       	ldi	r28, 0x0F	; 15
    2554:	d6 e0       	ldi	r29, 0x06	; 6
    2556:	09 91       	ld	r16, Y+
    2558:	19 91       	ld	r17, Y+
    255a:	0e 94 cd 09 	call	0x139a	; 0x139a <getRandomColorValue()>
    255e:	f8 2e       	mov	r15, r24
    2560:	0e 94 cd 09 	call	0x139a	; 0x139a <getRandomColorValue()>
    2564:	e8 2e       	mov	r14, r24
    2566:	0e 94 cd 09 	call	0x139a	; 0x139a <getRandomColorValue()>
    256a:	f8 01       	movw	r30, r16
    256c:	ee 0f       	add	r30, r30
    256e:	ff 1f       	adc	r31, r31
    2570:	e0 0f       	add	r30, r16
    2572:	f1 1f       	adc	r31, r17
    2574:	e5 52       	subi	r30, 0x25	; 37
    2576:	f5 4f       	sbci	r31, 0xF5	; 245
    2578:	80 83       	st	Z, r24
    257a:	e1 82       	std	Z+1, r14	; 0x01
    257c:	f2 82       	std	Z+2, r15	; 0x02
    257e:	86 e0       	ldi	r24, 0x06	; 6
    2580:	cf 33       	cpi	r28, 0x3F	; 63
    2582:	d8 07       	cpc	r29, r24
    2584:	41 f7       	brne	.-48     	; 0x2556 <__stack+0x457>
    2586:	14 cf       	rjmp	.-472    	; 0x23b0 <__stack+0x2b1>

00002588 <progShowText(String, unsigned int, int, int, int, unsigned char)>:
    2588:	8f 92       	push	r8
    258a:	9f 92       	push	r9
    258c:	af 92       	push	r10
    258e:	bf 92       	push	r11
    2590:	cf 92       	push	r12
    2592:	df 92       	push	r13
    2594:	ef 92       	push	r14
    2596:	0f 93       	push	r16
    2598:	1f 93       	push	r17
    259a:	cf 93       	push	r28
    259c:	df 93       	push	r29
    259e:	ec 01       	movw	r28, r24
    25a0:	4b 01       	movw	r8, r22
    25a2:	5a 01       	movw	r10, r20
    25a4:	69 01       	movw	r12, r18
    25a6:	80 91 c7 0a 	lds	r24, 0x0AC7	; 0x800ac7 <nextChangeMillisAlreadyCalculated>
    25aa:	81 11       	cpse	r24, r1
    25ac:	14 c0       	rjmp	.+40     	; 0x25d6 <progShowText(String, unsigned int, int, int, int, unsigned char)+0x4e>
    25ae:	61 e0       	ldi	r22, 0x01	; 1
    25b0:	8a ed       	ldi	r24, 0xDA	; 218
    25b2:	90 e1       	ldi	r25, 0x10	; 16
    25b4:	0e 94 91 44 	call	0x8922	; 0x8922 <CFastLED::clear(bool)>
    25b8:	90 92 07 01 	sts	0x0107, r9	; 0x800107 <nextChangeMillis+0x1>
    25bc:	80 92 06 01 	sts	0x0106, r8	; 0x800106 <nextChangeMillis>
    25c0:	e0 92 c6 0a 	sts	0x0AC6, r14	; 0x800ac6 <nextSongPart>
    25c4:	81 e0       	ldi	r24, 0x01	; 1
    25c6:	80 93 c7 0a 	sts	0x0AC7, r24	; 0x800ac7 <nextChangeMillisAlreadyCalculated>
    25ca:	84 e6       	ldi	r24, 0x64	; 100
    25cc:	90 e0       	ldi	r25, 0x00	; 0
    25ce:	90 93 ce 0a 	sts	0x0ACE, r25	; 0x800ace <millisCounterTimer+0x1>
    25d2:	80 93 cd 0a 	sts	0x0ACD, r24	; 0x800acd <millisCounterTimer>
    25d6:	80 91 cd 0a 	lds	r24, 0x0ACD	; 0x800acd <millisCounterTimer>
    25da:	90 91 ce 0a 	lds	r25, 0x0ACE	; 0x800ace <millisCounterTimer+0x1>
    25de:	84 36       	cpi	r24, 0x64	; 100
    25e0:	91 05       	cpc	r25, r1
    25e2:	08 f4       	brcc	.+2      	; 0x25e6 <progShowText(String, unsigned int, int, int, int, unsigned char)+0x5e>
    25e4:	4c c0       	rjmp	.+152    	; 0x267e <progShowText(String, unsigned int, int, int, int, unsigned char)+0xf6>
    25e6:	10 92 ce 0a 	sts	0x0ACE, r1	; 0x800ace <millisCounterTimer+0x1>
    25ea:	10 92 cd 0a 	sts	0x0ACD, r1	; 0x800acd <millisCounterTimer>
    25ee:	85 e0       	ldi	r24, 0x05	; 5
    25f0:	80 93 da 10 	sts	0x10DA, r24	; 0x8010da <FastLED>
    25f4:	80 91 c9 10 	lds	r24, 0x10C9	; 0x8010c9 <matrix>
    25f8:	90 91 ca 10 	lds	r25, 0x10CA	; 0x8010ca <matrix+0x1>
    25fc:	0e 94 9f 08 	call	0x113e	; 0x113e <Framebuffer_GFX::clear()>
    2600:	80 91 c9 10 	lds	r24, 0x10C9	; 0x8010c9 <matrix>
    2604:	90 91 ca 10 	lds	r25, 0x10CA	; 0x8010ca <matrix+0x1>
    2608:	dc 01       	movw	r26, r24
    260a:	56 96       	adiw	r26, 0x16	; 22
    260c:	1c 92       	st	X, r1
    260e:	61 e0       	ldi	r22, 0x01	; 1
    2610:	0e 94 f5 3e 	call	0x7dea	; 0x7dea <Adafruit_GFX::setTextSize(unsigned char)>
    2614:	80 91 c9 10 	lds	r24, 0x10C9	; 0x8010c9 <matrix>
    2618:	90 91 ca 10 	lds	r25, 0x10CA	; 0x8010ca <matrix+0x1>
    261c:	dc 01       	movw	r26, r24
    261e:	ed 91       	ld	r30, X+
    2620:	fc 91       	ld	r31, X
    2622:	00 8c       	ldd	r0, Z+24	; 0x18
    2624:	f1 8d       	ldd	r31, Z+25	; 0x19
    2626:	e0 2d       	mov	r30, r0
    2628:	60 e0       	ldi	r22, 0x00	; 0
    262a:	09 95       	icall
    262c:	0e 94 71 51 	call	0xa2e2	; 0xa2e2 <yield>
    2630:	80 91 c9 10 	lds	r24, 0x10C9	; 0x8010c9 <matrix>
    2634:	90 91 ca 10 	lds	r25, 0x10CA	; 0x8010ca <matrix+0x1>
    2638:	0e 94 9f 08 	call	0x113e	; 0x113e <Framebuffer_GFX::clear()>
    263c:	e0 91 c9 10 	lds	r30, 0x10C9	; 0x8010c9 <matrix>
    2640:	f0 91 ca 10 	lds	r31, 0x10CA	; 0x8010ca <matrix+0x1>
    2644:	b4 86       	std	Z+12, r11	; 0x0c
    2646:	a3 86       	std	Z+11, r10	; 0x0b
    2648:	d6 86       	std	Z+14, r13	; 0x0e
    264a:	c5 86       	std	Z+13, r12	; 0x0d
    264c:	12 8b       	std	Z+18, r17	; 0x12
    264e:	01 8b       	std	Z+17, r16	; 0x11
    2650:	10 8b       	std	Z+16, r17	; 0x10
    2652:	07 87       	std	Z+15, r16	; 0x0f
    2654:	be 01       	movw	r22, r28
    2656:	cf 01       	movw	r24, r30
    2658:	0e 94 c9 4d 	call	0x9b92	; 0x9b92 <Print::print(String const&)>
    265c:	80 91 c9 10 	lds	r24, 0x10C9	; 0x8010c9 <matrix>
    2660:	90 91 ca 10 	lds	r25, 0x10CA	; 0x8010ca <matrix+0x1>
    2664:	df 91       	pop	r29
    2666:	cf 91       	pop	r28
    2668:	1f 91       	pop	r17
    266a:	0f 91       	pop	r16
    266c:	ef 90       	pop	r14
    266e:	df 90       	pop	r13
    2670:	cf 90       	pop	r12
    2672:	bf 90       	pop	r11
    2674:	af 90       	pop	r10
    2676:	9f 90       	pop	r9
    2678:	8f 90       	pop	r8
    267a:	0c 94 14 3f 	jmp	0x7e28	; 0x7e28 <FastLED_NeoMatrix::show()>
    267e:	df 91       	pop	r29
    2680:	cf 91       	pop	r28
    2682:	1f 91       	pop	r17
    2684:	0f 91       	pop	r16
    2686:	ef 90       	pop	r14
    2688:	df 90       	pop	r13
    268a:	cf 90       	pop	r12
    268c:	bf 90       	pop	r11
    268e:	af 90       	pop	r10
    2690:	9f 90       	pop	r9
    2692:	8f 90       	pop	r8
    2694:	08 95       	ret

00002696 <progScrollText(String, unsigned int, int, int, unsigned char)>:
    2696:	af 92       	push	r10
    2698:	bf 92       	push	r11
    269a:	cf 92       	push	r12
    269c:	df 92       	push	r13
    269e:	ef 92       	push	r14
    26a0:	ff 92       	push	r15
    26a2:	0f 93       	push	r16
    26a4:	cf 93       	push	r28
    26a6:	df 93       	push	r29
    26a8:	7c 01       	movw	r14, r24
    26aa:	5b 01       	movw	r10, r22
    26ac:	6a 01       	movw	r12, r20
    26ae:	e9 01       	movw	r28, r18
    26b0:	80 91 c7 0a 	lds	r24, 0x0AC7	; 0x800ac7 <nextChangeMillisAlreadyCalculated>
    26b4:	81 11       	cpse	r24, r1
    26b6:	26 c0       	rjmp	.+76     	; 0x2704 <progScrollText(String, unsigned int, int, int, unsigned char)+0x6e>
    26b8:	61 e0       	ldi	r22, 0x01	; 1
    26ba:	8a ed       	ldi	r24, 0xDA	; 218
    26bc:	90 e1       	ldi	r25, 0x10	; 16
    26be:	0e 94 91 44 	call	0x8922	; 0x8922 <CFastLED::clear(bool)>
    26c2:	b0 92 07 01 	sts	0x0107, r11	; 0x800107 <nextChangeMillis+0x1>
    26c6:	a0 92 06 01 	sts	0x0106, r10	; 0x800106 <nextChangeMillis>
    26ca:	00 93 c6 0a 	sts	0x0AC6, r16	; 0x800ac6 <nextSongPart>
    26ce:	81 e0       	ldi	r24, 0x01	; 1
    26d0:	80 93 c7 0a 	sts	0x0AC7, r24	; 0x800ac7 <nextChangeMillisAlreadyCalculated>
    26d4:	d0 92 ce 0a 	sts	0x0ACE, r13	; 0x800ace <millisCounterTimer+0x1>
    26d8:	c0 92 cd 0a 	sts	0x0ACD, r12	; 0x800acd <millisCounterTimer>
    26dc:	84 e1       	ldi	r24, 0x14	; 20
    26de:	90 e0       	ldi	r25, 0x00	; 0
    26e0:	90 93 05 01 	sts	0x0105, r25	; 0x800105 <progScrollTextZaehler+0x1>
    26e4:	80 93 04 01 	sts	0x0104, r24	; 0x800104 <progScrollTextZaehler>
    26e8:	d7 01       	movw	r26, r14
    26ea:	14 96       	adiw	r26, 0x04	; 4
    26ec:	2d 91       	ld	r18, X+
    26ee:	3c 91       	ld	r19, X
    26f0:	46 e0       	ldi	r20, 0x06	; 6
    26f2:	42 9f       	mul	r20, r18
    26f4:	c0 01       	movw	r24, r0
    26f6:	43 9f       	mul	r20, r19
    26f8:	90 0d       	add	r25, r0
    26fa:	11 24       	eor	r1, r1
    26fc:	90 93 bb 0a 	sts	0x0ABB, r25	; 0x800abb <progScrollEnde+0x1>
    2700:	80 93 ba 0a 	sts	0x0ABA, r24	; 0x800aba <progScrollEnde>
    2704:	80 91 cd 0a 	lds	r24, 0x0ACD	; 0x800acd <millisCounterTimer>
    2708:	90 91 ce 0a 	lds	r25, 0x0ACE	; 0x800ace <millisCounterTimer+0x1>
    270c:	8c 15       	cp	r24, r12
    270e:	9d 05       	cpc	r25, r13
    2710:	08 f4       	brcc	.+2      	; 0x2714 <progScrollText(String, unsigned int, int, int, unsigned char)+0x7e>
    2712:	68 c0       	rjmp	.+208    	; 0x27e4 <progScrollText(String, unsigned int, int, int, unsigned char)+0x14e>
    2714:	10 92 ce 0a 	sts	0x0ACE, r1	; 0x800ace <millisCounterTimer+0x1>
    2718:	10 92 cd 0a 	sts	0x0ACD, r1	; 0x800acd <millisCounterTimer>
    271c:	85 e0       	ldi	r24, 0x05	; 5
    271e:	80 93 da 10 	sts	0x10DA, r24	; 0x8010da <FastLED>
    2722:	80 91 c9 10 	lds	r24, 0x10C9	; 0x8010c9 <matrix>
    2726:	90 91 ca 10 	lds	r25, 0x10CA	; 0x8010ca <matrix+0x1>
    272a:	0e 94 9f 08 	call	0x113e	; 0x113e <Framebuffer_GFX::clear()>
    272e:	80 91 c9 10 	lds	r24, 0x10C9	; 0x8010c9 <matrix>
    2732:	90 91 ca 10 	lds	r25, 0x10CA	; 0x8010ca <matrix+0x1>
    2736:	fc 01       	movw	r30, r24
    2738:	16 8a       	std	Z+22, r1	; 0x16
    273a:	61 e0       	ldi	r22, 0x01	; 1
    273c:	0e 94 f5 3e 	call	0x7dea	; 0x7dea <Adafruit_GFX::setTextSize(unsigned char)>
    2740:	80 91 c9 10 	lds	r24, 0x10C9	; 0x8010c9 <matrix>
    2744:	90 91 ca 10 	lds	r25, 0x10CA	; 0x8010ca <matrix+0x1>
    2748:	dc 01       	movw	r26, r24
    274a:	ed 91       	ld	r30, X+
    274c:	fc 91       	ld	r31, X
    274e:	00 8c       	ldd	r0, Z+24	; 0x18
    2750:	f1 8d       	ldd	r31, Z+25	; 0x19
    2752:	e0 2d       	mov	r30, r0
    2754:	60 e0       	ldi	r22, 0x00	; 0
    2756:	09 95       	icall
    2758:	80 91 04 01 	lds	r24, 0x0104	; 0x800104 <progScrollTextZaehler>
    275c:	90 91 05 01 	lds	r25, 0x0105	; 0x800105 <progScrollTextZaehler+0x1>
    2760:	01 97       	sbiw	r24, 0x01	; 1
    2762:	90 93 05 01 	sts	0x0105, r25	; 0x800105 <progScrollTextZaehler+0x1>
    2766:	80 93 04 01 	sts	0x0104, r24	; 0x800104 <progScrollTextZaehler>
    276a:	20 91 ba 0a 	lds	r18, 0x0ABA	; 0x800aba <progScrollEnde>
    276e:	30 91 bb 0a 	lds	r19, 0x0ABB	; 0x800abb <progScrollEnde+0x1>
    2772:	31 95       	neg	r19
    2774:	21 95       	neg	r18
    2776:	31 09       	sbc	r19, r1
    2778:	82 17       	cp	r24, r18
    277a:	93 07       	cpc	r25, r19
    277c:	34 f4       	brge	.+12     	; 0x278a <progScrollText(String, unsigned int, int, int, unsigned char)+0xf4>
    277e:	84 e1       	ldi	r24, 0x14	; 20
    2780:	90 e0       	ldi	r25, 0x00	; 0
    2782:	90 93 05 01 	sts	0x0105, r25	; 0x800105 <progScrollTextZaehler+0x1>
    2786:	80 93 04 01 	sts	0x0104, r24	; 0x800104 <progScrollTextZaehler>
    278a:	0e 94 71 51 	call	0xa2e2	; 0xa2e2 <yield>
    278e:	80 91 c9 10 	lds	r24, 0x10C9	; 0x8010c9 <matrix>
    2792:	90 91 ca 10 	lds	r25, 0x10CA	; 0x8010ca <matrix+0x1>
    2796:	0e 94 9f 08 	call	0x113e	; 0x113e <Framebuffer_GFX::clear()>
    279a:	e0 91 c9 10 	lds	r30, 0x10C9	; 0x8010c9 <matrix>
    279e:	f0 91 ca 10 	lds	r31, 0x10CA	; 0x8010ca <matrix+0x1>
    27a2:	80 91 04 01 	lds	r24, 0x0104	; 0x800104 <progScrollTextZaehler>
    27a6:	90 91 05 01 	lds	r25, 0x0105	; 0x800105 <progScrollTextZaehler+0x1>
    27aa:	94 87       	std	Z+12, r25	; 0x0c
    27ac:	83 87       	std	Z+11, r24	; 0x0b
    27ae:	8d e0       	ldi	r24, 0x0D	; 13
    27b0:	90 e0       	ldi	r25, 0x00	; 0
    27b2:	96 87       	std	Z+14, r25	; 0x0e
    27b4:	85 87       	std	Z+13, r24	; 0x0d
    27b6:	d2 8b       	std	Z+18, r29	; 0x12
    27b8:	c1 8b       	std	Z+17, r28	; 0x11
    27ba:	d0 8b       	std	Z+16, r29	; 0x10
    27bc:	c7 87       	std	Z+15, r28	; 0x0f
    27be:	b7 01       	movw	r22, r14
    27c0:	cf 01       	movw	r24, r30
    27c2:	0e 94 c9 4d 	call	0x9b92	; 0x9b92 <Print::print(String const&)>
    27c6:	80 91 c9 10 	lds	r24, 0x10C9	; 0x8010c9 <matrix>
    27ca:	90 91 ca 10 	lds	r25, 0x10CA	; 0x8010ca <matrix+0x1>
    27ce:	df 91       	pop	r29
    27d0:	cf 91       	pop	r28
    27d2:	0f 91       	pop	r16
    27d4:	ff 90       	pop	r15
    27d6:	ef 90       	pop	r14
    27d8:	df 90       	pop	r13
    27da:	cf 90       	pop	r12
    27dc:	bf 90       	pop	r11
    27de:	af 90       	pop	r10
    27e0:	0c 94 14 3f 	jmp	0x7e28	; 0x7e28 <FastLED_NeoMatrix::show()>
    27e4:	df 91       	pop	r29
    27e6:	cf 91       	pop	r28
    27e8:	0f 91       	pop	r16
    27ea:	ff 90       	pop	r15
    27ec:	ef 90       	pop	r14
    27ee:	df 90       	pop	r13
    27f0:	cf 90       	pop	r12
    27f2:	bf 90       	pop	r11
    27f4:	af 90       	pop	r10
    27f6:	08 95       	ret

000027f8 <progShowROOTS(unsigned int, unsigned char)>:
    27f8:	0f 93       	push	r16
    27fa:	1f 93       	push	r17
    27fc:	cf 93       	push	r28
    27fe:	df 93       	push	r29
    2800:	8c 01       	movw	r16, r24
    2802:	c6 2f       	mov	r28, r22
    2804:	80 91 c7 0a 	lds	r24, 0x0AC7	; 0x800ac7 <nextChangeMillisAlreadyCalculated>
    2808:	81 11       	cpse	r24, r1
    280a:	0e c0       	rjmp	.+28     	; 0x2828 <progShowROOTS(unsigned int, unsigned char)+0x30>
    280c:	61 e0       	ldi	r22, 0x01	; 1
    280e:	8a ed       	ldi	r24, 0xDA	; 218
    2810:	90 e1       	ldi	r25, 0x10	; 16
    2812:	0e 94 91 44 	call	0x8922	; 0x8922 <CFastLED::clear(bool)>
    2816:	10 93 07 01 	sts	0x0107, r17	; 0x800107 <nextChangeMillis+0x1>
    281a:	00 93 06 01 	sts	0x0106, r16	; 0x800106 <nextChangeMillis>
    281e:	c0 93 c6 0a 	sts	0x0AC6, r28	; 0x800ac6 <nextSongPart>
    2822:	81 e0       	ldi	r24, 0x01	; 1
    2824:	80 93 c7 0a 	sts	0x0AC7, r24	; 0x800ac7 <nextChangeMillisAlreadyCalculated>
    2828:	80 91 cd 0a 	lds	r24, 0x0ACD	; 0x800acd <millisCounterTimer>
    282c:	90 91 ce 0a 	lds	r25, 0x0ACE	; 0x800ace <millisCounterTimer+0x1>
    2830:	84 3f       	cpi	r24, 0xF4	; 244
    2832:	91 40       	sbci	r25, 0x01	; 1
    2834:	08 f4       	brcc	.+2      	; 0x2838 <progShowROOTS(unsigned int, unsigned char)+0x40>
    2836:	b1 c0       	rjmp	.+354    	; 0x299a <progShowROOTS(unsigned int, unsigned char)+0x1a2>
    2838:	10 92 ce 0a 	sts	0x0ACE, r1	; 0x800ace <millisCounterTimer+0x1>
    283c:	10 92 cd 0a 	sts	0x0ACD, r1	; 0x800acd <millisCounterTimer>
    2840:	8f e0       	ldi	r24, 0x0F	; 15
    2842:	80 93 da 10 	sts	0x10DA, r24	; 0x8010da <FastLED>
    2846:	80 91 c9 10 	lds	r24, 0x10C9	; 0x8010c9 <matrix>
    284a:	90 91 ca 10 	lds	r25, 0x10CA	; 0x8010ca <matrix+0x1>
    284e:	0e 94 9f 08 	call	0x113e	; 0x113e <Framebuffer_GFX::clear()>
    2852:	80 91 c9 10 	lds	r24, 0x10C9	; 0x8010c9 <matrix>
    2856:	90 91 ca 10 	lds	r25, 0x10CA	; 0x8010ca <matrix+0x1>
    285a:	dc 01       	movw	r26, r24
    285c:	56 96       	adiw	r26, 0x16	; 22
    285e:	1c 92       	st	X, r1
    2860:	61 e0       	ldi	r22, 0x01	; 1
    2862:	0e 94 f5 3e 	call	0x7dea	; 0x7dea <Adafruit_GFX::setTextSize(unsigned char)>
    2866:	80 91 c9 10 	lds	r24, 0x10C9	; 0x8010c9 <matrix>
    286a:	90 91 ca 10 	lds	r25, 0x10CA	; 0x8010ca <matrix+0x1>
    286e:	dc 01       	movw	r26, r24
    2870:	ed 91       	ld	r30, X+
    2872:	fc 91       	ld	r31, X
    2874:	00 8c       	ldd	r0, Z+24	; 0x18
    2876:	f1 8d       	ldd	r31, Z+25	; 0x19
    2878:	e0 2d       	mov	r30, r0
    287a:	60 e0       	ldi	r22, 0x00	; 0
    287c:	09 95       	icall
    287e:	0e 94 71 51 	call	0xa2e2	; 0xa2e2 <yield>
    2882:	80 91 c9 10 	lds	r24, 0x10C9	; 0x8010c9 <matrix>
    2886:	90 91 ca 10 	lds	r25, 0x10CA	; 0x8010ca <matrix+0x1>
    288a:	0e 94 9f 08 	call	0x113e	; 0x113e <Framebuffer_GFX::clear()>
    288e:	c0 91 c9 10 	lds	r28, 0x10C9	; 0x8010c9 <matrix>
    2892:	d0 91 ca 10 	lds	r29, 0x10CA	; 0x8010ca <matrix+0x1>
    2896:	1c 86       	std	Y+12, r1	; 0x0c
    2898:	1b 86       	std	Y+11, r1	; 0x0b
    289a:	83 e0       	ldi	r24, 0x03	; 3
    289c:	90 e0       	ldi	r25, 0x00	; 0
    289e:	9e 87       	std	Y+14, r25	; 0x0e
    28a0:	8d 87       	std	Y+13, r24	; 0x0d
    28a2:	0e 94 e6 09 	call	0x13cc	; 0x13cc <getRandomColor()>
    28a6:	9a 8b       	std	Y+18, r25	; 0x12
    28a8:	89 8b       	std	Y+17, r24	; 0x11
    28aa:	98 8b       	std	Y+16, r25	; 0x10
    28ac:	8f 87       	std	Y+15, r24	; 0x0f
    28ae:	69 e1       	ldi	r22, 0x19	; 25
    28b0:	71 e0       	ldi	r23, 0x01	; 1
    28b2:	80 91 c9 10 	lds	r24, 0x10C9	; 0x8010c9 <matrix>
    28b6:	90 91 ca 10 	lds	r25, 0x10CA	; 0x8010ca <matrix+0x1>
    28ba:	0e 94 53 08 	call	0x10a6	; 0x10a6 <Print::print(char const*)>
    28be:	c0 91 c9 10 	lds	r28, 0x10C9	; 0x8010c9 <matrix>
    28c2:	d0 91 ca 10 	lds	r29, 0x10CA	; 0x8010ca <matrix+0x1>
    28c6:	1c 86       	std	Y+12, r1	; 0x0c
    28c8:	1b 86       	std	Y+11, r1	; 0x0b
    28ca:	88 e0       	ldi	r24, 0x08	; 8
    28cc:	90 e0       	ldi	r25, 0x00	; 0
    28ce:	9e 87       	std	Y+14, r25	; 0x0e
    28d0:	8d 87       	std	Y+13, r24	; 0x0d
    28d2:	0e 94 e6 09 	call	0x13cc	; 0x13cc <getRandomColor()>
    28d6:	9a 8b       	std	Y+18, r25	; 0x12
    28d8:	89 8b       	std	Y+17, r24	; 0x11
    28da:	98 8b       	std	Y+16, r25	; 0x10
    28dc:	8f 87       	std	Y+15, r24	; 0x0f
    28de:	6b e1       	ldi	r22, 0x1B	; 27
    28e0:	71 e0       	ldi	r23, 0x01	; 1
    28e2:	80 91 c9 10 	lds	r24, 0x10C9	; 0x8010c9 <matrix>
    28e6:	90 91 ca 10 	lds	r25, 0x10CA	; 0x8010ca <matrix+0x1>
    28ea:	0e 94 53 08 	call	0x10a6	; 0x10a6 <Print::print(char const*)>
    28ee:	c0 91 c9 10 	lds	r28, 0x10C9	; 0x8010c9 <matrix>
    28f2:	d0 91 ca 10 	lds	r29, 0x10CA	; 0x8010ca <matrix+0x1>
    28f6:	84 e0       	ldi	r24, 0x04	; 4
    28f8:	90 e0       	ldi	r25, 0x00	; 0
    28fa:	9c 87       	std	Y+12, r25	; 0x0c
    28fc:	8b 87       	std	Y+11, r24	; 0x0b
    28fe:	0d e0       	ldi	r16, 0x0D	; 13
    2900:	10 e0       	ldi	r17, 0x00	; 0
    2902:	1e 87       	std	Y+14, r17	; 0x0e
    2904:	0d 87       	std	Y+13, r16	; 0x0d
    2906:	0e 94 e6 09 	call	0x13cc	; 0x13cc <getRandomColor()>
    290a:	9a 8b       	std	Y+18, r25	; 0x12
    290c:	89 8b       	std	Y+17, r24	; 0x11
    290e:	98 8b       	std	Y+16, r25	; 0x10
    2910:	8f 87       	std	Y+15, r24	; 0x0f
    2912:	6b e1       	ldi	r22, 0x1B	; 27
    2914:	71 e0       	ldi	r23, 0x01	; 1
    2916:	80 91 c9 10 	lds	r24, 0x10C9	; 0x8010c9 <matrix>
    291a:	90 91 ca 10 	lds	r25, 0x10CA	; 0x8010ca <matrix+0x1>
    291e:	0e 94 53 08 	call	0x10a6	; 0x10a6 <Print::print(char const*)>
    2922:	c0 91 c9 10 	lds	r28, 0x10C9	; 0x8010c9 <matrix>
    2926:	d0 91 ca 10 	lds	r29, 0x10CA	; 0x8010ca <matrix+0x1>
    292a:	8a e0       	ldi	r24, 0x0A	; 10
    292c:	90 e0       	ldi	r25, 0x00	; 0
    292e:	9c 87       	std	Y+12, r25	; 0x0c
    2930:	8b 87       	std	Y+11, r24	; 0x0b
    2932:	8e e0       	ldi	r24, 0x0E	; 14
    2934:	90 e0       	ldi	r25, 0x00	; 0
    2936:	9e 87       	std	Y+14, r25	; 0x0e
    2938:	8d 87       	std	Y+13, r24	; 0x0d
    293a:	0e 94 e6 09 	call	0x13cc	; 0x13cc <getRandomColor()>
    293e:	9a 8b       	std	Y+18, r25	; 0x12
    2940:	89 8b       	std	Y+17, r24	; 0x11
    2942:	98 8b       	std	Y+16, r25	; 0x10
    2944:	8f 87       	std	Y+15, r24	; 0x0f
    2946:	6d e1       	ldi	r22, 0x1D	; 29
    2948:	71 e0       	ldi	r23, 0x01	; 1
    294a:	80 91 c9 10 	lds	r24, 0x10C9	; 0x8010c9 <matrix>
    294e:	90 91 ca 10 	lds	r25, 0x10CA	; 0x8010ca <matrix+0x1>
    2952:	0e 94 53 08 	call	0x10a6	; 0x10a6 <Print::print(char const*)>
    2956:	c0 91 c9 10 	lds	r28, 0x10C9	; 0x8010c9 <matrix>
    295a:	d0 91 ca 10 	lds	r29, 0x10CA	; 0x8010ca <matrix+0x1>
    295e:	8f e0       	ldi	r24, 0x0F	; 15
    2960:	90 e0       	ldi	r25, 0x00	; 0
    2962:	9c 87       	std	Y+12, r25	; 0x0c
    2964:	8b 87       	std	Y+11, r24	; 0x0b
    2966:	1e 87       	std	Y+14, r17	; 0x0e
    2968:	0d 87       	std	Y+13, r16	; 0x0d
    296a:	0e 94 e6 09 	call	0x13cc	; 0x13cc <getRandomColor()>
    296e:	9a 8b       	std	Y+18, r25	; 0x12
    2970:	89 8b       	std	Y+17, r24	; 0x11
    2972:	98 8b       	std	Y+16, r25	; 0x10
    2974:	8f 87       	std	Y+15, r24	; 0x0f
    2976:	64 e7       	ldi	r22, 0x74	; 116
    2978:	71 e0       	ldi	r23, 0x01	; 1
    297a:	80 91 c9 10 	lds	r24, 0x10C9	; 0x8010c9 <matrix>
    297e:	90 91 ca 10 	lds	r25, 0x10CA	; 0x8010ca <matrix+0x1>
    2982:	0e 94 53 08 	call	0x10a6	; 0x10a6 <Print::print(char const*)>
    2986:	80 91 c9 10 	lds	r24, 0x10C9	; 0x8010c9 <matrix>
    298a:	90 91 ca 10 	lds	r25, 0x10CA	; 0x8010ca <matrix+0x1>
    298e:	df 91       	pop	r29
    2990:	cf 91       	pop	r28
    2992:	1f 91       	pop	r17
    2994:	0f 91       	pop	r16
    2996:	0c 94 14 3f 	jmp	0x7e28	; 0x7e28 <FastLED_NeoMatrix::show()>
    299a:	df 91       	pop	r29
    299c:	cf 91       	pop	r28
    299e:	1f 91       	pop	r17
    29a0:	0f 91       	pop	r16
    29a2:	08 95       	ret

000029a4 <progWordArray(String*, int, int, unsigned int, int, unsigned char)>:
    29a4:	8f 92       	push	r8
    29a6:	9f 92       	push	r9
    29a8:	af 92       	push	r10
    29aa:	bf 92       	push	r11
    29ac:	cf 92       	push	r12
    29ae:	df 92       	push	r13
    29b0:	ef 92       	push	r14
    29b2:	0f 93       	push	r16
    29b4:	1f 93       	push	r17
    29b6:	cf 93       	push	r28
    29b8:	df 93       	push	r29
    29ba:	ec 01       	movw	r28, r24
    29bc:	5b 01       	movw	r10, r22
    29be:	6a 01       	movw	r12, r20
    29c0:	49 01       	movw	r8, r18
    29c2:	80 91 c7 0a 	lds	r24, 0x0AC7	; 0x800ac7 <nextChangeMillisAlreadyCalculated>
    29c6:	81 11       	cpse	r24, r1
    29c8:	16 c0       	rjmp	.+44     	; 0x29f6 <progWordArray(String*, int, int, unsigned int, int, unsigned char)+0x52>
    29ca:	61 e0       	ldi	r22, 0x01	; 1
    29cc:	8a ed       	ldi	r24, 0xDA	; 218
    29ce:	90 e1       	ldi	r25, 0x10	; 16
    29d0:	0e 94 91 44 	call	0x8922	; 0x8922 <CFastLED::clear(bool)>
    29d4:	90 92 07 01 	sts	0x0107, r9	; 0x800107 <nextChangeMillis+0x1>
    29d8:	80 92 06 01 	sts	0x0106, r8	; 0x800106 <nextChangeMillis>
    29dc:	e0 92 c6 0a 	sts	0x0AC6, r14	; 0x800ac6 <nextSongPart>
    29e0:	81 e0       	ldi	r24, 0x01	; 1
    29e2:	80 93 c7 0a 	sts	0x0AC7, r24	; 0x800ac7 <nextChangeMillisAlreadyCalculated>
    29e6:	10 92 70 0a 	sts	0x0A70, r1	; 0x800a70 <zaehlerWortArray+0x1>
    29ea:	10 92 6f 0a 	sts	0x0A6F, r1	; 0x800a6f <zaehlerWortArray>
    29ee:	d0 92 ce 0a 	sts	0x0ACE, r13	; 0x800ace <millisCounterTimer+0x1>
    29f2:	c0 92 cd 0a 	sts	0x0ACD, r12	; 0x800acd <millisCounterTimer>
    29f6:	80 91 cd 0a 	lds	r24, 0x0ACD	; 0x800acd <millisCounterTimer>
    29fa:	90 91 ce 0a 	lds	r25, 0x0ACE	; 0x800ace <millisCounterTimer+0x1>
    29fe:	8c 15       	cp	r24, r12
    2a00:	9d 05       	cpc	r25, r13
    2a02:	08 f4       	brcc	.+2      	; 0x2a06 <progWordArray(String*, int, int, unsigned int, int, unsigned char)+0x62>
    2a04:	5b c0       	rjmp	.+182    	; 0x2abc <progWordArray(String*, int, int, unsigned int, int, unsigned char)+0x118>
    2a06:	10 92 ce 0a 	sts	0x0ACE, r1	; 0x800ace <millisCounterTimer+0x1>
    2a0a:	10 92 cd 0a 	sts	0x0ACD, r1	; 0x800acd <millisCounterTimer>
    2a0e:	80 91 6f 0a 	lds	r24, 0x0A6F	; 0x800a6f <zaehlerWortArray>
    2a12:	90 91 70 0a 	lds	r25, 0x0A70	; 0x800a70 <zaehlerWortArray+0x1>
    2a16:	a8 16       	cp	r10, r24
    2a18:	b9 06       	cpc	r11, r25
    2a1a:	0c f4       	brge	.+2      	; 0x2a1e <progWordArray(String*, int, int, unsigned int, int, unsigned char)+0x7a>
    2a1c:	4f c0       	rjmp	.+158    	; 0x2abc <progWordArray(String*, int, int, unsigned int, int, unsigned char)+0x118>
    2a1e:	85 e0       	ldi	r24, 0x05	; 5
    2a20:	80 93 da 10 	sts	0x10DA, r24	; 0x8010da <FastLED>
    2a24:	80 91 c9 10 	lds	r24, 0x10C9	; 0x8010c9 <matrix>
    2a28:	90 91 ca 10 	lds	r25, 0x10CA	; 0x8010ca <matrix+0x1>
    2a2c:	0e 94 9f 08 	call	0x113e	; 0x113e <Framebuffer_GFX::clear()>
    2a30:	80 91 c9 10 	lds	r24, 0x10C9	; 0x8010c9 <matrix>
    2a34:	90 91 ca 10 	lds	r25, 0x10CA	; 0x8010ca <matrix+0x1>
    2a38:	dc 01       	movw	r26, r24
    2a3a:	56 96       	adiw	r26, 0x16	; 22
    2a3c:	1c 92       	st	X, r1
    2a3e:	61 e0       	ldi	r22, 0x01	; 1
    2a40:	0e 94 f5 3e 	call	0x7dea	; 0x7dea <Adafruit_GFX::setTextSize(unsigned char)>
    2a44:	80 91 c9 10 	lds	r24, 0x10C9	; 0x8010c9 <matrix>
    2a48:	90 91 ca 10 	lds	r25, 0x10CA	; 0x8010ca <matrix+0x1>
    2a4c:	dc 01       	movw	r26, r24
    2a4e:	ed 91       	ld	r30, X+
    2a50:	fc 91       	ld	r31, X
    2a52:	00 8c       	ldd	r0, Z+24	; 0x18
    2a54:	f1 8d       	ldd	r31, Z+25	; 0x19
    2a56:	e0 2d       	mov	r30, r0
    2a58:	60 e0       	ldi	r22, 0x00	; 0
    2a5a:	09 95       	icall
    2a5c:	0e 94 71 51 	call	0xa2e2	; 0xa2e2 <yield>
    2a60:	e0 91 c9 10 	lds	r30, 0x10C9	; 0x8010c9 <matrix>
    2a64:	f0 91 ca 10 	lds	r31, 0x10CA	; 0x8010ca <matrix+0x1>
    2a68:	82 e0       	ldi	r24, 0x02	; 2
    2a6a:	90 e0       	ldi	r25, 0x00	; 0
    2a6c:	94 87       	std	Z+12, r25	; 0x0c
    2a6e:	83 87       	std	Z+11, r24	; 0x0b
    2a70:	8d e0       	ldi	r24, 0x0D	; 13
    2a72:	90 e0       	ldi	r25, 0x00	; 0
    2a74:	96 87       	std	Z+14, r25	; 0x0e
    2a76:	85 87       	std	Z+13, r24	; 0x0d
    2a78:	12 8b       	std	Z+18, r17	; 0x12
    2a7a:	01 8b       	std	Z+17, r16	; 0x11
    2a7c:	10 8b       	std	Z+16, r17	; 0x10
    2a7e:	07 87       	std	Z+15, r16	; 0x0f
    2a80:	80 91 6f 0a 	lds	r24, 0x0A6F	; 0x800a6f <zaehlerWortArray>
    2a84:	90 91 70 0a 	lds	r25, 0x0A70	; 0x800a70 <zaehlerWortArray+0x1>
    2a88:	27 e0       	ldi	r18, 0x07	; 7
    2a8a:	28 9f       	mul	r18, r24
    2a8c:	b0 01       	movw	r22, r0
    2a8e:	29 9f       	mul	r18, r25
    2a90:	70 0d       	add	r23, r0
    2a92:	11 24       	eor	r1, r1
    2a94:	6c 0f       	add	r22, r28
    2a96:	7d 1f       	adc	r23, r29
    2a98:	cf 01       	movw	r24, r30
    2a9a:	0e 94 c9 4d 	call	0x9b92	; 0x9b92 <Print::print(String const&)>
    2a9e:	80 91 c9 10 	lds	r24, 0x10C9	; 0x8010c9 <matrix>
    2aa2:	90 91 ca 10 	lds	r25, 0x10CA	; 0x8010ca <matrix+0x1>
    2aa6:	0e 94 14 3f 	call	0x7e28	; 0x7e28 <FastLED_NeoMatrix::show()>
    2aaa:	80 91 6f 0a 	lds	r24, 0x0A6F	; 0x800a6f <zaehlerWortArray>
    2aae:	90 91 70 0a 	lds	r25, 0x0A70	; 0x800a70 <zaehlerWortArray+0x1>
    2ab2:	01 96       	adiw	r24, 0x01	; 1
    2ab4:	90 93 70 0a 	sts	0x0A70, r25	; 0x800a70 <zaehlerWortArray+0x1>
    2ab8:	80 93 6f 0a 	sts	0x0A6F, r24	; 0x800a6f <zaehlerWortArray>
    2abc:	df 91       	pop	r29
    2abe:	cf 91       	pop	r28
    2ac0:	1f 91       	pop	r17
    2ac2:	0f 91       	pop	r16
    2ac4:	ef 90       	pop	r14
    2ac6:	df 90       	pop	r13
    2ac8:	cf 90       	pop	r12
    2aca:	bf 90       	pop	r11
    2acc:	af 90       	pop	r10
    2ace:	9f 90       	pop	r9
    2ad0:	8f 90       	pop	r8
    2ad2:	08 95       	ret

00002ad4 <SetupTotallyRandomPalette()>:
    2ad4:	bf 92       	push	r11
    2ad6:	cf 92       	push	r12
    2ad8:	df 92       	push	r13
    2ada:	ef 92       	push	r14
    2adc:	ff 92       	push	r15
    2ade:	0f 93       	push	r16
    2ae0:	1f 93       	push	r17
    2ae2:	cf 93       	push	r28
    2ae4:	df 93       	push	r29
    2ae6:	00 d0       	rcall	.+0      	; 0x2ae8 <SetupTotallyRandomPalette()+0x14>
    2ae8:	1f 92       	push	r1
    2aea:	cd b7       	in	r28, 0x3d	; 61
    2aec:	de b7       	in	r29, 0x3e	; 62
    2aee:	06 e8       	ldi	r16, 0x86	; 134
    2af0:	1a e0       	ldi	r17, 0x0A	; 10
    2af2:	86 eb       	ldi	r24, 0xB6	; 182
    2af4:	e8 2e       	mov	r14, r24
    2af6:	8a e0       	ldi	r24, 0x0A	; 10
    2af8:	f8 2e       	mov	r15, r24
    2afa:	95 e0       	ldi	r25, 0x05	; 5
    2afc:	c9 2e       	mov	r12, r25
    2afe:	98 e0       	ldi	r25, 0x08	; 8
    2b00:	d9 2e       	mov	r13, r25
    2b02:	bb 24       	eor	r11, r11
    2b04:	ba 94       	dec	r11
    2b06:	20 91 08 01 	lds	r18, 0x0108	; 0x800108 <rand16seed>
    2b0a:	30 91 09 01 	lds	r19, 0x0109	; 0x800109 <rand16seed+0x1>
    2b0e:	2c 9d       	mul	r18, r12
    2b10:	c0 01       	movw	r24, r0
    2b12:	2d 9d       	mul	r18, r13
    2b14:	90 0d       	add	r25, r0
    2b16:	3c 9d       	mul	r19, r12
    2b18:	90 0d       	add	r25, r0
    2b1a:	11 24       	eor	r1, r1
    2b1c:	87 5e       	subi	r24, 0xE7	; 231
    2b1e:	99 4c       	sbci	r25, 0xC9	; 201
    2b20:	8c 9d       	mul	r24, r12
    2b22:	90 01       	movw	r18, r0
    2b24:	8d 9d       	mul	r24, r13
    2b26:	30 0d       	add	r19, r0
    2b28:	9c 9d       	mul	r25, r12
    2b2a:	30 0d       	add	r19, r0
    2b2c:	11 24       	eor	r1, r1
    2b2e:	27 5e       	subi	r18, 0xE7	; 231
    2b30:	39 4c       	sbci	r19, 0xC9	; 201
    2b32:	30 93 09 01 	sts	0x0109, r19	; 0x800109 <rand16seed+0x1>
    2b36:	20 93 08 01 	sts	0x0108, r18	; 0x800108 <rand16seed>
    2b3a:	23 0f       	add	r18, r19
    2b3c:	29 83       	std	Y+1, r18	; 0x01
    2b3e:	ba 82       	std	Y+2, r11	; 0x02
    2b40:	89 0f       	add	r24, r25
    2b42:	8b 83       	std	Y+3, r24	; 0x03
    2b44:	b8 01       	movw	r22, r16
    2b46:	ce 01       	movw	r24, r28
    2b48:	01 96       	adiw	r24, 0x01	; 1
    2b4a:	0e 94 24 45 	call	0x8a48	; 0x8a48 <hsv2rgb_rainbow(CHSV const&, CRGB&)>
    2b4e:	0d 5f       	subi	r16, 0xFD	; 253
    2b50:	1f 4f       	sbci	r17, 0xFF	; 255
    2b52:	e0 16       	cp	r14, r16
    2b54:	f1 06       	cpc	r15, r17
    2b56:	b9 f6       	brne	.-82     	; 0x2b06 <SetupTotallyRandomPalette()+0x32>
    2b58:	0f 90       	pop	r0
    2b5a:	0f 90       	pop	r0
    2b5c:	0f 90       	pop	r0
    2b5e:	df 91       	pop	r29
    2b60:	cf 91       	pop	r28
    2b62:	1f 91       	pop	r17
    2b64:	0f 91       	pop	r16
    2b66:	ff 90       	pop	r15
    2b68:	ef 90       	pop	r14
    2b6a:	df 90       	pop	r13
    2b6c:	cf 90       	pop	r12
    2b6e:	bf 90       	pop	r11
    2b70:	08 95       	ret

00002b72 <SetupBlackAndWhiteStripedPalette()>:
    2b72:	cf 93       	push	r28
    2b74:	df 93       	push	r29
    2b76:	00 d0       	rcall	.+0      	; 0x2b78 <SetupBlackAndWhiteStripedPalette()+0x6>
    2b78:	1f 92       	push	r1
    2b7a:	cd b7       	in	r28, 0x3d	; 61
    2b7c:	de b7       	in	r29, 0x3e	; 62
    2b7e:	19 82       	std	Y+1, r1	; 0x01
    2b80:	1a 82       	std	Y+2, r1	; 0x02
    2b82:	1b 82       	std	Y+3, r1	; 0x03
    2b84:	ae 01       	movw	r20, r28
    2b86:	4f 5f       	subi	r20, 0xFF	; 255
    2b88:	5f 4f       	sbci	r21, 0xFF	; 255
    2b8a:	60 e1       	ldi	r22, 0x10	; 16
    2b8c:	70 e0       	ldi	r23, 0x00	; 0
    2b8e:	86 e8       	ldi	r24, 0x86	; 134
    2b90:	9a e0       	ldi	r25, 0x0A	; 10
    2b92:	0e 94 03 42 	call	0x8406	; 0x8406 <fill_solid(CRGB*, int, CRGB const&)>
    2b96:	e6 e8       	ldi	r30, 0x86	; 134
    2b98:	fa e0       	ldi	r31, 0x0A	; 10
    2b9a:	8f ef       	ldi	r24, 0xFF	; 255
    2b9c:	80 83       	st	Z, r24
    2b9e:	81 83       	std	Z+1, r24	; 0x01
    2ba0:	82 83       	std	Z+2, r24	; 0x02
    2ba2:	84 87       	std	Z+12, r24	; 0x0c
    2ba4:	85 87       	std	Z+13, r24	; 0x0d
    2ba6:	86 87       	std	Z+14, r24	; 0x0e
    2ba8:	80 8f       	std	Z+24, r24	; 0x18
    2baa:	81 8f       	std	Z+25, r24	; 0x19
    2bac:	82 8f       	std	Z+26, r24	; 0x1a
    2bae:	84 a3       	std	Z+36, r24	; 0x24
    2bb0:	85 a3       	std	Z+37, r24	; 0x25
    2bb2:	86 a3       	std	Z+38, r24	; 0x26
    2bb4:	0f 90       	pop	r0
    2bb6:	0f 90       	pop	r0
    2bb8:	0f 90       	pop	r0
    2bba:	df 91       	pop	r29
    2bbc:	cf 91       	pop	r28
    2bbe:	08 95       	ret

00002bc0 <SetupPurpleAndGreenPalette()>:
    2bc0:	1f 93       	push	r17
    2bc2:	cf 93       	push	r28
    2bc4:	df 93       	push	r29
    2bc6:	cd b7       	in	r28, 0x3d	; 61
    2bc8:	de b7       	in	r29, 0x3e	; 62
    2bca:	e6 97       	sbiw	r28, 0x36	; 54
    2bcc:	0f b6       	in	r0, 0x3f	; 63
    2bce:	f8 94       	cli
    2bd0:	de bf       	out	0x3e, r29	; 62
    2bd2:	0f be       	out	0x3f, r0	; 63
    2bd4:	cd bf       	out	0x3d, r28	; 61
    2bd6:	80 ec       	ldi	r24, 0xC0	; 192
    2bd8:	89 83       	std	Y+1, r24	; 0x01
    2bda:	1f ef       	ldi	r17, 0xFF	; 255
    2bdc:	1a 83       	std	Y+2, r17	; 0x02
    2bde:	1b 83       	std	Y+3, r17	; 0x03
    2be0:	be 01       	movw	r22, r28
    2be2:	6c 5c       	subi	r22, 0xCC	; 204
    2be4:	7f 4f       	sbci	r23, 0xFF	; 255
    2be6:	ce 01       	movw	r24, r28
    2be8:	01 96       	adiw	r24, 0x01	; 1
    2bea:	0e 94 24 45 	call	0x8a48	; 0x8a48 <hsv2rgb_rainbow(CHSV const&, CRGB&)>
    2bee:	80 e6       	ldi	r24, 0x60	; 96
    2bf0:	89 83       	std	Y+1, r24	; 0x01
    2bf2:	1a 83       	std	Y+2, r17	; 0x02
    2bf4:	1b 83       	std	Y+3, r17	; 0x03
    2bf6:	be 01       	movw	r22, r28
    2bf8:	6f 5c       	subi	r22, 0xCF	; 207
    2bfa:	7f 4f       	sbci	r23, 0xFF	; 255
    2bfc:	ce 01       	movw	r24, r28
    2bfe:	01 96       	adiw	r24, 0x01	; 1
    2c00:	0e 94 24 45 	call	0x8a48	; 0x8a48 <hsv2rgb_rainbow(CHSV const&, CRGB&)>
    2c04:	59 a9       	ldd	r21, Y+49	; 0x31
    2c06:	59 83       	std	Y+1, r21	; 0x01
    2c08:	4a a9       	ldd	r20, Y+50	; 0x32
    2c0a:	4a 83       	std	Y+2, r20	; 0x02
    2c0c:	3b a9       	ldd	r19, Y+51	; 0x33
    2c0e:	3b 83       	std	Y+3, r19	; 0x03
    2c10:	5c 83       	std	Y+4, r21	; 0x04
    2c12:	4d 83       	std	Y+5, r20	; 0x05
    2c14:	3e 83       	std	Y+6, r19	; 0x06
    2c16:	1f 82       	std	Y+7, r1	; 0x07
    2c18:	18 86       	std	Y+8, r1	; 0x08
    2c1a:	19 86       	std	Y+9, r1	; 0x09
    2c1c:	1a 86       	std	Y+10, r1	; 0x0a
    2c1e:	1b 86       	std	Y+11, r1	; 0x0b
    2c20:	1c 86       	std	Y+12, r1	; 0x0c
    2c22:	2c a9       	ldd	r18, Y+52	; 0x34
    2c24:	2d 87       	std	Y+13, r18	; 0x0d
    2c26:	9d a9       	ldd	r25, Y+53	; 0x35
    2c28:	9e 87       	std	Y+14, r25	; 0x0e
    2c2a:	8e a9       	ldd	r24, Y+54	; 0x36
    2c2c:	8f 87       	std	Y+15, r24	; 0x0f
    2c2e:	28 8b       	std	Y+16, r18	; 0x10
    2c30:	99 8b       	std	Y+17, r25	; 0x11
    2c32:	8a 8b       	std	Y+18, r24	; 0x12
    2c34:	1b 8a       	std	Y+19, r1	; 0x13
    2c36:	1c 8a       	std	Y+20, r1	; 0x14
    2c38:	1d 8a       	std	Y+21, r1	; 0x15
    2c3a:	1e 8a       	std	Y+22, r1	; 0x16
    2c3c:	1f 8a       	std	Y+23, r1	; 0x17
    2c3e:	18 8e       	std	Y+24, r1	; 0x18
    2c40:	59 8f       	std	Y+25, r21	; 0x19
    2c42:	4a 8f       	std	Y+26, r20	; 0x1a
    2c44:	3b 8f       	std	Y+27, r19	; 0x1b
    2c46:	5c 8f       	std	Y+28, r21	; 0x1c
    2c48:	4d 8f       	std	Y+29, r20	; 0x1d
    2c4a:	3e 8f       	std	Y+30, r19	; 0x1e
    2c4c:	1f 8e       	std	Y+31, r1	; 0x1f
    2c4e:	18 a2       	std	Y+32, r1	; 0x20
    2c50:	19 a2       	std	Y+33, r1	; 0x21
    2c52:	1a a2       	std	Y+34, r1	; 0x22
    2c54:	1b a2       	std	Y+35, r1	; 0x23
    2c56:	1c a2       	std	Y+36, r1	; 0x24
    2c58:	2d a3       	std	Y+37, r18	; 0x25
    2c5a:	9e a3       	std	Y+38, r25	; 0x26
    2c5c:	8f a3       	std	Y+39, r24	; 0x27
    2c5e:	28 a7       	std	Y+40, r18	; 0x28
    2c60:	99 a7       	std	Y+41, r25	; 0x29
    2c62:	8a a7       	std	Y+42, r24	; 0x2a
    2c64:	1b a6       	std	Y+43, r1	; 0x2b
    2c66:	1c a6       	std	Y+44, r1	; 0x2c
    2c68:	1d a6       	std	Y+45, r1	; 0x2d
    2c6a:	1e a6       	std	Y+46, r1	; 0x2e
    2c6c:	1f a6       	std	Y+47, r1	; 0x2f
    2c6e:	18 aa       	std	Y+48, r1	; 0x30
    2c70:	40 e3       	ldi	r20, 0x30	; 48
    2c72:	50 e0       	ldi	r21, 0x00	; 0
    2c74:	be 01       	movw	r22, r28
    2c76:	6f 5f       	subi	r22, 0xFF	; 255
    2c78:	7f 4f       	sbci	r23, 0xFF	; 255
    2c7a:	86 e8       	ldi	r24, 0x86	; 134
    2c7c:	9a e0       	ldi	r25, 0x0A	; 10
    2c7e:	0e 94 f0 45 	call	0x8be0	; 0x8be0 <memmove8>
    2c82:	e6 96       	adiw	r28, 0x36	; 54
    2c84:	0f b6       	in	r0, 0x3f	; 63
    2c86:	f8 94       	cli
    2c88:	de bf       	out	0x3e, r29	; 62
    2c8a:	0f be       	out	0x3f, r0	; 63
    2c8c:	cd bf       	out	0x3d, r28	; 61
    2c8e:	df 91       	pop	r29
    2c90:	cf 91       	pop	r28
    2c92:	1f 91       	pop	r17
    2c94:	08 95       	ret

00002c96 <FillLEDsFromPaletteColors(unsigned char)>:
    2c96:	df 92       	push	r13
    2c98:	ef 92       	push	r14
    2c9a:	ff 92       	push	r15
    2c9c:	0f 93       	push	r16
    2c9e:	1f 93       	push	r17
    2ca0:	cf 93       	push	r28
    2ca2:	df 93       	push	r29
    2ca4:	00 d0       	rcall	.+0      	; 0x2ca6 <FillLEDsFromPaletteColors(unsigned char)+0x10>
    2ca6:	1f 92       	push	r1
    2ca8:	cd b7       	in	r28, 0x3d	; 61
    2caa:	de b7       	in	r29, 0x3e	; 62
    2cac:	d8 2e       	mov	r13, r24
    2cae:	8b ed       	ldi	r24, 0xDB	; 219
    2cb0:	e8 2e       	mov	r14, r24
    2cb2:	8a e0       	ldi	r24, 0x0A	; 10
    2cb4:	f8 2e       	mov	r15, r24
    2cb6:	00 91 84 0a 	lds	r16, 0x0A84	; 0x800a84 <currentBlending>
    2cba:	10 91 85 0a 	lds	r17, 0x0A85	; 0x800a85 <currentBlending+0x1>
    2cbe:	2f ef       	ldi	r18, 0xFF	; 255
    2cc0:	4d 2d       	mov	r20, r13
    2cc2:	66 e8       	ldi	r22, 0x86	; 134
    2cc4:	7a e0       	ldi	r23, 0x0A	; 10
    2cc6:	ce 01       	movw	r24, r28
    2cc8:	01 96       	adiw	r24, 0x01	; 1
    2cca:	0e 94 18 42 	call	0x8430	; 0x8430 <ColorFromPalette(CRGBPalette16 const&, unsigned char, unsigned char, TBlendType)>
    2cce:	89 81       	ldd	r24, Y+1	; 0x01
    2cd0:	f7 01       	movw	r30, r14
    2cd2:	80 83       	st	Z, r24
    2cd4:	8a 81       	ldd	r24, Y+2	; 0x02
    2cd6:	81 83       	std	Z+1, r24	; 0x01
    2cd8:	8b 81       	ldd	r24, Y+3	; 0x03
    2cda:	82 83       	std	Z+2, r24	; 0x02
    2cdc:	f3 e0       	ldi	r31, 0x03	; 3
    2cde:	df 0e       	add	r13, r31
    2ce0:	83 e0       	ldi	r24, 0x03	; 3
    2ce2:	e8 0e       	add	r14, r24
    2ce4:	f1 1c       	adc	r15, r1
    2ce6:	ed e1       	ldi	r30, 0x1D	; 29
    2ce8:	ee 16       	cp	r14, r30
    2cea:	ee e0       	ldi	r30, 0x0E	; 14
    2cec:	fe 06       	cpc	r15, r30
    2cee:	19 f7       	brne	.-58     	; 0x2cb6 <FillLEDsFromPaletteColors(unsigned char)+0x20>
    2cf0:	0f 90       	pop	r0
    2cf2:	0f 90       	pop	r0
    2cf4:	0f 90       	pop	r0
    2cf6:	df 91       	pop	r29
    2cf8:	cf 91       	pop	r28
    2cfa:	1f 91       	pop	r17
    2cfc:	0f 91       	pop	r16
    2cfe:	ff 90       	pop	r15
    2d00:	ef 90       	pop	r14
    2d02:	df 90       	pop	r13
    2d04:	08 95       	ret

00002d06 <progPalette(unsigned int, unsigned char, unsigned char)>:
    2d06:	0f 93       	push	r16
    2d08:	1f 93       	push	r17
    2d0a:	cf 93       	push	r28
    2d0c:	df 93       	push	r29
    2d0e:	8c 01       	movw	r16, r24
    2d10:	c6 2f       	mov	r28, r22
    2d12:	d4 2f       	mov	r29, r20
    2d14:	80 91 c7 0a 	lds	r24, 0x0AC7	; 0x800ac7 <nextChangeMillisAlreadyCalculated>
    2d18:	81 11       	cpse	r24, r1
    2d1a:	43 c0       	rjmp	.+134    	; 0x2da2 <progPalette(unsigned int, unsigned char, unsigned char)+0x9c>
    2d1c:	61 e0       	ldi	r22, 0x01	; 1
    2d1e:	8a ed       	ldi	r24, 0xDA	; 218
    2d20:	90 e1       	ldi	r25, 0x10	; 16
    2d22:	0e 94 91 44 	call	0x8922	; 0x8922 <CFastLED::clear(bool)>
    2d26:	10 93 07 01 	sts	0x0107, r17	; 0x800107 <nextChangeMillis+0x1>
    2d2a:	00 93 06 01 	sts	0x0106, r16	; 0x800106 <nextChangeMillis>
    2d2e:	d0 93 c6 0a 	sts	0x0AC6, r29	; 0x800ac6 <nextSongPart>
    2d32:	81 e0       	ldi	r24, 0x01	; 1
    2d34:	80 93 c7 0a 	sts	0x0AC7, r24	; 0x800ac7 <nextChangeMillisAlreadyCalculated>
    2d38:	cc 30       	cpi	r28, 0x0C	; 12
    2d3a:	08 f0       	brcs	.+2      	; 0x2d3e <progPalette(unsigned int, unsigned char, unsigned char)+0x38>
    2d3c:	32 c0       	rjmp	.+100    	; 0x2da2 <progPalette(unsigned int, unsigned char, unsigned char)+0x9c>
    2d3e:	ec 2f       	mov	r30, r28
    2d40:	f0 e0       	ldi	r31, 0x00	; 0
    2d42:	eb 55       	subi	r30, 0x5B	; 91
    2d44:	f9 4e       	sbci	r31, 0xE9	; 233
    2d46:	0c 94 68 53 	jmp	0xa6d0	; 0xa6d0 <__tablejump2__>
    2d4a:	b1 16       	cp	r11, r17
    2d4c:	b8 16       	cp	r11, r24
    2d4e:	bf 16       	cp	r11, r31
    2d50:	c2 16       	cp	r12, r18
    2d52:	ca 16       	cp	r12, r26
    2d54:	cc 16       	cp	r12, r28
    2d56:	e9 16       	cp	r14, r25
    2d58:	eb 16       	cp	r14, r27
    2d5a:	ee 16       	cp	r14, r30
    2d5c:	f1 16       	cp	r15, r17
    2d5e:	f4 16       	cp	r15, r20
    2d60:	f7 16       	cp	r15, r23
    2d62:	68 e3       	ldi	r22, 0x38	; 56
    2d64:	7c e0       	ldi	r23, 0x0C	; 12
    2d66:	86 e8       	ldi	r24, 0x86	; 134
    2d68:	9a e0       	ldi	r25, 0x0A	; 10
    2d6a:	0e 94 7c 08 	call	0x10f8	; 0x10f8 <CRGBPalette16::operator=(unsigned long const (&) [16])>
    2d6e:	0b c0       	rjmp	.+22     	; 0x2d86 <progPalette(unsigned int, unsigned char, unsigned char)+0x80>
    2d70:	68 ef       	ldi	r22, 0xF8	; 248
    2d72:	7b e0       	ldi	r23, 0x0B	; 11
    2d74:	86 e8       	ldi	r24, 0x86	; 134
    2d76:	9a e0       	ldi	r25, 0x0A	; 10
    2d78:	0e 94 7c 08 	call	0x10f8	; 0x10f8 <CRGBPalette16::operator=(unsigned long const (&) [16])>
    2d7c:	0e c0       	rjmp	.+28     	; 0x2d9a <progPalette(unsigned int, unsigned char, unsigned char)+0x94>
    2d7e:	68 ef       	ldi	r22, 0xF8	; 248
    2d80:	7b e0       	ldi	r23, 0x0B	; 11
    2d82:	f1 cf       	rjmp	.-30     	; 0x2d66 <progPalette(unsigned int, unsigned char, unsigned char)+0x60>
    2d84:	1d df       	rcall	.-454    	; 0x2bc0 <SetupPurpleAndGreenPalette()>
    2d86:	81 e0       	ldi	r24, 0x01	; 1
    2d88:	90 e0       	ldi	r25, 0x00	; 0
    2d8a:	90 93 85 0a 	sts	0x0A85, r25	; 0x800a85 <currentBlending+0x1>
    2d8e:	80 93 84 0a 	sts	0x0A84, r24	; 0x800a84 <currentBlending>
    2d92:	07 c0       	rjmp	.+14     	; 0x2da2 <progPalette(unsigned int, unsigned char, unsigned char)+0x9c>
    2d94:	9f de       	rcall	.-706    	; 0x2ad4 <SetupTotallyRandomPalette()>
    2d96:	f7 cf       	rjmp	.-18     	; 0x2d86 <progPalette(unsigned int, unsigned char, unsigned char)+0x80>
    2d98:	ec de       	rcall	.-552    	; 0x2b72 <SetupBlackAndWhiteStripedPalette()>
    2d9a:	10 92 85 0a 	sts	0x0A85, r1	; 0x800a85 <currentBlending+0x1>
    2d9e:	10 92 84 0a 	sts	0x0A84, r1	; 0x800a84 <currentBlending>
    2da2:	80 91 be 0a 	lds	r24, 0x0ABE	; 0x800abe <zaehler>
    2da6:	90 91 bf 0a 	lds	r25, 0x0ABF	; 0x800abf <zaehler+0x1>
    2daa:	01 96       	adiw	r24, 0x01	; 1
    2dac:	89 3e       	cpi	r24, 0xE9	; 233
    2dae:	23 e0       	ldi	r18, 0x03	; 3
    2db0:	92 07       	cpc	r25, r18
    2db2:	04 f5       	brge	.+64     	; 0x2df4 <progPalette(unsigned int, unsigned char, unsigned char)+0xee>
    2db4:	90 93 bf 0a 	sts	0x0ABF, r25	; 0x800abf <zaehler+0x1>
    2db8:	80 93 be 0a 	sts	0x0ABE, r24	; 0x800abe <zaehler>
    2dbc:	80 91 be 0a 	lds	r24, 0x0ABE	; 0x800abe <zaehler>
    2dc0:	6a df       	rcall	.-300    	; 0x2c96 <FillLEDsFromPaletteColors(unsigned char)>
    2dc2:	8a ed       	ldi	r24, 0xDA	; 218
    2dc4:	90 e1       	ldi	r25, 0x10	; 16
    2dc6:	df 91       	pop	r29
    2dc8:	cf 91       	pop	r28
    2dca:	1f 91       	pop	r17
    2dcc:	0f 91       	pop	r16
    2dce:	0c 94 97 08 	jmp	0x112e	; 0x112e <CFastLED::show()>
    2dd2:	cf de       	rcall	.-610    	; 0x2b72 <SetupBlackAndWhiteStripedPalette()>
    2dd4:	d8 cf       	rjmp	.-80     	; 0x2d86 <progPalette(unsigned int, unsigned char, unsigned char)+0x80>
    2dd6:	68 e7       	ldi	r22, 0x78	; 120
    2dd8:	7c e0       	ldi	r23, 0x0C	; 12
    2dda:	c5 cf       	rjmp	.-118    	; 0x2d66 <progPalette(unsigned int, unsigned char, unsigned char)+0x60>
    2ddc:	68 eb       	ldi	r22, 0xB8	; 184
    2dde:	7b e0       	ldi	r23, 0x0B	; 11
    2de0:	c2 cf       	rjmp	.-124    	; 0x2d66 <progPalette(unsigned int, unsigned char, unsigned char)+0x60>
    2de2:	6f ec       	ldi	r22, 0xCF	; 207
    2de4:	75 e0       	ldi	r23, 0x05	; 5
    2de6:	c6 cf       	rjmp	.-116    	; 0x2d74 <progPalette(unsigned int, unsigned char, unsigned char)+0x6e>
    2de8:	6f ec       	ldi	r22, 0xCF	; 207
    2dea:	75 e0       	ldi	r23, 0x05	; 5
    2dec:	bc cf       	rjmp	.-136    	; 0x2d66 <progPalette(unsigned int, unsigned char, unsigned char)+0x60>
    2dee:	68 e9       	ldi	r22, 0x98	; 152
    2df0:	70 e0       	ldi	r23, 0x00	; 0
    2df2:	b9 cf       	rjmp	.-142    	; 0x2d66 <progPalette(unsigned int, unsigned char, unsigned char)+0x60>
    2df4:	10 92 bf 0a 	sts	0x0ABF, r1	; 0x800abf <zaehler+0x1>
    2df8:	10 92 be 0a 	sts	0x0ABE, r1	; 0x800abe <zaehler>
    2dfc:	df cf       	rjmp	.-66     	; 0x2dbc <progPalette(unsigned int, unsigned char, unsigned char)+0xb6>

00002dfe <getMatrixColor(int)>:
    2dfe:	dc 01       	movw	r26, r24
    2e00:	60 31       	cpi	r22, 0x10	; 16
    2e02:	71 05       	cpc	r23, r1
    2e04:	08 f0       	brcs	.+2      	; 0x2e08 <getMatrixColor(int)+0xa>
    2e06:	52 c0       	rjmp	.+164    	; 0x2eac <getMatrixColor(int)+0xae>
    2e08:	fb 01       	movw	r30, r22
    2e0a:	e7 5f       	subi	r30, 0xF7	; 247
    2e0c:	f8 4e       	sbci	r31, 0xE8	; 232
    2e0e:	0c 94 68 53 	jmp	0xa6d0	; 0xa6d0 <__tablejump2__>
    2e12:	56 17       	cp	r21, r22
    2e14:	19 17       	cp	r17, r25
    2e16:	19 17       	cp	r17, r25
    2e18:	24 17       	cp	r18, r20
    2e1a:	28 17       	cp	r18, r24
    2e1c:	2c 17       	cp	r18, r28
    2e1e:	30 17       	cp	r19, r16
    2e20:	34 17       	cp	r19, r20
    2e22:	38 17       	cp	r19, r24
    2e24:	3c 17       	cp	r19, r28
    2e26:	40 17       	cp	r20, r16
    2e28:	44 17       	cp	r20, r20
    2e2a:	48 17       	cp	r20, r24
    2e2c:	4a 17       	cp	r20, r26
    2e2e:	4e 17       	cp	r20, r30
    2e30:	50 17       	cp	r21, r16
    2e32:	81 e0       	ldi	r24, 0x01	; 1
    2e34:	8c 93       	st	X, r24
    2e36:	99 e1       	ldi	r25, 0x19	; 25
    2e38:	11 96       	adiw	r26, 0x01	; 1
    2e3a:	9c 93       	st	X, r25
    2e3c:	11 97       	sbiw	r26, 0x01	; 1
    2e3e:	12 96       	adiw	r26, 0x02	; 2
    2e40:	8c 93       	st	X, r24
    2e42:	12 97       	sbiw	r26, 0x02	; 2
    2e44:	cd 01       	movw	r24, r26
    2e46:	08 95       	ret
    2e48:	81 e0       	ldi	r24, 0x01	; 1
    2e4a:	8c 93       	st	X, r24
    2e4c:	98 e2       	ldi	r25, 0x28	; 40
    2e4e:	f4 cf       	rjmp	.-24     	; 0x2e38 <getMatrixColor(int)+0x3a>
    2e50:	81 e0       	ldi	r24, 0x01	; 1
    2e52:	8c 93       	st	X, r24
    2e54:	90 e5       	ldi	r25, 0x50	; 80
    2e56:	f0 cf       	rjmp	.-32     	; 0x2e38 <getMatrixColor(int)+0x3a>
    2e58:	81 e0       	ldi	r24, 0x01	; 1
    2e5a:	8c 93       	st	X, r24
    2e5c:	98 e7       	ldi	r25, 0x78	; 120
    2e5e:	ec cf       	rjmp	.-40     	; 0x2e38 <getMatrixColor(int)+0x3a>
    2e60:	81 e0       	ldi	r24, 0x01	; 1
    2e62:	8c 93       	st	X, r24
    2e64:	96 e9       	ldi	r25, 0x96	; 150
    2e66:	e8 cf       	rjmp	.-48     	; 0x2e38 <getMatrixColor(int)+0x3a>
    2e68:	81 e0       	ldi	r24, 0x01	; 1
    2e6a:	8c 93       	st	X, r24
    2e6c:	98 ec       	ldi	r25, 0xC8	; 200
    2e6e:	e4 cf       	rjmp	.-56     	; 0x2e38 <getMatrixColor(int)+0x3a>
    2e70:	85 e0       	ldi	r24, 0x05	; 5
    2e72:	8c 93       	st	X, r24
    2e74:	9f ef       	ldi	r25, 0xFF	; 255
    2e76:	e0 cf       	rjmp	.-64     	; 0x2e38 <getMatrixColor(int)+0x3a>
    2e78:	8a e0       	ldi	r24, 0x0A	; 10
    2e7a:	8c 93       	st	X, r24
    2e7c:	94 eb       	ldi	r25, 0xB4	; 180
    2e7e:	dc cf       	rjmp	.-72     	; 0x2e38 <getMatrixColor(int)+0x3a>
    2e80:	8a e0       	ldi	r24, 0x0A	; 10
    2e82:	8c 93       	st	X, r24
    2e84:	90 ea       	ldi	r25, 0xA0	; 160
    2e86:	d8 cf       	rjmp	.-80     	; 0x2e38 <getMatrixColor(int)+0x3a>
    2e88:	84 e1       	ldi	r24, 0x14	; 20
    2e8a:	8c 93       	st	X, r24
    2e8c:	9c e8       	ldi	r25, 0x8C	; 140
    2e8e:	d4 cf       	rjmp	.-88     	; 0x2e38 <getMatrixColor(int)+0x3a>
    2e90:	8e e1       	ldi	r24, 0x1E	; 30
    2e92:	e3 cf       	rjmp	.-58     	; 0x2e5a <getMatrixColor(int)+0x5c>
    2e94:	82 e3       	ldi	r24, 0x32	; 50
    2e96:	8c 93       	st	X, r24
    2e98:	94 e6       	ldi	r25, 0x64	; 100
    2e9a:	ce cf       	rjmp	.-100    	; 0x2e38 <getMatrixColor(int)+0x3a>
    2e9c:	84 e6       	ldi	r24, 0x64	; 100
    2e9e:	e1 cf       	rjmp	.-62     	; 0x2e62 <getMatrixColor(int)+0x64>
    2ea0:	84 eb       	ldi	r24, 0xB4	; 180
    2ea2:	8c 93       	st	X, r24
    2ea4:	11 96       	adiw	r26, 0x01	; 1
    2ea6:	8c 93       	st	X, r24
    2ea8:	11 97       	sbiw	r26, 0x01	; 1
    2eaa:	c9 cf       	rjmp	.-110    	; 0x2e3e <getMatrixColor(int)+0x40>
    2eac:	1c 92       	st	X, r1
    2eae:	11 96       	adiw	r26, 0x01	; 1
    2eb0:	1c 92       	st	X, r1
    2eb2:	11 97       	sbiw	r26, 0x01	; 1
    2eb4:	12 96       	adiw	r26, 0x02	; 2
    2eb6:	1c 92       	st	X, r1
    2eb8:	12 97       	sbiw	r26, 0x02	; 2
    2eba:	c4 cf       	rjmp	.-120    	; 0x2e44 <getMatrixColor(int)+0x46>

00002ebc <progMatrixHorizontal(unsigned int, unsigned char)>:
    2ebc:	cf 92       	push	r12
    2ebe:	df 92       	push	r13
    2ec0:	ef 92       	push	r14
    2ec2:	ff 92       	push	r15
    2ec4:	0f 93       	push	r16
    2ec6:	1f 93       	push	r17
    2ec8:	cf 93       	push	r28
    2eca:	df 93       	push	r29
    2ecc:	00 d0       	rcall	.+0      	; 0x2ece <progMatrixHorizontal(unsigned int, unsigned char)+0x12>
    2ece:	1f 92       	push	r1
    2ed0:	cd b7       	in	r28, 0x3d	; 61
    2ed2:	de b7       	in	r29, 0x3e	; 62
    2ed4:	7c 01       	movw	r14, r24
    2ed6:	16 2f       	mov	r17, r22
    2ed8:	80 91 c7 0a 	lds	r24, 0x0AC7	; 0x800ac7 <nextChangeMillisAlreadyCalculated>
    2edc:	81 11       	cpse	r24, r1
    2ede:	1e c0       	rjmp	.+60     	; 0x2f1c <progMatrixHorizontal(unsigned int, unsigned char)+0x60>
    2ee0:	61 e0       	ldi	r22, 0x01	; 1
    2ee2:	8a ed       	ldi	r24, 0xDA	; 218
    2ee4:	90 e1       	ldi	r25, 0x10	; 16
    2ee6:	0e 94 91 44 	call	0x8922	; 0x8922 <CFastLED::clear(bool)>
    2eea:	f0 92 07 01 	sts	0x0107, r15	; 0x800107 <nextChangeMillis+0x1>
    2eee:	e0 92 06 01 	sts	0x0106, r14	; 0x800106 <nextChangeMillis>
    2ef2:	10 93 c6 0a 	sts	0x0AC6, r17	; 0x800ac6 <nextSongPart>
    2ef6:	81 e0       	ldi	r24, 0x01	; 1
    2ef8:	80 93 c7 0a 	sts	0x0AC7, r24	; 0x800ac7 <nextChangeMillisAlreadyCalculated>
    2efc:	10 92 bf 0a 	sts	0x0ABF, r1	; 0x800abf <zaehler+0x1>
    2f00:	10 92 be 0a 	sts	0x0ABE, r1	; 0x800abe <zaehler>
    2f04:	8b e1       	ldi	r24, 0x1B	; 27
    2f06:	90 e0       	ldi	r25, 0x00	; 0
    2f08:	90 93 bd 0a 	sts	0x0ABD, r25	; 0x800abd <progMatrixZaehler+0x1>
    2f0c:	80 93 bc 0a 	sts	0x0ABC, r24	; 0x800abc <progMatrixZaehler>
    2f10:	84 e6       	ldi	r24, 0x64	; 100
    2f12:	90 e0       	ldi	r25, 0x00	; 0
    2f14:	90 93 ce 0a 	sts	0x0ACE, r25	; 0x800ace <millisCounterTimer+0x1>
    2f18:	80 93 cd 0a 	sts	0x0ACD, r24	; 0x800acd <millisCounterTimer>
    2f1c:	80 91 cd 0a 	lds	r24, 0x0ACD	; 0x800acd <millisCounterTimer>
    2f20:	90 91 ce 0a 	lds	r25, 0x0ACE	; 0x800ace <millisCounterTimer+0x1>
    2f24:	84 36       	cpi	r24, 0x64	; 100
    2f26:	91 05       	cpc	r25, r1
    2f28:	08 f4       	brcc	.+2      	; 0x2f2c <progMatrixHorizontal(unsigned int, unsigned char)+0x70>
    2f2a:	ce c3       	rjmp	.+1948   	; 0x36c8 <progMatrixHorizontal(unsigned int, unsigned char)+0x80c>
    2f2c:	10 92 ce 0a 	sts	0x0ACE, r1	; 0x800ace <millisCounterTimer+0x1>
    2f30:	10 92 cd 0a 	sts	0x0ACD, r1	; 0x800acd <millisCounterTimer>
    2f34:	e0 90 be 0a 	lds	r14, 0x0ABE	; 0x800abe <zaehler>
    2f38:	f0 90 bf 0a 	lds	r15, 0x0ABF	; 0x800abf <zaehler+0x1>
    2f3c:	00 e1       	ldi	r16, 0x10	; 16
    2f3e:	10 e0       	ldi	r17, 0x00	; 0
    2f40:	f7 fc       	sbrc	r15, 7
    2f42:	1c c0       	rjmp	.+56     	; 0x2f7c <progMatrixHorizontal(unsigned int, unsigned char)+0xc0>
    2f44:	01 50       	subi	r16, 0x01	; 1
    2f46:	11 09       	sbc	r17, r1
    2f48:	02 30       	cpi	r16, 0x02	; 2
    2f4a:	11 05       	cpc	r17, r1
    2f4c:	14 f4       	brge	.+4      	; 0x2f52 <progMatrixHorizontal(unsigned int, unsigned char)+0x96>
    2f4e:	10 e0       	ldi	r17, 0x00	; 0
    2f50:	00 e0       	ldi	r16, 0x00	; 0
    2f52:	c0 90 c9 10 	lds	r12, 0x10C9	; 0x8010c9 <matrix>
    2f56:	d0 90 ca 10 	lds	r13, 0x10CA	; 0x8010ca <matrix+0x1>
    2f5a:	b8 01       	movw	r22, r16
    2f5c:	ce 01       	movw	r24, r28
    2f5e:	01 96       	adiw	r24, 0x01	; 1
    2f60:	4e df       	rcall	.-356    	; 0x2dfe <getMatrixColor(int)>
    2f62:	9e 01       	movw	r18, r28
    2f64:	2f 5f       	subi	r18, 0xFF	; 255
    2f66:	3f 4f       	sbci	r19, 0xFF	; 255
    2f68:	a7 01       	movw	r20, r14
    2f6a:	70 e0       	ldi	r23, 0x00	; 0
    2f6c:	60 e0       	ldi	r22, 0x00	; 0
    2f6e:	c6 01       	movw	r24, r12
    2f70:	0e 94 ce 41 	call	0x839c	; 0x839c <Framebuffer_GFX::drawPixel(int, int, CRGB)>
    2f74:	81 e0       	ldi	r24, 0x01	; 1
    2f76:	e8 1a       	sub	r14, r24
    2f78:	f1 08       	sbc	r15, r1
    2f7a:	e2 cf       	rjmp	.-60     	; 0x2f40 <progMatrixHorizontal(unsigned int, unsigned char)+0x84>
    2f7c:	00 91 be 0a 	lds	r16, 0x0ABE	; 0x800abe <zaehler>
    2f80:	10 91 bf 0a 	lds	r17, 0x0ABF	; 0x800abf <zaehler+0x1>
    2f84:	04 51       	subi	r16, 0x14	; 20
    2f86:	11 09       	sbc	r17, r1
    2f88:	60 e1       	ldi	r22, 0x10	; 16
    2f8a:	e6 2e       	mov	r14, r22
    2f8c:	f1 2c       	mov	r15, r1
    2f8e:	0c 3e       	cpi	r16, 0xEC	; 236
    2f90:	8f ef       	ldi	r24, 0xFF	; 255
    2f92:	18 07       	cpc	r17, r24
    2f94:	ec f0       	brlt	.+58     	; 0x2fd0 <progMatrixHorizontal(unsigned int, unsigned char)+0x114>
    2f96:	81 e0       	ldi	r24, 0x01	; 1
    2f98:	e8 1a       	sub	r14, r24
    2f9a:	f1 08       	sbc	r15, r1
    2f9c:	82 e0       	ldi	r24, 0x02	; 2
    2f9e:	e8 16       	cp	r14, r24
    2fa0:	f1 04       	cpc	r15, r1
    2fa2:	14 f4       	brge	.+4      	; 0x2fa8 <progMatrixHorizontal(unsigned int, unsigned char)+0xec>
    2fa4:	f1 2c       	mov	r15, r1
    2fa6:	e1 2c       	mov	r14, r1
    2fa8:	c0 90 c9 10 	lds	r12, 0x10C9	; 0x8010c9 <matrix>
    2fac:	d0 90 ca 10 	lds	r13, 0x10CA	; 0x8010ca <matrix+0x1>
    2fb0:	b7 01       	movw	r22, r14
    2fb2:	ce 01       	movw	r24, r28
    2fb4:	01 96       	adiw	r24, 0x01	; 1
    2fb6:	23 df       	rcall	.-442    	; 0x2dfe <getMatrixColor(int)>
    2fb8:	9e 01       	movw	r18, r28
    2fba:	2f 5f       	subi	r18, 0xFF	; 255
    2fbc:	3f 4f       	sbci	r19, 0xFF	; 255
    2fbe:	a8 01       	movw	r20, r16
    2fc0:	62 e0       	ldi	r22, 0x02	; 2
    2fc2:	70 e0       	ldi	r23, 0x00	; 0
    2fc4:	c6 01       	movw	r24, r12
    2fc6:	0e 94 ce 41 	call	0x839c	; 0x839c <Framebuffer_GFX::drawPixel(int, int, CRGB)>
    2fca:	01 50       	subi	r16, 0x01	; 1
    2fcc:	11 09       	sbc	r17, r1
    2fce:	df cf       	rjmp	.-66     	; 0x2f8e <progMatrixHorizontal(unsigned int, unsigned char)+0xd2>
    2fd0:	00 91 be 0a 	lds	r16, 0x0ABE	; 0x800abe <zaehler>
    2fd4:	10 91 bf 0a 	lds	r17, 0x0ABF	; 0x800abf <zaehler+0x1>
    2fd8:	0f 50       	subi	r16, 0x0F	; 15
    2fda:	11 09       	sbc	r17, r1
    2fdc:	50 e1       	ldi	r21, 0x10	; 16
    2fde:	e5 2e       	mov	r14, r21
    2fe0:	f1 2c       	mov	r15, r1
    2fe2:	01 3f       	cpi	r16, 0xF1	; 241
    2fe4:	8f ef       	ldi	r24, 0xFF	; 255
    2fe6:	18 07       	cpc	r17, r24
    2fe8:	ec f0       	brlt	.+58     	; 0x3024 <progMatrixHorizontal(unsigned int, unsigned char)+0x168>
    2fea:	81 e0       	ldi	r24, 0x01	; 1
    2fec:	e8 1a       	sub	r14, r24
    2fee:	f1 08       	sbc	r15, r1
    2ff0:	82 e0       	ldi	r24, 0x02	; 2
    2ff2:	e8 16       	cp	r14, r24
    2ff4:	f1 04       	cpc	r15, r1
    2ff6:	14 f4       	brge	.+4      	; 0x2ffc <progMatrixHorizontal(unsigned int, unsigned char)+0x140>
    2ff8:	f1 2c       	mov	r15, r1
    2ffa:	e1 2c       	mov	r14, r1
    2ffc:	c0 90 c9 10 	lds	r12, 0x10C9	; 0x8010c9 <matrix>
    3000:	d0 90 ca 10 	lds	r13, 0x10CA	; 0x8010ca <matrix+0x1>
    3004:	b7 01       	movw	r22, r14
    3006:	ce 01       	movw	r24, r28
    3008:	01 96       	adiw	r24, 0x01	; 1
    300a:	f9 de       	rcall	.-526    	; 0x2dfe <getMatrixColor(int)>
    300c:	9e 01       	movw	r18, r28
    300e:	2f 5f       	subi	r18, 0xFF	; 255
    3010:	3f 4f       	sbci	r19, 0xFF	; 255
    3012:	a8 01       	movw	r20, r16
    3014:	64 e0       	ldi	r22, 0x04	; 4
    3016:	70 e0       	ldi	r23, 0x00	; 0
    3018:	c6 01       	movw	r24, r12
    301a:	0e 94 ce 41 	call	0x839c	; 0x839c <Framebuffer_GFX::drawPixel(int, int, CRGB)>
    301e:	01 50       	subi	r16, 0x01	; 1
    3020:	11 09       	sbc	r17, r1
    3022:	df cf       	rjmp	.-66     	; 0x2fe2 <progMatrixHorizontal(unsigned int, unsigned char)+0x126>
    3024:	00 91 be 0a 	lds	r16, 0x0ABE	; 0x800abe <zaehler>
    3028:	10 91 bf 0a 	lds	r17, 0x0ABF	; 0x800abf <zaehler+0x1>
    302c:	08 50       	subi	r16, 0x08	; 8
    302e:	11 09       	sbc	r17, r1
    3030:	40 e1       	ldi	r20, 0x10	; 16
    3032:	e4 2e       	mov	r14, r20
    3034:	f1 2c       	mov	r15, r1
    3036:	08 3f       	cpi	r16, 0xF8	; 248
    3038:	8f ef       	ldi	r24, 0xFF	; 255
    303a:	18 07       	cpc	r17, r24
    303c:	ec f0       	brlt	.+58     	; 0x3078 <progMatrixHorizontal(unsigned int, unsigned char)+0x1bc>
    303e:	81 e0       	ldi	r24, 0x01	; 1
    3040:	e8 1a       	sub	r14, r24
    3042:	f1 08       	sbc	r15, r1
    3044:	82 e0       	ldi	r24, 0x02	; 2
    3046:	e8 16       	cp	r14, r24
    3048:	f1 04       	cpc	r15, r1
    304a:	14 f4       	brge	.+4      	; 0x3050 <progMatrixHorizontal(unsigned int, unsigned char)+0x194>
    304c:	f1 2c       	mov	r15, r1
    304e:	e1 2c       	mov	r14, r1
    3050:	c0 90 c9 10 	lds	r12, 0x10C9	; 0x8010c9 <matrix>
    3054:	d0 90 ca 10 	lds	r13, 0x10CA	; 0x8010ca <matrix+0x1>
    3058:	b7 01       	movw	r22, r14
    305a:	ce 01       	movw	r24, r28
    305c:	01 96       	adiw	r24, 0x01	; 1
    305e:	cf de       	rcall	.-610    	; 0x2dfe <getMatrixColor(int)>
    3060:	9e 01       	movw	r18, r28
    3062:	2f 5f       	subi	r18, 0xFF	; 255
    3064:	3f 4f       	sbci	r19, 0xFF	; 255
    3066:	a8 01       	movw	r20, r16
    3068:	66 e0       	ldi	r22, 0x06	; 6
    306a:	70 e0       	ldi	r23, 0x00	; 0
    306c:	c6 01       	movw	r24, r12
    306e:	0e 94 ce 41 	call	0x839c	; 0x839c <Framebuffer_GFX::drawPixel(int, int, CRGB)>
    3072:	01 50       	subi	r16, 0x01	; 1
    3074:	11 09       	sbc	r17, r1
    3076:	df cf       	rjmp	.-66     	; 0x3036 <progMatrixHorizontal(unsigned int, unsigned char)+0x17a>
    3078:	e0 90 be 0a 	lds	r14, 0x0ABE	; 0x800abe <zaehler>
    307c:	f0 90 bf 0a 	lds	r15, 0x0ABF	; 0x800abf <zaehler+0x1>
    3080:	00 e1       	ldi	r16, 0x10	; 16
    3082:	10 e0       	ldi	r17, 0x00	; 0
    3084:	f7 fc       	sbrc	r15, 7
    3086:	1c c0       	rjmp	.+56     	; 0x30c0 <progMatrixHorizontal(unsigned int, unsigned char)+0x204>
    3088:	01 50       	subi	r16, 0x01	; 1
    308a:	11 09       	sbc	r17, r1
    308c:	02 30       	cpi	r16, 0x02	; 2
    308e:	11 05       	cpc	r17, r1
    3090:	14 f4       	brge	.+4      	; 0x3096 <progMatrixHorizontal(unsigned int, unsigned char)+0x1da>
    3092:	10 e0       	ldi	r17, 0x00	; 0
    3094:	00 e0       	ldi	r16, 0x00	; 0
    3096:	c0 90 c9 10 	lds	r12, 0x10C9	; 0x8010c9 <matrix>
    309a:	d0 90 ca 10 	lds	r13, 0x10CA	; 0x8010ca <matrix+0x1>
    309e:	b8 01       	movw	r22, r16
    30a0:	ce 01       	movw	r24, r28
    30a2:	01 96       	adiw	r24, 0x01	; 1
    30a4:	ac de       	rcall	.-680    	; 0x2dfe <getMatrixColor(int)>
    30a6:	9e 01       	movw	r18, r28
    30a8:	2f 5f       	subi	r18, 0xFF	; 255
    30aa:	3f 4f       	sbci	r19, 0xFF	; 255
    30ac:	a7 01       	movw	r20, r14
    30ae:	68 e0       	ldi	r22, 0x08	; 8
    30b0:	70 e0       	ldi	r23, 0x00	; 0
    30b2:	c6 01       	movw	r24, r12
    30b4:	0e 94 ce 41 	call	0x839c	; 0x839c <Framebuffer_GFX::drawPixel(int, int, CRGB)>
    30b8:	81 e0       	ldi	r24, 0x01	; 1
    30ba:	e8 1a       	sub	r14, r24
    30bc:	f1 08       	sbc	r15, r1
    30be:	e2 cf       	rjmp	.-60     	; 0x3084 <progMatrixHorizontal(unsigned int, unsigned char)+0x1c8>
    30c0:	00 91 be 0a 	lds	r16, 0x0ABE	; 0x800abe <zaehler>
    30c4:	10 91 bf 0a 	lds	r17, 0x0ABF	; 0x800abf <zaehler+0x1>
    30c8:	0e 50       	subi	r16, 0x0E	; 14
    30ca:	11 09       	sbc	r17, r1
    30cc:	30 e1       	ldi	r19, 0x10	; 16
    30ce:	e3 2e       	mov	r14, r19
    30d0:	f1 2c       	mov	r15, r1
    30d2:	02 3f       	cpi	r16, 0xF2	; 242
    30d4:	8f ef       	ldi	r24, 0xFF	; 255
    30d6:	18 07       	cpc	r17, r24
    30d8:	ec f0       	brlt	.+58     	; 0x3114 <progMatrixHorizontal(unsigned int, unsigned char)+0x258>
    30da:	81 e0       	ldi	r24, 0x01	; 1
    30dc:	e8 1a       	sub	r14, r24
    30de:	f1 08       	sbc	r15, r1
    30e0:	82 e0       	ldi	r24, 0x02	; 2
    30e2:	e8 16       	cp	r14, r24
    30e4:	f1 04       	cpc	r15, r1
    30e6:	14 f4       	brge	.+4      	; 0x30ec <progMatrixHorizontal(unsigned int, unsigned char)+0x230>
    30e8:	f1 2c       	mov	r15, r1
    30ea:	e1 2c       	mov	r14, r1
    30ec:	c0 90 c9 10 	lds	r12, 0x10C9	; 0x8010c9 <matrix>
    30f0:	d0 90 ca 10 	lds	r13, 0x10CA	; 0x8010ca <matrix+0x1>
    30f4:	b7 01       	movw	r22, r14
    30f6:	ce 01       	movw	r24, r28
    30f8:	01 96       	adiw	r24, 0x01	; 1
    30fa:	81 de       	rcall	.-766    	; 0x2dfe <getMatrixColor(int)>
    30fc:	9e 01       	movw	r18, r28
    30fe:	2f 5f       	subi	r18, 0xFF	; 255
    3100:	3f 4f       	sbci	r19, 0xFF	; 255
    3102:	a8 01       	movw	r20, r16
    3104:	6a e0       	ldi	r22, 0x0A	; 10
    3106:	70 e0       	ldi	r23, 0x00	; 0
    3108:	c6 01       	movw	r24, r12
    310a:	0e 94 ce 41 	call	0x839c	; 0x839c <Framebuffer_GFX::drawPixel(int, int, CRGB)>
    310e:	01 50       	subi	r16, 0x01	; 1
    3110:	11 09       	sbc	r17, r1
    3112:	df cf       	rjmp	.-66     	; 0x30d2 <progMatrixHorizontal(unsigned int, unsigned char)+0x216>
    3114:	00 91 be 0a 	lds	r16, 0x0ABE	; 0x800abe <zaehler>
    3118:	10 91 bf 0a 	lds	r17, 0x0ABF	; 0x800abf <zaehler+0x1>
    311c:	05 51       	subi	r16, 0x15	; 21
    311e:	11 09       	sbc	r17, r1
    3120:	20 e1       	ldi	r18, 0x10	; 16
    3122:	e2 2e       	mov	r14, r18
    3124:	f1 2c       	mov	r15, r1
    3126:	0b 3e       	cpi	r16, 0xEB	; 235
    3128:	8f ef       	ldi	r24, 0xFF	; 255
    312a:	18 07       	cpc	r17, r24
    312c:	ec f0       	brlt	.+58     	; 0x3168 <progMatrixHorizontal(unsigned int, unsigned char)+0x2ac>
    312e:	81 e0       	ldi	r24, 0x01	; 1
    3130:	e8 1a       	sub	r14, r24
    3132:	f1 08       	sbc	r15, r1
    3134:	82 e0       	ldi	r24, 0x02	; 2
    3136:	e8 16       	cp	r14, r24
    3138:	f1 04       	cpc	r15, r1
    313a:	14 f4       	brge	.+4      	; 0x3140 <progMatrixHorizontal(unsigned int, unsigned char)+0x284>
    313c:	f1 2c       	mov	r15, r1
    313e:	e1 2c       	mov	r14, r1
    3140:	c0 90 c9 10 	lds	r12, 0x10C9	; 0x8010c9 <matrix>
    3144:	d0 90 ca 10 	lds	r13, 0x10CA	; 0x8010ca <matrix+0x1>
    3148:	b7 01       	movw	r22, r14
    314a:	ce 01       	movw	r24, r28
    314c:	01 96       	adiw	r24, 0x01	; 1
    314e:	57 de       	rcall	.-850    	; 0x2dfe <getMatrixColor(int)>
    3150:	9e 01       	movw	r18, r28
    3152:	2f 5f       	subi	r18, 0xFF	; 255
    3154:	3f 4f       	sbci	r19, 0xFF	; 255
    3156:	a8 01       	movw	r20, r16
    3158:	6c e0       	ldi	r22, 0x0C	; 12
    315a:	70 e0       	ldi	r23, 0x00	; 0
    315c:	c6 01       	movw	r24, r12
    315e:	0e 94 ce 41 	call	0x839c	; 0x839c <Framebuffer_GFX::drawPixel(int, int, CRGB)>
    3162:	01 50       	subi	r16, 0x01	; 1
    3164:	11 09       	sbc	r17, r1
    3166:	df cf       	rjmp	.-66     	; 0x3126 <progMatrixHorizontal(unsigned int, unsigned char)+0x26a>
    3168:	00 91 be 0a 	lds	r16, 0x0ABE	; 0x800abe <zaehler>
    316c:	10 91 bf 0a 	lds	r17, 0x0ABF	; 0x800abf <zaehler+0x1>
    3170:	09 50       	subi	r16, 0x09	; 9
    3172:	11 09       	sbc	r17, r1
    3174:	90 e1       	ldi	r25, 0x10	; 16
    3176:	e9 2e       	mov	r14, r25
    3178:	f1 2c       	mov	r15, r1
    317a:	07 3f       	cpi	r16, 0xF7	; 247
    317c:	8f ef       	ldi	r24, 0xFF	; 255
    317e:	18 07       	cpc	r17, r24
    3180:	ec f0       	brlt	.+58     	; 0x31bc <progMatrixHorizontal(unsigned int, unsigned char)+0x300>
    3182:	81 e0       	ldi	r24, 0x01	; 1
    3184:	e8 1a       	sub	r14, r24
    3186:	f1 08       	sbc	r15, r1
    3188:	82 e0       	ldi	r24, 0x02	; 2
    318a:	e8 16       	cp	r14, r24
    318c:	f1 04       	cpc	r15, r1
    318e:	14 f4       	brge	.+4      	; 0x3194 <progMatrixHorizontal(unsigned int, unsigned char)+0x2d8>
    3190:	f1 2c       	mov	r15, r1
    3192:	e1 2c       	mov	r14, r1
    3194:	c0 90 c9 10 	lds	r12, 0x10C9	; 0x8010c9 <matrix>
    3198:	d0 90 ca 10 	lds	r13, 0x10CA	; 0x8010ca <matrix+0x1>
    319c:	b7 01       	movw	r22, r14
    319e:	ce 01       	movw	r24, r28
    31a0:	01 96       	adiw	r24, 0x01	; 1
    31a2:	2d de       	rcall	.-934    	; 0x2dfe <getMatrixColor(int)>
    31a4:	9e 01       	movw	r18, r28
    31a6:	2f 5f       	subi	r18, 0xFF	; 255
    31a8:	3f 4f       	sbci	r19, 0xFF	; 255
    31aa:	a8 01       	movw	r20, r16
    31ac:	6e e0       	ldi	r22, 0x0E	; 14
    31ae:	70 e0       	ldi	r23, 0x00	; 0
    31b0:	c6 01       	movw	r24, r12
    31b2:	0e 94 ce 41 	call	0x839c	; 0x839c <Framebuffer_GFX::drawPixel(int, int, CRGB)>
    31b6:	01 50       	subi	r16, 0x01	; 1
    31b8:	11 09       	sbc	r17, r1
    31ba:	df cf       	rjmp	.-66     	; 0x317a <progMatrixHorizontal(unsigned int, unsigned char)+0x2be>
    31bc:	00 91 be 0a 	lds	r16, 0x0ABE	; 0x800abe <zaehler>
    31c0:	10 91 bf 0a 	lds	r17, 0x0ABF	; 0x800abf <zaehler+0x1>
    31c4:	01 50       	subi	r16, 0x01	; 1
    31c6:	11 09       	sbc	r17, r1
    31c8:	80 e1       	ldi	r24, 0x10	; 16
    31ca:	e8 2e       	mov	r14, r24
    31cc:	f1 2c       	mov	r15, r1
    31ce:	0f 3f       	cpi	r16, 0xFF	; 255
    31d0:	8f ef       	ldi	r24, 0xFF	; 255
    31d2:	18 07       	cpc	r17, r24
    31d4:	ec f0       	brlt	.+58     	; 0x3210 <progMatrixHorizontal(unsigned int, unsigned char)+0x354>
    31d6:	81 e0       	ldi	r24, 0x01	; 1
    31d8:	e8 1a       	sub	r14, r24
    31da:	f1 08       	sbc	r15, r1
    31dc:	82 e0       	ldi	r24, 0x02	; 2
    31de:	e8 16       	cp	r14, r24
    31e0:	f1 04       	cpc	r15, r1
    31e2:	14 f4       	brge	.+4      	; 0x31e8 <progMatrixHorizontal(unsigned int, unsigned char)+0x32c>
    31e4:	f1 2c       	mov	r15, r1
    31e6:	e1 2c       	mov	r14, r1
    31e8:	c0 90 c9 10 	lds	r12, 0x10C9	; 0x8010c9 <matrix>
    31ec:	d0 90 ca 10 	lds	r13, 0x10CA	; 0x8010ca <matrix+0x1>
    31f0:	b7 01       	movw	r22, r14
    31f2:	ce 01       	movw	r24, r28
    31f4:	01 96       	adiw	r24, 0x01	; 1
    31f6:	03 de       	rcall	.-1018   	; 0x2dfe <getMatrixColor(int)>
    31f8:	9e 01       	movw	r18, r28
    31fa:	2f 5f       	subi	r18, 0xFF	; 255
    31fc:	3f 4f       	sbci	r19, 0xFF	; 255
    31fe:	a8 01       	movw	r20, r16
    3200:	60 e1       	ldi	r22, 0x10	; 16
    3202:	70 e0       	ldi	r23, 0x00	; 0
    3204:	c6 01       	movw	r24, r12
    3206:	0e 94 ce 41 	call	0x839c	; 0x839c <Framebuffer_GFX::drawPixel(int, int, CRGB)>
    320a:	01 50       	subi	r16, 0x01	; 1
    320c:	11 09       	sbc	r17, r1
    320e:	df cf       	rjmp	.-66     	; 0x31ce <progMatrixHorizontal(unsigned int, unsigned char)+0x312>
    3210:	00 91 be 0a 	lds	r16, 0x0ABE	; 0x800abe <zaehler>
    3214:	10 91 bf 0a 	lds	r17, 0x0ABF	; 0x800abf <zaehler+0x1>
    3218:	00 51       	subi	r16, 0x10	; 16
    321a:	11 09       	sbc	r17, r1
    321c:	b0 e1       	ldi	r27, 0x10	; 16
    321e:	eb 2e       	mov	r14, r27
    3220:	f1 2c       	mov	r15, r1
    3222:	00 3f       	cpi	r16, 0xF0	; 240
    3224:	8f ef       	ldi	r24, 0xFF	; 255
    3226:	18 07       	cpc	r17, r24
    3228:	ec f0       	brlt	.+58     	; 0x3264 <progMatrixHorizontal(unsigned int, unsigned char)+0x3a8>
    322a:	81 e0       	ldi	r24, 0x01	; 1
    322c:	e8 1a       	sub	r14, r24
    322e:	f1 08       	sbc	r15, r1
    3230:	82 e0       	ldi	r24, 0x02	; 2
    3232:	e8 16       	cp	r14, r24
    3234:	f1 04       	cpc	r15, r1
    3236:	14 f4       	brge	.+4      	; 0x323c <progMatrixHorizontal(unsigned int, unsigned char)+0x380>
    3238:	f1 2c       	mov	r15, r1
    323a:	e1 2c       	mov	r14, r1
    323c:	c0 90 c9 10 	lds	r12, 0x10C9	; 0x8010c9 <matrix>
    3240:	d0 90 ca 10 	lds	r13, 0x10CA	; 0x8010ca <matrix+0x1>
    3244:	b7 01       	movw	r22, r14
    3246:	ce 01       	movw	r24, r28
    3248:	01 96       	adiw	r24, 0x01	; 1
    324a:	d9 dd       	rcall	.-1102   	; 0x2dfe <getMatrixColor(int)>
    324c:	9e 01       	movw	r18, r28
    324e:	2f 5f       	subi	r18, 0xFF	; 255
    3250:	3f 4f       	sbci	r19, 0xFF	; 255
    3252:	a8 01       	movw	r20, r16
    3254:	62 e1       	ldi	r22, 0x12	; 18
    3256:	70 e0       	ldi	r23, 0x00	; 0
    3258:	c6 01       	movw	r24, r12
    325a:	0e 94 ce 41 	call	0x839c	; 0x839c <Framebuffer_GFX::drawPixel(int, int, CRGB)>
    325e:	01 50       	subi	r16, 0x01	; 1
    3260:	11 09       	sbc	r17, r1
    3262:	df cf       	rjmp	.-66     	; 0x3222 <progMatrixHorizontal(unsigned int, unsigned char)+0x366>
    3264:	00 91 be 0a 	lds	r16, 0x0ABE	; 0x800abe <zaehler>
    3268:	10 91 bf 0a 	lds	r17, 0x0ABF	; 0x800abf <zaehler+0x1>
    326c:	07 51       	subi	r16, 0x17	; 23
    326e:	11 09       	sbc	r17, r1
    3270:	a0 e1       	ldi	r26, 0x10	; 16
    3272:	ea 2e       	mov	r14, r26
    3274:	f1 2c       	mov	r15, r1
    3276:	09 3e       	cpi	r16, 0xE9	; 233
    3278:	8f ef       	ldi	r24, 0xFF	; 255
    327a:	18 07       	cpc	r17, r24
    327c:	ec f0       	brlt	.+58     	; 0x32b8 <progMatrixHorizontal(unsigned int, unsigned char)+0x3fc>
    327e:	81 e0       	ldi	r24, 0x01	; 1
    3280:	e8 1a       	sub	r14, r24
    3282:	f1 08       	sbc	r15, r1
    3284:	82 e0       	ldi	r24, 0x02	; 2
    3286:	e8 16       	cp	r14, r24
    3288:	f1 04       	cpc	r15, r1
    328a:	14 f4       	brge	.+4      	; 0x3290 <progMatrixHorizontal(unsigned int, unsigned char)+0x3d4>
    328c:	f1 2c       	mov	r15, r1
    328e:	e1 2c       	mov	r14, r1
    3290:	c0 90 c9 10 	lds	r12, 0x10C9	; 0x8010c9 <matrix>
    3294:	d0 90 ca 10 	lds	r13, 0x10CA	; 0x8010ca <matrix+0x1>
    3298:	b7 01       	movw	r22, r14
    329a:	ce 01       	movw	r24, r28
    329c:	01 96       	adiw	r24, 0x01	; 1
    329e:	af dd       	rcall	.-1186   	; 0x2dfe <getMatrixColor(int)>
    32a0:	9e 01       	movw	r18, r28
    32a2:	2f 5f       	subi	r18, 0xFF	; 255
    32a4:	3f 4f       	sbci	r19, 0xFF	; 255
    32a6:	a8 01       	movw	r20, r16
    32a8:	64 e1       	ldi	r22, 0x14	; 20
    32aa:	70 e0       	ldi	r23, 0x00	; 0
    32ac:	c6 01       	movw	r24, r12
    32ae:	0e 94 ce 41 	call	0x839c	; 0x839c <Framebuffer_GFX::drawPixel(int, int, CRGB)>
    32b2:	01 50       	subi	r16, 0x01	; 1
    32b4:	11 09       	sbc	r17, r1
    32b6:	df cf       	rjmp	.-66     	; 0x3276 <progMatrixHorizontal(unsigned int, unsigned char)+0x3ba>
    32b8:	00 91 be 0a 	lds	r16, 0x0ABE	; 0x800abe <zaehler>
    32bc:	10 91 bf 0a 	lds	r17, 0x0ABF	; 0x800abf <zaehler+0x1>
    32c0:	0b 50       	subi	r16, 0x0B	; 11
    32c2:	11 09       	sbc	r17, r1
    32c4:	f0 e1       	ldi	r31, 0x10	; 16
    32c6:	ef 2e       	mov	r14, r31
    32c8:	f1 2c       	mov	r15, r1
    32ca:	05 3f       	cpi	r16, 0xF5	; 245
    32cc:	8f ef       	ldi	r24, 0xFF	; 255
    32ce:	18 07       	cpc	r17, r24
    32d0:	ec f0       	brlt	.+58     	; 0x330c <progMatrixHorizontal(unsigned int, unsigned char)+0x450>
    32d2:	81 e0       	ldi	r24, 0x01	; 1
    32d4:	e8 1a       	sub	r14, r24
    32d6:	f1 08       	sbc	r15, r1
    32d8:	82 e0       	ldi	r24, 0x02	; 2
    32da:	e8 16       	cp	r14, r24
    32dc:	f1 04       	cpc	r15, r1
    32de:	14 f4       	brge	.+4      	; 0x32e4 <progMatrixHorizontal(unsigned int, unsigned char)+0x428>
    32e0:	f1 2c       	mov	r15, r1
    32e2:	e1 2c       	mov	r14, r1
    32e4:	c0 90 c9 10 	lds	r12, 0x10C9	; 0x8010c9 <matrix>
    32e8:	d0 90 ca 10 	lds	r13, 0x10CA	; 0x8010ca <matrix+0x1>
    32ec:	b7 01       	movw	r22, r14
    32ee:	ce 01       	movw	r24, r28
    32f0:	01 96       	adiw	r24, 0x01	; 1
    32f2:	85 dd       	rcall	.-1270   	; 0x2dfe <getMatrixColor(int)>
    32f4:	9e 01       	movw	r18, r28
    32f6:	2f 5f       	subi	r18, 0xFF	; 255
    32f8:	3f 4f       	sbci	r19, 0xFF	; 255
    32fa:	a8 01       	movw	r20, r16
    32fc:	66 e1       	ldi	r22, 0x16	; 22
    32fe:	70 e0       	ldi	r23, 0x00	; 0
    3300:	c6 01       	movw	r24, r12
    3302:	0e 94 ce 41 	call	0x839c	; 0x839c <Framebuffer_GFX::drawPixel(int, int, CRGB)>
    3306:	01 50       	subi	r16, 0x01	; 1
    3308:	11 09       	sbc	r17, r1
    330a:	df cf       	rjmp	.-66     	; 0x32ca <progMatrixHorizontal(unsigned int, unsigned char)+0x40e>
    330c:	e0 90 bc 0a 	lds	r14, 0x0ABC	; 0x800abc <progMatrixZaehler>
    3310:	f0 90 bd 0a 	lds	r15, 0x0ABD	; 0x800abd <progMatrixZaehler+0x1>
    3314:	00 e1       	ldi	r16, 0x10	; 16
    3316:	10 e0       	ldi	r17, 0x00	; 0
    3318:	f7 fc       	sbrc	r15, 7
    331a:	1c c0       	rjmp	.+56     	; 0x3354 <progMatrixHorizontal(unsigned int, unsigned char)+0x498>
    331c:	01 50       	subi	r16, 0x01	; 1
    331e:	11 09       	sbc	r17, r1
    3320:	02 30       	cpi	r16, 0x02	; 2
    3322:	11 05       	cpc	r17, r1
    3324:	14 f4       	brge	.+4      	; 0x332a <progMatrixHorizontal(unsigned int, unsigned char)+0x46e>
    3326:	10 e0       	ldi	r17, 0x00	; 0
    3328:	00 e0       	ldi	r16, 0x00	; 0
    332a:	c0 90 c9 10 	lds	r12, 0x10C9	; 0x8010c9 <matrix>
    332e:	d0 90 ca 10 	lds	r13, 0x10CA	; 0x8010ca <matrix+0x1>
    3332:	b8 01       	movw	r22, r16
    3334:	ce 01       	movw	r24, r28
    3336:	01 96       	adiw	r24, 0x01	; 1
    3338:	62 dd       	rcall	.-1340   	; 0x2dfe <getMatrixColor(int)>
    333a:	9e 01       	movw	r18, r28
    333c:	2f 5f       	subi	r18, 0xFF	; 255
    333e:	3f 4f       	sbci	r19, 0xFF	; 255
    3340:	a7 01       	movw	r20, r14
    3342:	61 e0       	ldi	r22, 0x01	; 1
    3344:	70 e0       	ldi	r23, 0x00	; 0
    3346:	c6 01       	movw	r24, r12
    3348:	0e 94 ce 41 	call	0x839c	; 0x839c <Framebuffer_GFX::drawPixel(int, int, CRGB)>
    334c:	81 e0       	ldi	r24, 0x01	; 1
    334e:	e8 1a       	sub	r14, r24
    3350:	f1 08       	sbc	r15, r1
    3352:	e2 cf       	rjmp	.-60     	; 0x3318 <progMatrixHorizontal(unsigned int, unsigned char)+0x45c>
    3354:	00 91 bc 0a 	lds	r16, 0x0ABC	; 0x800abc <progMatrixZaehler>
    3358:	10 91 bd 0a 	lds	r17, 0x0ABD	; 0x800abd <progMatrixZaehler+0x1>
    335c:	04 51       	subi	r16, 0x14	; 20
    335e:	11 09       	sbc	r17, r1
    3360:	e0 e1       	ldi	r30, 0x10	; 16
    3362:	ee 2e       	mov	r14, r30
    3364:	f1 2c       	mov	r15, r1
    3366:	0c 3e       	cpi	r16, 0xEC	; 236
    3368:	8f ef       	ldi	r24, 0xFF	; 255
    336a:	18 07       	cpc	r17, r24
    336c:	ec f0       	brlt	.+58     	; 0x33a8 <progMatrixHorizontal(unsigned int, unsigned char)+0x4ec>
    336e:	81 e0       	ldi	r24, 0x01	; 1
    3370:	e8 1a       	sub	r14, r24
    3372:	f1 08       	sbc	r15, r1
    3374:	82 e0       	ldi	r24, 0x02	; 2
    3376:	e8 16       	cp	r14, r24
    3378:	f1 04       	cpc	r15, r1
    337a:	14 f4       	brge	.+4      	; 0x3380 <progMatrixHorizontal(unsigned int, unsigned char)+0x4c4>
    337c:	f1 2c       	mov	r15, r1
    337e:	e1 2c       	mov	r14, r1
    3380:	c0 90 c9 10 	lds	r12, 0x10C9	; 0x8010c9 <matrix>
    3384:	d0 90 ca 10 	lds	r13, 0x10CA	; 0x8010ca <matrix+0x1>
    3388:	b7 01       	movw	r22, r14
    338a:	ce 01       	movw	r24, r28
    338c:	01 96       	adiw	r24, 0x01	; 1
    338e:	37 dd       	rcall	.-1426   	; 0x2dfe <getMatrixColor(int)>
    3390:	9e 01       	movw	r18, r28
    3392:	2f 5f       	subi	r18, 0xFF	; 255
    3394:	3f 4f       	sbci	r19, 0xFF	; 255
    3396:	a8 01       	movw	r20, r16
    3398:	63 e0       	ldi	r22, 0x03	; 3
    339a:	70 e0       	ldi	r23, 0x00	; 0
    339c:	c6 01       	movw	r24, r12
    339e:	0e 94 ce 41 	call	0x839c	; 0x839c <Framebuffer_GFX::drawPixel(int, int, CRGB)>
    33a2:	01 50       	subi	r16, 0x01	; 1
    33a4:	11 09       	sbc	r17, r1
    33a6:	df cf       	rjmp	.-66     	; 0x3366 <progMatrixHorizontal(unsigned int, unsigned char)+0x4aa>
    33a8:	00 91 bc 0a 	lds	r16, 0x0ABC	; 0x800abc <progMatrixZaehler>
    33ac:	10 91 bd 0a 	lds	r17, 0x0ABD	; 0x800abd <progMatrixZaehler+0x1>
    33b0:	0f 50       	subi	r16, 0x0F	; 15
    33b2:	11 09       	sbc	r17, r1
    33b4:	70 e1       	ldi	r23, 0x10	; 16
    33b6:	e7 2e       	mov	r14, r23
    33b8:	f1 2c       	mov	r15, r1
    33ba:	01 3f       	cpi	r16, 0xF1	; 241
    33bc:	8f ef       	ldi	r24, 0xFF	; 255
    33be:	18 07       	cpc	r17, r24
    33c0:	ec f0       	brlt	.+58     	; 0x33fc <progMatrixHorizontal(unsigned int, unsigned char)+0x540>
    33c2:	81 e0       	ldi	r24, 0x01	; 1
    33c4:	e8 1a       	sub	r14, r24
    33c6:	f1 08       	sbc	r15, r1
    33c8:	82 e0       	ldi	r24, 0x02	; 2
    33ca:	e8 16       	cp	r14, r24
    33cc:	f1 04       	cpc	r15, r1
    33ce:	14 f4       	brge	.+4      	; 0x33d4 <progMatrixHorizontal(unsigned int, unsigned char)+0x518>
    33d0:	f1 2c       	mov	r15, r1
    33d2:	e1 2c       	mov	r14, r1
    33d4:	c0 90 c9 10 	lds	r12, 0x10C9	; 0x8010c9 <matrix>
    33d8:	d0 90 ca 10 	lds	r13, 0x10CA	; 0x8010ca <matrix+0x1>
    33dc:	b7 01       	movw	r22, r14
    33de:	ce 01       	movw	r24, r28
    33e0:	01 96       	adiw	r24, 0x01	; 1
    33e2:	0d dd       	rcall	.-1510   	; 0x2dfe <getMatrixColor(int)>
    33e4:	9e 01       	movw	r18, r28
    33e6:	2f 5f       	subi	r18, 0xFF	; 255
    33e8:	3f 4f       	sbci	r19, 0xFF	; 255
    33ea:	a8 01       	movw	r20, r16
    33ec:	65 e0       	ldi	r22, 0x05	; 5
    33ee:	70 e0       	ldi	r23, 0x00	; 0
    33f0:	c6 01       	movw	r24, r12
    33f2:	0e 94 ce 41 	call	0x839c	; 0x839c <Framebuffer_GFX::drawPixel(int, int, CRGB)>
    33f6:	01 50       	subi	r16, 0x01	; 1
    33f8:	11 09       	sbc	r17, r1
    33fa:	df cf       	rjmp	.-66     	; 0x33ba <progMatrixHorizontal(unsigned int, unsigned char)+0x4fe>
    33fc:	00 91 bc 0a 	lds	r16, 0x0ABC	; 0x800abc <progMatrixZaehler>
    3400:	10 91 bd 0a 	lds	r17, 0x0ABD	; 0x800abd <progMatrixZaehler+0x1>
    3404:	08 50       	subi	r16, 0x08	; 8
    3406:	11 09       	sbc	r17, r1
    3408:	60 e1       	ldi	r22, 0x10	; 16
    340a:	e6 2e       	mov	r14, r22
    340c:	f1 2c       	mov	r15, r1
    340e:	08 3f       	cpi	r16, 0xF8	; 248
    3410:	8f ef       	ldi	r24, 0xFF	; 255
    3412:	18 07       	cpc	r17, r24
    3414:	ec f0       	brlt	.+58     	; 0x3450 <progMatrixHorizontal(unsigned int, unsigned char)+0x594>
    3416:	81 e0       	ldi	r24, 0x01	; 1
    3418:	e8 1a       	sub	r14, r24
    341a:	f1 08       	sbc	r15, r1
    341c:	82 e0       	ldi	r24, 0x02	; 2
    341e:	e8 16       	cp	r14, r24
    3420:	f1 04       	cpc	r15, r1
    3422:	14 f4       	brge	.+4      	; 0x3428 <progMatrixHorizontal(unsigned int, unsigned char)+0x56c>
    3424:	f1 2c       	mov	r15, r1
    3426:	e1 2c       	mov	r14, r1
    3428:	c0 90 c9 10 	lds	r12, 0x10C9	; 0x8010c9 <matrix>
    342c:	d0 90 ca 10 	lds	r13, 0x10CA	; 0x8010ca <matrix+0x1>
    3430:	b7 01       	movw	r22, r14
    3432:	ce 01       	movw	r24, r28
    3434:	01 96       	adiw	r24, 0x01	; 1
    3436:	e3 dc       	rcall	.-1594   	; 0x2dfe <getMatrixColor(int)>
    3438:	9e 01       	movw	r18, r28
    343a:	2f 5f       	subi	r18, 0xFF	; 255
    343c:	3f 4f       	sbci	r19, 0xFF	; 255
    343e:	a8 01       	movw	r20, r16
    3440:	67 e0       	ldi	r22, 0x07	; 7
    3442:	70 e0       	ldi	r23, 0x00	; 0
    3444:	c6 01       	movw	r24, r12
    3446:	0e 94 ce 41 	call	0x839c	; 0x839c <Framebuffer_GFX::drawPixel(int, int, CRGB)>
    344a:	01 50       	subi	r16, 0x01	; 1
    344c:	11 09       	sbc	r17, r1
    344e:	df cf       	rjmp	.-66     	; 0x340e <progMatrixHorizontal(unsigned int, unsigned char)+0x552>
    3450:	e0 90 bc 0a 	lds	r14, 0x0ABC	; 0x800abc <progMatrixZaehler>
    3454:	f0 90 bd 0a 	lds	r15, 0x0ABD	; 0x800abd <progMatrixZaehler+0x1>
    3458:	00 e1       	ldi	r16, 0x10	; 16
    345a:	10 e0       	ldi	r17, 0x00	; 0
    345c:	f7 fc       	sbrc	r15, 7
    345e:	1c c0       	rjmp	.+56     	; 0x3498 <progMatrixHorizontal(unsigned int, unsigned char)+0x5dc>
    3460:	01 50       	subi	r16, 0x01	; 1
    3462:	11 09       	sbc	r17, r1
    3464:	02 30       	cpi	r16, 0x02	; 2
    3466:	11 05       	cpc	r17, r1
    3468:	14 f4       	brge	.+4      	; 0x346e <progMatrixHorizontal(unsigned int, unsigned char)+0x5b2>
    346a:	10 e0       	ldi	r17, 0x00	; 0
    346c:	00 e0       	ldi	r16, 0x00	; 0
    346e:	c0 90 c9 10 	lds	r12, 0x10C9	; 0x8010c9 <matrix>
    3472:	d0 90 ca 10 	lds	r13, 0x10CA	; 0x8010ca <matrix+0x1>
    3476:	b8 01       	movw	r22, r16
    3478:	ce 01       	movw	r24, r28
    347a:	01 96       	adiw	r24, 0x01	; 1
    347c:	c0 dc       	rcall	.-1664   	; 0x2dfe <getMatrixColor(int)>
    347e:	9e 01       	movw	r18, r28
    3480:	2f 5f       	subi	r18, 0xFF	; 255
    3482:	3f 4f       	sbci	r19, 0xFF	; 255
    3484:	a7 01       	movw	r20, r14
    3486:	69 e0       	ldi	r22, 0x09	; 9
    3488:	70 e0       	ldi	r23, 0x00	; 0
    348a:	c6 01       	movw	r24, r12
    348c:	0e 94 ce 41 	call	0x839c	; 0x839c <Framebuffer_GFX::drawPixel(int, int, CRGB)>
    3490:	81 e0       	ldi	r24, 0x01	; 1
    3492:	e8 1a       	sub	r14, r24
    3494:	f1 08       	sbc	r15, r1
    3496:	e2 cf       	rjmp	.-60     	; 0x345c <progMatrixHorizontal(unsigned int, unsigned char)+0x5a0>
    3498:	00 91 bc 0a 	lds	r16, 0x0ABC	; 0x800abc <progMatrixZaehler>
    349c:	10 91 bd 0a 	lds	r17, 0x0ABD	; 0x800abd <progMatrixZaehler+0x1>
    34a0:	0e 50       	subi	r16, 0x0E	; 14
    34a2:	11 09       	sbc	r17, r1
    34a4:	50 e1       	ldi	r21, 0x10	; 16
    34a6:	e5 2e       	mov	r14, r21
    34a8:	f1 2c       	mov	r15, r1
    34aa:	02 3f       	cpi	r16, 0xF2	; 242
    34ac:	8f ef       	ldi	r24, 0xFF	; 255
    34ae:	18 07       	cpc	r17, r24
    34b0:	ec f0       	brlt	.+58     	; 0x34ec <progMatrixHorizontal(unsigned int, unsigned char)+0x630>
    34b2:	81 e0       	ldi	r24, 0x01	; 1
    34b4:	e8 1a       	sub	r14, r24
    34b6:	f1 08       	sbc	r15, r1
    34b8:	82 e0       	ldi	r24, 0x02	; 2
    34ba:	e8 16       	cp	r14, r24
    34bc:	f1 04       	cpc	r15, r1
    34be:	14 f4       	brge	.+4      	; 0x34c4 <progMatrixHorizontal(unsigned int, unsigned char)+0x608>
    34c0:	f1 2c       	mov	r15, r1
    34c2:	e1 2c       	mov	r14, r1
    34c4:	c0 90 c9 10 	lds	r12, 0x10C9	; 0x8010c9 <matrix>
    34c8:	d0 90 ca 10 	lds	r13, 0x10CA	; 0x8010ca <matrix+0x1>
    34cc:	b7 01       	movw	r22, r14
    34ce:	ce 01       	movw	r24, r28
    34d0:	01 96       	adiw	r24, 0x01	; 1
    34d2:	95 dc       	rcall	.-1750   	; 0x2dfe <getMatrixColor(int)>
    34d4:	9e 01       	movw	r18, r28
    34d6:	2f 5f       	subi	r18, 0xFF	; 255
    34d8:	3f 4f       	sbci	r19, 0xFF	; 255
    34da:	a8 01       	movw	r20, r16
    34dc:	6b e0       	ldi	r22, 0x0B	; 11
    34de:	70 e0       	ldi	r23, 0x00	; 0
    34e0:	c6 01       	movw	r24, r12
    34e2:	0e 94 ce 41 	call	0x839c	; 0x839c <Framebuffer_GFX::drawPixel(int, int, CRGB)>
    34e6:	01 50       	subi	r16, 0x01	; 1
    34e8:	11 09       	sbc	r17, r1
    34ea:	df cf       	rjmp	.-66     	; 0x34aa <progMatrixHorizontal(unsigned int, unsigned char)+0x5ee>
    34ec:	00 91 bc 0a 	lds	r16, 0x0ABC	; 0x800abc <progMatrixZaehler>
    34f0:	10 91 bd 0a 	lds	r17, 0x0ABD	; 0x800abd <progMatrixZaehler+0x1>
    34f4:	05 51       	subi	r16, 0x15	; 21
    34f6:	11 09       	sbc	r17, r1
    34f8:	40 e1       	ldi	r20, 0x10	; 16
    34fa:	e4 2e       	mov	r14, r20
    34fc:	f1 2c       	mov	r15, r1
    34fe:	0b 3e       	cpi	r16, 0xEB	; 235
    3500:	8f ef       	ldi	r24, 0xFF	; 255
    3502:	18 07       	cpc	r17, r24
    3504:	ec f0       	brlt	.+58     	; 0x3540 <progMatrixHorizontal(unsigned int, unsigned char)+0x684>
    3506:	81 e0       	ldi	r24, 0x01	; 1
    3508:	e8 1a       	sub	r14, r24
    350a:	f1 08       	sbc	r15, r1
    350c:	82 e0       	ldi	r24, 0x02	; 2
    350e:	e8 16       	cp	r14, r24
    3510:	f1 04       	cpc	r15, r1
    3512:	14 f4       	brge	.+4      	; 0x3518 <progMatrixHorizontal(unsigned int, unsigned char)+0x65c>
    3514:	f1 2c       	mov	r15, r1
    3516:	e1 2c       	mov	r14, r1
    3518:	c0 90 c9 10 	lds	r12, 0x10C9	; 0x8010c9 <matrix>
    351c:	d0 90 ca 10 	lds	r13, 0x10CA	; 0x8010ca <matrix+0x1>
    3520:	b7 01       	movw	r22, r14
    3522:	ce 01       	movw	r24, r28
    3524:	01 96       	adiw	r24, 0x01	; 1
    3526:	6b dc       	rcall	.-1834   	; 0x2dfe <getMatrixColor(int)>
    3528:	9e 01       	movw	r18, r28
    352a:	2f 5f       	subi	r18, 0xFF	; 255
    352c:	3f 4f       	sbci	r19, 0xFF	; 255
    352e:	a8 01       	movw	r20, r16
    3530:	6d e0       	ldi	r22, 0x0D	; 13
    3532:	70 e0       	ldi	r23, 0x00	; 0
    3534:	c6 01       	movw	r24, r12
    3536:	0e 94 ce 41 	call	0x839c	; 0x839c <Framebuffer_GFX::drawPixel(int, int, CRGB)>
    353a:	01 50       	subi	r16, 0x01	; 1
    353c:	11 09       	sbc	r17, r1
    353e:	df cf       	rjmp	.-66     	; 0x34fe <progMatrixHorizontal(unsigned int, unsigned char)+0x642>
    3540:	00 91 bc 0a 	lds	r16, 0x0ABC	; 0x800abc <progMatrixZaehler>
    3544:	10 91 bd 0a 	lds	r17, 0x0ABD	; 0x800abd <progMatrixZaehler+0x1>
    3548:	09 50       	subi	r16, 0x09	; 9
    354a:	11 09       	sbc	r17, r1
    354c:	30 e1       	ldi	r19, 0x10	; 16
    354e:	e3 2e       	mov	r14, r19
    3550:	f1 2c       	mov	r15, r1
    3552:	07 3f       	cpi	r16, 0xF7	; 247
    3554:	8f ef       	ldi	r24, 0xFF	; 255
    3556:	18 07       	cpc	r17, r24
    3558:	ec f0       	brlt	.+58     	; 0x3594 <progMatrixHorizontal(unsigned int, unsigned char)+0x6d8>
    355a:	81 e0       	ldi	r24, 0x01	; 1
    355c:	e8 1a       	sub	r14, r24
    355e:	f1 08       	sbc	r15, r1
    3560:	82 e0       	ldi	r24, 0x02	; 2
    3562:	e8 16       	cp	r14, r24
    3564:	f1 04       	cpc	r15, r1
    3566:	14 f4       	brge	.+4      	; 0x356c <progMatrixHorizontal(unsigned int, unsigned char)+0x6b0>
    3568:	f1 2c       	mov	r15, r1
    356a:	e1 2c       	mov	r14, r1
    356c:	c0 90 c9 10 	lds	r12, 0x10C9	; 0x8010c9 <matrix>
    3570:	d0 90 ca 10 	lds	r13, 0x10CA	; 0x8010ca <matrix+0x1>
    3574:	b7 01       	movw	r22, r14
    3576:	ce 01       	movw	r24, r28
    3578:	01 96       	adiw	r24, 0x01	; 1
    357a:	41 dc       	rcall	.-1918   	; 0x2dfe <getMatrixColor(int)>
    357c:	9e 01       	movw	r18, r28
    357e:	2f 5f       	subi	r18, 0xFF	; 255
    3580:	3f 4f       	sbci	r19, 0xFF	; 255
    3582:	a8 01       	movw	r20, r16
    3584:	6f e0       	ldi	r22, 0x0F	; 15
    3586:	70 e0       	ldi	r23, 0x00	; 0
    3588:	c6 01       	movw	r24, r12
    358a:	0e 94 ce 41 	call	0x839c	; 0x839c <Framebuffer_GFX::drawPixel(int, int, CRGB)>
    358e:	01 50       	subi	r16, 0x01	; 1
    3590:	11 09       	sbc	r17, r1
    3592:	df cf       	rjmp	.-66     	; 0x3552 <progMatrixHorizontal(unsigned int, unsigned char)+0x696>
    3594:	00 91 bc 0a 	lds	r16, 0x0ABC	; 0x800abc <progMatrixZaehler>
    3598:	10 91 bd 0a 	lds	r17, 0x0ABD	; 0x800abd <progMatrixZaehler+0x1>
    359c:	01 50       	subi	r16, 0x01	; 1
    359e:	11 09       	sbc	r17, r1
    35a0:	20 e1       	ldi	r18, 0x10	; 16
    35a2:	e2 2e       	mov	r14, r18
    35a4:	f1 2c       	mov	r15, r1
    35a6:	0f 3f       	cpi	r16, 0xFF	; 255
    35a8:	8f ef       	ldi	r24, 0xFF	; 255
    35aa:	18 07       	cpc	r17, r24
    35ac:	ec f0       	brlt	.+58     	; 0x35e8 <progMatrixHorizontal(unsigned int, unsigned char)+0x72c>
    35ae:	81 e0       	ldi	r24, 0x01	; 1
    35b0:	e8 1a       	sub	r14, r24
    35b2:	f1 08       	sbc	r15, r1
    35b4:	82 e0       	ldi	r24, 0x02	; 2
    35b6:	e8 16       	cp	r14, r24
    35b8:	f1 04       	cpc	r15, r1
    35ba:	14 f4       	brge	.+4      	; 0x35c0 <progMatrixHorizontal(unsigned int, unsigned char)+0x704>
    35bc:	f1 2c       	mov	r15, r1
    35be:	e1 2c       	mov	r14, r1
    35c0:	c0 90 c9 10 	lds	r12, 0x10C9	; 0x8010c9 <matrix>
    35c4:	d0 90 ca 10 	lds	r13, 0x10CA	; 0x8010ca <matrix+0x1>
    35c8:	b7 01       	movw	r22, r14
    35ca:	ce 01       	movw	r24, r28
    35cc:	01 96       	adiw	r24, 0x01	; 1
    35ce:	17 dc       	rcall	.-2002   	; 0x2dfe <getMatrixColor(int)>
    35d0:	9e 01       	movw	r18, r28
    35d2:	2f 5f       	subi	r18, 0xFF	; 255
    35d4:	3f 4f       	sbci	r19, 0xFF	; 255
    35d6:	a8 01       	movw	r20, r16
    35d8:	61 e1       	ldi	r22, 0x11	; 17
    35da:	70 e0       	ldi	r23, 0x00	; 0
    35dc:	c6 01       	movw	r24, r12
    35de:	0e 94 ce 41 	call	0x839c	; 0x839c <Framebuffer_GFX::drawPixel(int, int, CRGB)>
    35e2:	01 50       	subi	r16, 0x01	; 1
    35e4:	11 09       	sbc	r17, r1
    35e6:	df cf       	rjmp	.-66     	; 0x35a6 <progMatrixHorizontal(unsigned int, unsigned char)+0x6ea>
    35e8:	00 91 bc 0a 	lds	r16, 0x0ABC	; 0x800abc <progMatrixZaehler>
    35ec:	10 91 bd 0a 	lds	r17, 0x0ABD	; 0x800abd <progMatrixZaehler+0x1>
    35f0:	00 51       	subi	r16, 0x10	; 16
    35f2:	11 09       	sbc	r17, r1
    35f4:	90 e1       	ldi	r25, 0x10	; 16
    35f6:	e9 2e       	mov	r14, r25
    35f8:	f1 2c       	mov	r15, r1
    35fa:	00 3f       	cpi	r16, 0xF0	; 240
    35fc:	8f ef       	ldi	r24, 0xFF	; 255
    35fe:	18 07       	cpc	r17, r24
    3600:	ec f0       	brlt	.+58     	; 0x363c <progMatrixHorizontal(unsigned int, unsigned char)+0x780>
    3602:	81 e0       	ldi	r24, 0x01	; 1
    3604:	e8 1a       	sub	r14, r24
    3606:	f1 08       	sbc	r15, r1
    3608:	82 e0       	ldi	r24, 0x02	; 2
    360a:	e8 16       	cp	r14, r24
    360c:	f1 04       	cpc	r15, r1
    360e:	14 f4       	brge	.+4      	; 0x3614 <progMatrixHorizontal(unsigned int, unsigned char)+0x758>
    3610:	f1 2c       	mov	r15, r1
    3612:	e1 2c       	mov	r14, r1
    3614:	c0 90 c9 10 	lds	r12, 0x10C9	; 0x8010c9 <matrix>
    3618:	d0 90 ca 10 	lds	r13, 0x10CA	; 0x8010ca <matrix+0x1>
    361c:	b7 01       	movw	r22, r14
    361e:	ce 01       	movw	r24, r28
    3620:	01 96       	adiw	r24, 0x01	; 1
    3622:	ed db       	rcall	.-2086   	; 0x2dfe <getMatrixColor(int)>
    3624:	9e 01       	movw	r18, r28
    3626:	2f 5f       	subi	r18, 0xFF	; 255
    3628:	3f 4f       	sbci	r19, 0xFF	; 255
    362a:	a8 01       	movw	r20, r16
    362c:	63 e1       	ldi	r22, 0x13	; 19
    362e:	70 e0       	ldi	r23, 0x00	; 0
    3630:	c6 01       	movw	r24, r12
    3632:	0e 94 ce 41 	call	0x839c	; 0x839c <Framebuffer_GFX::drawPixel(int, int, CRGB)>
    3636:	01 50       	subi	r16, 0x01	; 1
    3638:	11 09       	sbc	r17, r1
    363a:	df cf       	rjmp	.-66     	; 0x35fa <progMatrixHorizontal(unsigned int, unsigned char)+0x73e>
    363c:	00 91 bc 0a 	lds	r16, 0x0ABC	; 0x800abc <progMatrixZaehler>
    3640:	10 91 bd 0a 	lds	r17, 0x0ABD	; 0x800abd <progMatrixZaehler+0x1>
    3644:	07 51       	subi	r16, 0x17	; 23
    3646:	11 09       	sbc	r17, r1
    3648:	80 e1       	ldi	r24, 0x10	; 16
    364a:	e8 2e       	mov	r14, r24
    364c:	f1 2c       	mov	r15, r1
    364e:	09 3e       	cpi	r16, 0xE9	; 233
    3650:	8f ef       	ldi	r24, 0xFF	; 255
    3652:	18 07       	cpc	r17, r24
    3654:	ec f0       	brlt	.+58     	; 0x3690 <progMatrixHorizontal(unsigned int, unsigned char)+0x7d4>
    3656:	81 e0       	ldi	r24, 0x01	; 1
    3658:	e8 1a       	sub	r14, r24
    365a:	f1 08       	sbc	r15, r1
    365c:	82 e0       	ldi	r24, 0x02	; 2
    365e:	e8 16       	cp	r14, r24
    3660:	f1 04       	cpc	r15, r1
    3662:	14 f4       	brge	.+4      	; 0x3668 <progMatrixHorizontal(unsigned int, unsigned char)+0x7ac>
    3664:	f1 2c       	mov	r15, r1
    3666:	e1 2c       	mov	r14, r1
    3668:	c0 90 c9 10 	lds	r12, 0x10C9	; 0x8010c9 <matrix>
    366c:	d0 90 ca 10 	lds	r13, 0x10CA	; 0x8010ca <matrix+0x1>
    3670:	b7 01       	movw	r22, r14
    3672:	ce 01       	movw	r24, r28
    3674:	01 96       	adiw	r24, 0x01	; 1
    3676:	c3 db       	rcall	.-2170   	; 0x2dfe <getMatrixColor(int)>
    3678:	9e 01       	movw	r18, r28
    367a:	2f 5f       	subi	r18, 0xFF	; 255
    367c:	3f 4f       	sbci	r19, 0xFF	; 255
    367e:	a8 01       	movw	r20, r16
    3680:	65 e1       	ldi	r22, 0x15	; 21
    3682:	70 e0       	ldi	r23, 0x00	; 0
    3684:	c6 01       	movw	r24, r12
    3686:	0e 94 ce 41 	call	0x839c	; 0x839c <Framebuffer_GFX::drawPixel(int, int, CRGB)>
    368a:	01 50       	subi	r16, 0x01	; 1
    368c:	11 09       	sbc	r17, r1
    368e:	df cf       	rjmp	.-66     	; 0x364e <progMatrixHorizontal(unsigned int, unsigned char)+0x792>
    3690:	8a ed       	ldi	r24, 0xDA	; 218
    3692:	90 e1       	ldi	r25, 0x10	; 16
    3694:	0e 94 97 08 	call	0x112e	; 0x112e <CFastLED::show()>
    3698:	80 91 be 0a 	lds	r24, 0x0ABE	; 0x800abe <zaehler>
    369c:	90 91 bf 0a 	lds	r25, 0x0ABF	; 0x800abf <zaehler+0x1>
    36a0:	01 96       	adiw	r24, 0x01	; 1
    36a2:	89 33       	cpi	r24, 0x39	; 57
    36a4:	91 05       	cpc	r25, r1
    36a6:	e4 f4       	brge	.+56     	; 0x36e0 <progMatrixHorizontal(unsigned int, unsigned char)+0x824>
    36a8:	90 93 bf 0a 	sts	0x0ABF, r25	; 0x800abf <zaehler+0x1>
    36ac:	80 93 be 0a 	sts	0x0ABE, r24	; 0x800abe <zaehler>
    36b0:	80 91 bc 0a 	lds	r24, 0x0ABC	; 0x800abc <progMatrixZaehler>
    36b4:	90 91 bd 0a 	lds	r25, 0x0ABD	; 0x800abd <progMatrixZaehler+0x1>
    36b8:	01 96       	adiw	r24, 0x01	; 1
    36ba:	89 33       	cpi	r24, 0x39	; 57
    36bc:	91 05       	cpc	r25, r1
    36be:	ac f4       	brge	.+42     	; 0x36ea <progMatrixHorizontal(unsigned int, unsigned char)+0x82e>
    36c0:	90 93 bd 0a 	sts	0x0ABD, r25	; 0x800abd <progMatrixZaehler+0x1>
    36c4:	80 93 bc 0a 	sts	0x0ABC, r24	; 0x800abc <progMatrixZaehler>
    36c8:	0f 90       	pop	r0
    36ca:	0f 90       	pop	r0
    36cc:	0f 90       	pop	r0
    36ce:	df 91       	pop	r29
    36d0:	cf 91       	pop	r28
    36d2:	1f 91       	pop	r17
    36d4:	0f 91       	pop	r16
    36d6:	ff 90       	pop	r15
    36d8:	ef 90       	pop	r14
    36da:	df 90       	pop	r13
    36dc:	cf 90       	pop	r12
    36de:	08 95       	ret
    36e0:	10 92 bf 0a 	sts	0x0ABF, r1	; 0x800abf <zaehler+0x1>
    36e4:	10 92 be 0a 	sts	0x0ABE, r1	; 0x800abe <zaehler>
    36e8:	e3 cf       	rjmp	.-58     	; 0x36b0 <progMatrixHorizontal(unsigned int, unsigned char)+0x7f4>
    36ea:	10 92 bd 0a 	sts	0x0ABD, r1	; 0x800abd <progMatrixZaehler+0x1>
    36ee:	10 92 bc 0a 	sts	0x0ABC, r1	; 0x800abc <progMatrixZaehler>
    36f2:	ea cf       	rjmp	.-44     	; 0x36c8 <progMatrixHorizontal(unsigned int, unsigned char)+0x80c>

000036f4 <setupInterrupt()>:
    36f4:	10 92 90 00 	sts	0x0090, r1	; 0x800090 <__TEXT_REGION_LENGTH__+0x7e0090>
    36f8:	8b e0       	ldi	r24, 0x0B	; 11
    36fa:	80 93 91 00 	sts	0x0091, r24	; 0x800091 <__TEXT_REGION_LENGTH__+0x7e0091>
    36fe:	8a e6       	ldi	r24, 0x6A	; 106
    3700:	98 e1       	ldi	r25, 0x18	; 24
    3702:	90 93 99 00 	sts	0x0099, r25	; 0x800099 <__TEXT_REGION_LENGTH__+0x7e0099>
    3706:	80 93 98 00 	sts	0x0098, r24	; 0x800098 <__TEXT_REGION_LENGTH__+0x7e0098>
    370a:	82 e0       	ldi	r24, 0x02	; 2
    370c:	80 93 71 00 	sts	0x0071, r24	; 0x800071 <__TEXT_REGION_LENGTH__+0x7e0071>
    3710:	08 95       	ret

00003712 <switchToPart(unsigned char)>:
    3712:	cf 93       	push	r28
    3714:	c8 2f       	mov	r28, r24
    3716:	80 93 c5 0a 	sts	0x0AC5, r24	; 0x800ac5 <prog>
    371a:	10 92 c7 0a 	sts	0x0AC7, r1	; 0x800ac7 <nextChangeMillisAlreadyCalculated>
    371e:	10 92 ce 0a 	sts	0x0ACE, r1	; 0x800ace <millisCounterTimer+0x1>
    3722:	10 92 cd 0a 	sts	0x0ACD, r1	; 0x800acd <millisCounterTimer>
    3726:	10 92 cc 0a 	sts	0x0ACC, r1	; 0x800acc <millisCounterForProgChange+0x1>
    372a:	10 92 cb 0a 	sts	0x0ACB, r1	; 0x800acb <millisCounterForProgChange>
    372e:	10 92 bf 0a 	sts	0x0ABF, r1	; 0x800abf <zaehler+0x1>
    3732:	10 92 be 0a 	sts	0x0ABE, r1	; 0x800abe <zaehler>
    3736:	87 e1       	ldi	r24, 0x17	; 23
    3738:	90 e0       	ldi	r25, 0x00	; 0
    373a:	90 93 05 01 	sts	0x0105, r25	; 0x800105 <progScrollTextZaehler+0x1>
    373e:	80 93 04 01 	sts	0x0104, r24	; 0x800104 <progScrollTextZaehler>
    3742:	10 92 72 0a 	sts	0x0A72, r1	; 0x800a72 <progBlingBlingColoring_rounds+0x1>
    3746:	10 92 71 0a 	sts	0x0A71, r1	; 0x800a71 <progBlingBlingColoring_rounds>
    374a:	10 92 6e 0a 	sts	0x0A6E, r1	; 0x800a6e <progCLED_hue>
    374e:	10 92 6d 0a 	sts	0x0A6D, r1	; 0x800a6d <progCLED_counter+0x1>
    3752:	10 92 6c 0a 	sts	0x0A6C, r1	; 0x800a6c <progCLED_counter>
    3756:	6f e1       	ldi	r22, 0x1F	; 31
    3758:	71 e0       	ldi	r23, 0x01	; 1
    375a:	8a e6       	ldi	r24, 0x6A	; 106
    375c:	91 e1       	ldi	r25, 0x11	; 17
    375e:	0e 94 53 08 	call	0x10a6	; 0x10a6 <Print::print(char const*)>
    3762:	6c 2f       	mov	r22, r28
    3764:	8a e6       	ldi	r24, 0x6A	; 106
    3766:	91 e1       	ldi	r25, 0x11	; 17
    3768:	cf 91       	pop	r28
    376a:	0c 94 65 08 	jmp	0x10ca	; 0x10ca <Print::println(unsigned char)>

0000376e <__vector_32>:
    376e:	1f 92       	push	r1
    3770:	0f 92       	push	r0
    3772:	0f b6       	in	r0, 0x3f	; 63
    3774:	0f 92       	push	r0
    3776:	11 24       	eor	r1, r1
    3778:	0b b6       	in	r0, 0x3b	; 59
    377a:	0f 92       	push	r0
    377c:	2f 93       	push	r18
    377e:	3f 93       	push	r19
    3780:	4f 93       	push	r20
    3782:	5f 93       	push	r21
    3784:	6f 93       	push	r22
    3786:	7f 93       	push	r23
    3788:	8f 93       	push	r24
    378a:	9f 93       	push	r25
    378c:	af 93       	push	r26
    378e:	bf 93       	push	r27
    3790:	ef 93       	push	r30
    3792:	ff 93       	push	r31
    3794:	80 91 cd 0a 	lds	r24, 0x0ACD	; 0x800acd <millisCounterTimer>
    3798:	90 91 ce 0a 	lds	r25, 0x0ACE	; 0x800ace <millisCounterTimer+0x1>
    379c:	49 96       	adiw	r24, 0x19	; 25
    379e:	90 93 ce 0a 	sts	0x0ACE, r25	; 0x800ace <millisCounterTimer+0x1>
    37a2:	80 93 cd 0a 	sts	0x0ACD, r24	; 0x800acd <millisCounterTimer>
    37a6:	80 91 c9 0a 	lds	r24, 0x0AC9	; 0x800ac9 <millisCounterForSeconds>
    37aa:	90 91 ca 0a 	lds	r25, 0x0ACA	; 0x800aca <millisCounterForSeconds+0x1>
    37ae:	49 96       	adiw	r24, 0x19	; 25
    37b0:	90 93 ca 0a 	sts	0x0ACA, r25	; 0x800aca <millisCounterForSeconds+0x1>
    37b4:	80 93 c9 0a 	sts	0x0AC9, r24	; 0x800ac9 <millisCounterForSeconds>
    37b8:	80 91 cb 0a 	lds	r24, 0x0ACB	; 0x800acb <millisCounterForProgChange>
    37bc:	90 91 cc 0a 	lds	r25, 0x0ACC	; 0x800acc <millisCounterForProgChange+0x1>
    37c0:	49 96       	adiw	r24, 0x19	; 25
    37c2:	90 93 cc 0a 	sts	0x0ACC, r25	; 0x800acc <millisCounterForProgChange+0x1>
    37c6:	80 93 cb 0a 	sts	0x0ACB, r24	; 0x800acb <millisCounterForProgChange>
    37ca:	91 e0       	ldi	r25, 0x01	; 1
    37cc:	90 93 c8 0a 	sts	0x0AC8, r25	; 0x800ac8 <flag_processFastLED>
    37d0:	8b b1       	in	r24, 0x0b	; 11
    37d2:	20 e4       	ldi	r18, 0x40	; 64
    37d4:	82 27       	eor	r24, r18
    37d6:	8b b9       	out	0x0b, r24	; 11
    37d8:	20 91 c9 0a 	lds	r18, 0x0AC9	; 0x800ac9 <millisCounterForSeconds>
    37dc:	30 91 ca 0a 	lds	r19, 0x0ACA	; 0x800aca <millisCounterForSeconds+0x1>
    37e0:	28 3e       	cpi	r18, 0xE8	; 232
    37e2:	33 40       	sbci	r19, 0x03	; 3
    37e4:	30 f0       	brcs	.+12     	; 0x37f2 <__vector_32+0x84>
    37e6:	10 92 ca 0a 	sts	0x0ACA, r1	; 0x800aca <millisCounterForSeconds+0x1>
    37ea:	10 92 c9 0a 	sts	0x0AC9, r1	; 0x800ac9 <millisCounterForSeconds>
    37ee:	90 93 c4 0a 	sts	0x0AC4, r25	; 0x800ac4 <OneSecondHasPast>
    37f2:	20 91 cb 0a 	lds	r18, 0x0ACB	; 0x800acb <millisCounterForProgChange>
    37f6:	30 91 cc 0a 	lds	r19, 0x0ACC	; 0x800acc <millisCounterForProgChange+0x1>
    37fa:	80 91 06 01 	lds	r24, 0x0106	; 0x800106 <nextChangeMillis>
    37fe:	90 91 07 01 	lds	r25, 0x0107	; 0x800107 <nextChangeMillis+0x1>
    3802:	28 17       	cp	r18, r24
    3804:	39 07       	cpc	r19, r25
    3806:	18 f0       	brcs	.+6      	; 0x380e <__vector_32+0xa0>
    3808:	80 91 c6 0a 	lds	r24, 0x0AC6	; 0x800ac6 <nextSongPart>
    380c:	82 df       	rcall	.-252    	; 0x3712 <switchToPart(unsigned char)>
    380e:	ff 91       	pop	r31
    3810:	ef 91       	pop	r30
    3812:	bf 91       	pop	r27
    3814:	af 91       	pop	r26
    3816:	9f 91       	pop	r25
    3818:	8f 91       	pop	r24
    381a:	7f 91       	pop	r23
    381c:	6f 91       	pop	r22
    381e:	5f 91       	pop	r21
    3820:	4f 91       	pop	r20
    3822:	3f 91       	pop	r19
    3824:	2f 91       	pop	r18
    3826:	0f 90       	pop	r0
    3828:	0b be       	out	0x3b, r0	; 59
    382a:	0f 90       	pop	r0
    382c:	0f be       	out	0x3f, r0	; 63
    382e:	0f 90       	pop	r0
    3830:	1f 90       	pop	r1
    3832:	18 95       	reti

00003834 <switchToSong(unsigned char)>:
    3834:	cf 93       	push	r28
    3836:	c8 2f       	mov	r28, r24
    3838:	80 93 da 0a 	sts	0x0ADA, r24	; 0x800ada <songID>
    383c:	62 e3       	ldi	r22, 0x32	; 50
    383e:	71 e0       	ldi	r23, 0x01	; 1
    3840:	8a e6       	ldi	r24, 0x6A	; 106
    3842:	91 e1       	ldi	r25, 0x11	; 17
    3844:	0e 94 54 08 	call	0x10a8	; 0x10a8 <Print::println(char const*)>
    3848:	66 e4       	ldi	r22, 0x46	; 70
    384a:	71 e0       	ldi	r23, 0x01	; 1
    384c:	8a e6       	ldi	r24, 0x6A	; 106
    384e:	91 e1       	ldi	r25, 0x11	; 17
    3850:	0e 94 53 08 	call	0x10a6	; 0x10a6 <Print::print(char const*)>
    3854:	6c 2f       	mov	r22, r28
    3856:	8a e6       	ldi	r24, 0x6A	; 106
    3858:	91 e1       	ldi	r25, 0x11	; 17
    385a:	0e 94 65 08 	call	0x10ca	; 0x10ca <Print::println(unsigned char)>
    385e:	62 e3       	ldi	r22, 0x32	; 50
    3860:	71 e0       	ldi	r23, 0x01	; 1
    3862:	8a e6       	ldi	r24, 0x6A	; 106
    3864:	91 e1       	ldi	r25, 0x11	; 17
    3866:	0e 94 54 08 	call	0x10a8	; 0x10a8 <Print::println(char const*)>
    386a:	80 e0       	ldi	r24, 0x00	; 0
    386c:	cf 91       	pop	r28
    386e:	51 cf       	rjmp	.-350    	; 0x3712 <switchToPart(unsigned char)>

00003870 <setup>:
    3870:	af 92       	push	r10
    3872:	bf 92       	push	r11
    3874:	cf 92       	push	r12
    3876:	df 92       	push	r13
    3878:	ef 92       	push	r14
    387a:	ff 92       	push	r15
    387c:	0f 93       	push	r16
    387e:	1f 93       	push	r17
    3880:	cf 93       	push	r28
    3882:	df 93       	push	r29
    3884:	68 ee       	ldi	r22, 0xE8	; 232
    3886:	73 e0       	ldi	r23, 0x03	; 3
    3888:	80 e0       	ldi	r24, 0x00	; 0
    388a:	90 e0       	ldi	r25, 0x00	; 0
    388c:	0e 94 e5 49 	call	0x93ca	; 0x93ca <delay>
    3890:	4f ef       	ldi	r20, 0xFF	; 255
    3892:	60 e4       	ldi	r22, 0x40	; 64
    3894:	70 e0       	ldi	r23, 0x00	; 0
    3896:	85 ef       	ldi	r24, 0xF5	; 245
    3898:	90 e1       	ldi	r25, 0x10	; 16
    389a:	0e 94 c8 4c 	call	0x9990	; 0x9990 <HardwareSerial::_begin(unsigned int, unsigned char)>
    389e:	56 9a       	sbi	0x0a, 6	; 10
    38a0:	88 e2       	ldi	r24, 0x28	; 40
    38a2:	0e 94 4d 48 	call	0x909a	; 0x909a <analogRead>
    38a6:	bc 01       	movw	r22, r24
    38a8:	99 0f       	add	r25, r25
    38aa:	88 0b       	sbc	r24, r24
    38ac:	99 0b       	sbc	r25, r25
    38ae:	1f 92       	push	r1
    38b0:	1f 92       	push	r1
    38b2:	1f 92       	push	r1
    38b4:	28 e7       	ldi	r18, 0x78	; 120
    38b6:	2f 93       	push	r18
    38b8:	a1 2c       	mov	r10, r1
    38ba:	b1 2c       	mov	r11, r1
    38bc:	65 01       	movw	r12, r10
    38be:	ee 24       	eor	r14, r14
    38c0:	ea 94       	dec	r14
    38c2:	13 e0       	ldi	r17, 0x03	; 3
    38c4:	f1 2e       	mov	r15, r17
    38c6:	00 e0       	ldi	r16, 0x00	; 0
    38c8:	10 e0       	ldi	r17, 0x00	; 0
    38ca:	20 e0       	ldi	r18, 0x00	; 0
    38cc:	30 e0       	ldi	r19, 0x00	; 0
    38ce:	a9 01       	movw	r20, r18
    38d0:	0e 94 88 50 	call	0xa110	; 0xa110 <map(long, long, long, long, long)>
    38d4:	60 93 d1 0a 	sts	0x0AD1, r22	; 0x800ad1 <voltageSmooth>
    38d8:	82 e3       	ldi	r24, 0x32	; 50
    38da:	91 e0       	ldi	r25, 0x01	; 1
    38dc:	0e 94 92 4d 	call	0x9b24	; 0x9b24 <operator new(unsigned int)>
    38e0:	ec 01       	movw	r28, r24
    38e2:	0a e0       	ldi	r16, 0x0A	; 10
    38e4:	27 e1       	ldi	r18, 0x17	; 23
    38e6:	30 e0       	ldi	r19, 0x00	; 0
    38e8:	46 e1       	ldi	r20, 0x16	; 22
    38ea:	50 e0       	ldi	r21, 0x00	; 0
    38ec:	6b ed       	ldi	r22, 0xDB	; 219
    38ee:	7a e0       	ldi	r23, 0x0A	; 10
    38f0:	0e 94 f7 3e 	call	0x7dee	; 0x7dee <FastLED_NeoMatrix::FastLED_NeoMatrix(CRGB*, unsigned int, unsigned int, unsigned char)>
    38f4:	d0 93 ca 10 	sts	0x10CA, r29	; 0x8010ca <matrix+0x1>
    38f8:	c0 93 c9 10 	sts	0x10C9, r28	; 0x8010c9 <matrix>
    38fc:	80 91 e3 09 	lds	r24, 0x09E3	; 0x8009e3 <guard variable for CLEDController& CFastLED::addLeds<NEOPIXEL, (unsigned char)12>(CRGB*, int, int)::c>
    3900:	0f 90       	pop	r0
    3902:	0f 90       	pop	r0
    3904:	0f 90       	pop	r0
    3906:	0f 90       	pop	r0
    3908:	81 11       	cpse	r24, r1
    390a:	4d c0       	rjmp	.+154    	; 0x39a6 <setup+0x136>
    390c:	83 ee       	ldi	r24, 0xE3	; 227
    390e:	99 e0       	ldi	r25, 0x09	; 9
    3910:	0e 94 93 4d 	call	0x9b26	; 0x9b26 <__cxa_guard_acquire>
    3914:	89 2b       	or	r24, r25
    3916:	09 f4       	brne	.+2      	; 0x391a <setup+0xaa>
    3918:	46 c0       	rjmp	.+140    	; 0x39a6 <setup+0x136>
    391a:	10 92 ee 09 	sts	0x09EE, r1	; 0x8009ee <CLEDController& CFastLED::addLeds<NEOPIXEL, (unsigned char)12>(CRGB*, int, int)::c+0x3>
    391e:	10 92 ed 09 	sts	0x09ED, r1	; 0x8009ed <CLEDController& CFastLED::addLeds<NEOPIXEL, (unsigned char)12>(CRGB*, int, int)::c+0x2>
    3922:	8f ef       	ldi	r24, 0xFF	; 255
    3924:	80 93 f1 09 	sts	0x09F1, r24	; 0x8009f1 <CLEDController& CFastLED::addLeds<NEOPIXEL, (unsigned char)12>(CRGB*, int, int)::c+0x6>
    3928:	80 93 f2 09 	sts	0x09F2, r24	; 0x8009f2 <CLEDController& CFastLED::addLeds<NEOPIXEL, (unsigned char)12>(CRGB*, int, int)::c+0x7>
    392c:	80 93 f3 09 	sts	0x09F3, r24	; 0x8009f3 <CLEDController& CFastLED::addLeds<NEOPIXEL, (unsigned char)12>(CRGB*, int, int)::c+0x8>
    3930:	80 93 f4 09 	sts	0x09F4, r24	; 0x8009f4 <CLEDController& CFastLED::addLeds<NEOPIXEL, (unsigned char)12>(CRGB*, int, int)::c+0x9>
    3934:	80 93 f5 09 	sts	0x09F5, r24	; 0x8009f5 <CLEDController& CFastLED::addLeds<NEOPIXEL, (unsigned char)12>(CRGB*, int, int)::c+0xa>
    3938:	80 93 f6 09 	sts	0x09F6, r24	; 0x8009f6 <CLEDController& CFastLED::addLeds<NEOPIXEL, (unsigned char)12>(CRGB*, int, int)::c+0xb>
    393c:	81 e0       	ldi	r24, 0x01	; 1
    393e:	80 93 f7 09 	sts	0x09F7, r24	; 0x8009f7 <CLEDController& CFastLED::addLeds<NEOPIXEL, (unsigned char)12>(CRGB*, int, int)::c+0xc>
    3942:	10 92 f9 09 	sts	0x09F9, r1	; 0x8009f9 <CLEDController& CFastLED::addLeds<NEOPIXEL, (unsigned char)12>(CRGB*, int, int)::c+0xe>
    3946:	10 92 f8 09 	sts	0x09F8, r1	; 0x8009f8 <CLEDController& CFastLED::addLeds<NEOPIXEL, (unsigned char)12>(CRGB*, int, int)::c+0xd>
    394a:	10 92 f0 09 	sts	0x09F0, r1	; 0x8009f0 <CLEDController& CFastLED::addLeds<NEOPIXEL, (unsigned char)12>(CRGB*, int, int)::c+0x5>
    394e:	10 92 ef 09 	sts	0x09EF, r1	; 0x8009ef <CLEDController& CFastLED::addLeds<NEOPIXEL, (unsigned char)12>(CRGB*, int, int)::c+0x4>
    3952:	80 91 d8 10 	lds	r24, 0x10D8	; 0x8010d8 <CLEDController::m_pHead>
    3956:	90 91 d9 10 	lds	r25, 0x10D9	; 0x8010d9 <CLEDController::m_pHead+0x1>
    395a:	89 2b       	or	r24, r25
    395c:	31 f4       	brne	.+12     	; 0x396a <setup+0xfa>
    395e:	8b ee       	ldi	r24, 0xEB	; 235
    3960:	99 e0       	ldi	r25, 0x09	; 9
    3962:	90 93 d9 10 	sts	0x10D9, r25	; 0x8010d9 <CLEDController::m_pHead+0x1>
    3966:	80 93 d8 10 	sts	0x10D8, r24	; 0x8010d8 <CLEDController::m_pHead>
    396a:	e0 91 d6 10 	lds	r30, 0x10D6	; 0x8010d6 <CLEDController::m_pTail>
    396e:	f0 91 d7 10 	lds	r31, 0x10D7	; 0x8010d7 <CLEDController::m_pTail+0x1>
    3972:	30 97       	sbiw	r30, 0x00	; 0
    3974:	21 f0       	breq	.+8      	; 0x397e <setup+0x10e>
    3976:	8b ee       	ldi	r24, 0xEB	; 235
    3978:	99 e0       	ldi	r25, 0x09	; 9
    397a:	95 83       	std	Z+5, r25	; 0x05
    397c:	84 83       	std	Z+4, r24	; 0x04
    397e:	8b ee       	ldi	r24, 0xEB	; 235
    3980:	99 e0       	ldi	r25, 0x09	; 9
    3982:	90 93 d7 10 	sts	0x10D7, r25	; 0x8010d7 <CLEDController::m_pTail+0x1>
    3986:	80 93 d6 10 	sts	0x10D6, r24	; 0x8010d6 <CLEDController::m_pTail>
    398a:	10 92 fb 09 	sts	0x09FB, r1	; 0x8009fb <CLEDController& CFastLED::addLeds<NEOPIXEL, (unsigned char)12>(CRGB*, int, int)::c+0x10>
    398e:	10 92 fa 09 	sts	0x09FA, r1	; 0x8009fa <CLEDController& CFastLED::addLeds<NEOPIXEL, (unsigned char)12>(CRGB*, int, int)::c+0xf>
    3992:	81 e7       	ldi	r24, 0x71	; 113
    3994:	95 e0       	ldi	r25, 0x05	; 5
    3996:	90 93 ec 09 	sts	0x09EC, r25	; 0x8009ec <CLEDController& CFastLED::addLeds<NEOPIXEL, (unsigned char)12>(CRGB*, int, int)::c+0x1>
    399a:	80 93 eb 09 	sts	0x09EB, r24	; 0x8009eb <CLEDController& CFastLED::addLeds<NEOPIXEL, (unsigned char)12>(CRGB*, int, int)::c>
    399e:	83 ee       	ldi	r24, 0xE3	; 227
    39a0:	99 e0       	ldi	r25, 0x09	; 9
    39a2:	0e 94 9c 4d 	call	0x9b38	; 0x9b38 <__cxa_guard_release>
    39a6:	30 e0       	ldi	r19, 0x00	; 0
    39a8:	20 e0       	ldi	r18, 0x00	; 0
    39aa:	4a ef       	ldi	r20, 0xFA	; 250
    39ac:	51 e0       	ldi	r21, 0x01	; 1
    39ae:	6b ed       	ldi	r22, 0xDB	; 219
    39b0:	7a e0       	ldi	r23, 0x0A	; 10
    39b2:	8b ee       	ldi	r24, 0xEB	; 235
    39b4:	99 e0       	ldi	r25, 0x09	; 9
    39b6:	0e 94 e7 44 	call	0x89ce	; 0x89ce <CFastLED::addLeds(CLEDController*, CRGB*, int, int)>
    39ba:	fc 01       	movw	r30, r24
    39bc:	8f ef       	ldi	r24, 0xFF	; 255
    39be:	86 83       	std	Z+6, r24	; 0x06
    39c0:	80 eb       	ldi	r24, 0xB0	; 176
    39c2:	87 83       	std	Z+7, r24	; 0x07
    39c4:	80 ef       	ldi	r24, 0xF0	; 240
    39c6:	80 87       	std	Z+8, r24	; 0x08
    39c8:	80 91 c9 10 	lds	r24, 0x10C9	; 0x8010c9 <matrix>
    39cc:	90 91 ca 10 	lds	r25, 0x10CA	; 0x8010ca <matrix+0x1>
    39d0:	0e 94 6e 3f 	call	0x7edc	; 0x7edc <Framebuffer_GFX::begin()>
    39d4:	80 91 c9 10 	lds	r24, 0x10C9	; 0x8010c9 <matrix>
    39d8:	90 91 ca 10 	lds	r25, 0x10CA	; 0x8010ca <matrix+0x1>
    39dc:	2f e0       	ldi	r18, 0x0F	; 15
    39de:	20 93 da 10 	sts	0x10DA, r18	; 0x8010da <FastLED>
    39e2:	fc 01       	movw	r30, r24
    39e4:	16 8a       	std	Z+22, r1	; 0x16
    39e6:	69 e4       	ldi	r22, 0x49	; 73
    39e8:	77 e0       	ldi	r23, 0x07	; 7
    39ea:	0e 94 fd 41 	call	0x83fa	; 0x83fa <Framebuffer_GFX::setRemapFunction(unsigned int (*)(unsigned int, unsigned int))>
    39ee:	f8 94       	cli
    39f0:	81 de       	rcall	.-766    	; 0x36f4 <setupInterrupt()>
    39f2:	78 94       	sei
    39f4:	68 e3       	ldi	r22, 0x38	; 56
    39f6:	7c e0       	ldi	r23, 0x0C	; 12
    39f8:	86 e8       	ldi	r24, 0x86	; 134
    39fa:	9a e0       	ldi	r25, 0x0A	; 10
    39fc:	0e 94 7c 08 	call	0x10f8	; 0x10f8 <CRGBPalette16::operator=(unsigned long const (&) [16])>
    3a00:	81 e0       	ldi	r24, 0x01	; 1
    3a02:	90 e0       	ldi	r25, 0x00	; 0
    3a04:	90 93 85 0a 	sts	0x0A85, r25	; 0x800a85 <currentBlending+0x1>
    3a08:	80 93 84 0a 	sts	0x0A84, r24	; 0x800a84 <currentBlending>
    3a0c:	81 e1       	ldi	r24, 0x11	; 17
    3a0e:	df 91       	pop	r29
    3a10:	cf 91       	pop	r28
    3a12:	1f 91       	pop	r17
    3a14:	0f 91       	pop	r16
    3a16:	ff 90       	pop	r15
    3a18:	ef 90       	pop	r14
    3a1a:	df 90       	pop	r13
    3a1c:	cf 90       	pop	r12
    3a1e:	bf 90       	pop	r11
    3a20:	af 90       	pop	r10
    3a22:	08 cf       	rjmp	.-496    	; 0x3834 <switchToSong(unsigned char)>

00003a24 <defaultLoop()>:
    3a24:	ef 92       	push	r14
    3a26:	ff 92       	push	r15
    3a28:	0f 93       	push	r16
    3a2a:	cf 93       	push	r28
    3a2c:	df 93       	push	r29
    3a2e:	00 d0       	rcall	.+0      	; 0x3a30 <defaultLoop()+0xc>
    3a30:	00 d0       	rcall	.+0      	; 0x3a32 <defaultLoop()+0xe>
    3a32:	00 d0       	rcall	.+0      	; 0x3a34 <defaultLoop()+0x10>
    3a34:	1f 92       	push	r1
    3a36:	cd b7       	in	r28, 0x3d	; 61
    3a38:	de b7       	in	r29, 0x3e	; 62
    3a3a:	80 91 c5 0a 	lds	r24, 0x0AC5	; 0x800ac5 <prog>
    3a3e:	83 32       	cpi	r24, 0x23	; 35
    3a40:	09 f4       	brne	.+2      	; 0x3a44 <defaultLoop()+0x20>
    3a42:	78 c0       	rjmp	.+240    	; 0x3b34 <defaultLoop()+0x110>
    3a44:	28 f5       	brcc	.+74     	; 0x3a90 <defaultLoop()+0x6c>
    3a46:	8a 30       	cpi	r24, 0x0A	; 10
    3a48:	09 f4       	brne	.+2      	; 0x3a4c <defaultLoop()+0x28>
    3a4a:	5e c0       	rjmp	.+188    	; 0x3b08 <defaultLoop()+0xe4>
    3a4c:	88 f4       	brcc	.+34     	; 0x3a70 <defaultLoop()+0x4c>
    3a4e:	88 23       	and	r24, r24
    3a50:	f1 f1       	breq	.+124    	; 0x3ace <defaultLoop()+0xaa>
    3a52:	85 30       	cpi	r24, 0x05	; 5
    3a54:	09 f4       	brne	.+2      	; 0x3a58 <defaultLoop()+0x34>
    3a56:	53 c0       	rjmp	.+166    	; 0x3afe <defaultLoop()+0xda>
    3a58:	27 96       	adiw	r28, 0x07	; 7
    3a5a:	0f b6       	in	r0, 0x3f	; 63
    3a5c:	f8 94       	cli
    3a5e:	de bf       	out	0x3e, r29	; 62
    3a60:	0f be       	out	0x3f, r0	; 63
    3a62:	cd bf       	out	0x3d, r28	; 61
    3a64:	df 91       	pop	r29
    3a66:	cf 91       	pop	r28
    3a68:	0f 91       	pop	r16
    3a6a:	ff 90       	pop	r15
    3a6c:	ef 90       	pop	r14
    3a6e:	08 95       	ret
    3a70:	84 31       	cpi	r24, 0x14	; 20
    3a72:	09 f4       	brne	.+2      	; 0x3a76 <defaultLoop()+0x52>
    3a74:	51 c0       	rjmp	.+162    	; 0x3b18 <defaultLoop()+0xf4>
    3a76:	89 31       	cpi	r24, 0x19	; 25
    3a78:	09 f4       	brne	.+2      	; 0x3a7c <defaultLoop()+0x58>
    3a7a:	54 c0       	rjmp	.+168    	; 0x3b24 <defaultLoop()+0x100>
    3a7c:	8f 30       	cpi	r24, 0x0F	; 15
    3a7e:	61 f7       	brne	.-40     	; 0x3a58 <defaultLoop()+0x34>
    3a80:	44 ef       	ldi	r20, 0xF4	; 244
    3a82:	51 e0       	ldi	r21, 0x01	; 1
    3a84:	64 e1       	ldi	r22, 0x14	; 20
    3a86:	80 e1       	ldi	r24, 0x10	; 16
    3a88:	97 e2       	ldi	r25, 0x27	; 39
    3a8a:	0e 94 1a 0a 	call	0x1434	; 0x1434 <progBlingBlingColoring(unsigned int, unsigned char, unsigned int)>
    3a8e:	e4 cf       	rjmp	.-56     	; 0x3a58 <defaultLoop()+0x34>
    3a90:	82 33       	cpi	r24, 0x32	; 50
    3a92:	09 f4       	brne	.+2      	; 0x3a96 <defaultLoop()+0x72>
    3a94:	5e c0       	rjmp	.+188    	; 0x3b52 <defaultLoop()+0x12e>
    3a96:	58 f4       	brcc	.+22     	; 0x3aae <defaultLoop()+0x8a>
    3a98:	88 32       	cpi	r24, 0x28	; 40
    3a9a:	09 f4       	brne	.+2      	; 0x3a9e <defaultLoop()+0x7a>
    3a9c:	53 c0       	rjmp	.+166    	; 0x3b44 <defaultLoop()+0x120>
    3a9e:	8d 32       	cpi	r24, 0x2D	; 45
    3aa0:	d9 f6       	brne	.-74     	; 0x3a58 <defaultLoop()+0x34>
    3aa2:	62 e3       	ldi	r22, 0x32	; 50
    3aa4:	80 e1       	ldi	r24, 0x10	; 16
    3aa6:	97 e2       	ldi	r25, 0x27	; 39
    3aa8:	0e 94 7f 10 	call	0x20fe	; 0x20fe <progOutline(unsigned int, unsigned char)>
    3aac:	d5 cf       	rjmp	.-86     	; 0x3a58 <defaultLoop()+0x34>
    3aae:	8c 33       	cpi	r24, 0x3C	; 60
    3ab0:	09 f4       	brne	.+2      	; 0x3ab4 <defaultLoop()+0x90>
    3ab2:	55 c0       	rjmp	.+170    	; 0x3b5e <defaultLoop()+0x13a>
    3ab4:	84 36       	cpi	r24, 0x64	; 100
    3ab6:	09 f4       	brne	.+2      	; 0x3aba <defaultLoop()+0x96>
    3ab8:	58 c0       	rjmp	.+176    	; 0x3b6a <defaultLoop()+0x146>
    3aba:	87 33       	cpi	r24, 0x37	; 55
    3abc:	69 f6       	brne	.-102    	; 0x3a58 <defaultLoop()+0x34>
    3abe:	44 ef       	ldi	r20, 0xF4	; 244
    3ac0:	51 e0       	ldi	r21, 0x01	; 1
    3ac2:	6c e3       	ldi	r22, 0x3C	; 60
    3ac4:	88 e9       	ldi	r24, 0x98	; 152
    3ac6:	9a e3       	ldi	r25, 0x3A	; 58
    3ac8:	0e 94 7b 0f 	call	0x1ef6	; 0x1ef6 <progRandomLines(unsigned int, unsigned char, unsigned int)>
    3acc:	c5 cf       	rjmp	.-118    	; 0x3a58 <defaultLoop()+0x34>
    3ace:	0e 94 e6 09 	call	0x13cc	; 0x13cc <getRandomColor()>
    3ad2:	7c 01       	movw	r14, r24
    3ad4:	6e e9       	ldi	r22, 0x9E	; 158
    3ad6:	72 e0       	ldi	r23, 0x02	; 2
    3ad8:	ce 01       	movw	r24, r28
    3ada:	01 96       	adiw	r24, 0x01	; 1
    3adc:	0e 94 30 51 	call	0xa260	; 0xa260 <String::String(char const*)>
    3ae0:	05 e0       	ldi	r16, 0x05	; 5
    3ae2:	97 01       	movw	r18, r14
    3ae4:	4a e5       	ldi	r20, 0x5A	; 90
    3ae6:	50 e0       	ldi	r21, 0x00	; 0
    3ae8:	6c e2       	ldi	r22, 0x2C	; 44
    3aea:	7c e4       	ldi	r23, 0x4C	; 76
    3aec:	ce 01       	movw	r24, r28
    3aee:	01 96       	adiw	r24, 0x01	; 1
    3af0:	0e 94 4b 13 	call	0x2696	; 0x2696 <progScrollText(String, unsigned int, int, int, unsigned char)>
    3af4:	ce 01       	movw	r24, r28
    3af6:	01 96       	adiw	r24, 0x01	; 1
    3af8:	0e 94 c7 50 	call	0xa18e	; 0xa18e <String::~String()>
    3afc:	ad cf       	rjmp	.-166    	; 0x3a58 <defaultLoop()+0x34>
    3afe:	6a e0       	ldi	r22, 0x0A	; 10
    3b00:	80 e3       	ldi	r24, 0x30	; 48
    3b02:	95 e7       	ldi	r25, 0x75	; 117
    3b04:	db d9       	rcall	.-3146   	; 0x2ebc <progMatrixHorizontal(unsigned int, unsigned char)>
    3b06:	a8 cf       	rjmp	.-176    	; 0x3a58 <defaultLoop()+0x34>
    3b08:	4f e0       	ldi	r20, 0x0F	; 15
    3b0a:	60 ed       	ldi	r22, 0xD0	; 208
    3b0c:	77 e0       	ldi	r23, 0x07	; 7
    3b0e:	88 e9       	ldi	r24, 0x98	; 152
    3b10:	9a e3       	ldi	r25, 0x3A	; 58
    3b12:	0e 94 d4 0c 	call	0x19a8	; 0x19a8 <progStern(unsigned int, int, unsigned char)>
    3b16:	a0 cf       	rjmp	.-192    	; 0x3a58 <defaultLoop()+0x34>
    3b18:	69 e1       	ldi	r22, 0x19	; 25
    3b1a:	88 e9       	ldi	r24, 0x98	; 152
    3b1c:	9a e3       	ldi	r25, 0x3A	; 58
    3b1e:	0e 94 d1 0c 	call	0x19a2	; 0x19a2 <progMatrixScanner(unsigned int, unsigned char)>
    3b22:	9a cf       	rjmp	.-204    	; 0x3a58 <defaultLoop()+0x34>
    3b24:	40 ed       	ldi	r20, 0xD0	; 208
    3b26:	57 e0       	ldi	r21, 0x07	; 7
    3b28:	63 e2       	ldi	r22, 0x23	; 35
    3b2a:	88 e9       	ldi	r24, 0x98	; 152
    3b2c:	9a e3       	ldi	r25, 0x3A	; 58
    3b2e:	0e 94 38 0b 	call	0x1670	; 0x1670 <progFullColors(unsigned int, unsigned char, unsigned int)>
    3b32:	92 cf       	rjmp	.-220    	; 0x3a58 <defaultLoop()+0x34>
    3b34:	48 ee       	ldi	r20, 0xE8	; 232
    3b36:	53 e0       	ldi	r21, 0x03	; 3
    3b38:	68 e2       	ldi	r22, 0x28	; 40
    3b3a:	88 e9       	ldi	r24, 0x98	; 152
    3b3c:	9a e3       	ldi	r25, 0x3A	; 58
    3b3e:	0e 94 cf 0e 	call	0x1d9e	; 0x1d9e <progCircles(unsigned int, unsigned char, unsigned int)>
    3b42:	8a cf       	rjmp	.-236    	; 0x3a58 <defaultLoop()+0x34>
    3b44:	4d e2       	ldi	r20, 0x2D	; 45
    3b46:	65 e0       	ldi	r22, 0x05	; 5
    3b48:	88 e9       	ldi	r24, 0x98	; 152
    3b4a:	9a e3       	ldi	r25, 0x3A	; 58
    3b4c:	0e 94 2c 0b 	call	0x1658	; 0x1658 <progFastBlingBling(unsigned int, unsigned char, unsigned char)>
    3b50:	83 cf       	rjmp	.-250    	; 0x3a58 <defaultLoop()+0x34>
    3b52:	67 e3       	ldi	r22, 0x37	; 55
    3b54:	80 e1       	ldi	r24, 0x10	; 16
    3b56:	97 e2       	ldi	r25, 0x27	; 39
    3b58:	0e 94 7d 0f 	call	0x1efa	; 0x1efa <progMovingLines(unsigned int, unsigned char)>
    3b5c:	7d cf       	rjmp	.-262    	; 0x3a58 <defaultLoop()+0x34>
    3b5e:	49 ec       	ldi	r20, 0xC9	; 201
    3b60:	5d e1       	ldi	r21, 0x1D	; 29
    3b62:	64 e6       	ldi	r22, 0x64	; 100
    3b64:	80 e6       	ldi	r24, 0x60	; 96
    3b66:	9a ee       	ldi	r25, 0xEA	; 234
    3b68:	90 cf       	rjmp	.-224    	; 0x3a8a <defaultLoop()+0x66>
    3b6a:	60 e0       	ldi	r22, 0x00	; 0
    3b6c:	8a ed       	ldi	r24, 0xDA	; 218
    3b6e:	90 e1       	ldi	r25, 0x10	; 16
    3b70:	0e 94 91 44 	call	0x8922	; 0x8922 <CFastLED::clear(bool)>
    3b74:	80 e0       	ldi	r24, 0x00	; 0
    3b76:	5e de       	rcall	.-836    	; 0x3834 <switchToSong(unsigned char)>
    3b78:	6f cf       	rjmp	.-290    	; 0x3a58 <defaultLoop()+0x34>

00003b7a <LearnToFly()>:
    3b7a:	ef 92       	push	r14
    3b7c:	ff 92       	push	r15
    3b7e:	0f 93       	push	r16
    3b80:	1f 93       	push	r17
    3b82:	cf 93       	push	r28
    3b84:	df 93       	push	r29
    3b86:	00 d0       	rcall	.+0      	; 0x3b88 <LearnToFly()+0xe>
    3b88:	00 d0       	rcall	.+0      	; 0x3b8a <LearnToFly()+0x10>
    3b8a:	00 d0       	rcall	.+0      	; 0x3b8c <LearnToFly()+0x12>
    3b8c:	1f 92       	push	r1
    3b8e:	cd b7       	in	r28, 0x3d	; 61
    3b90:	de b7       	in	r29, 0x3e	; 62
    3b92:	80 91 c5 0a 	lds	r24, 0x0AC5	; 0x800ac5 <prog>
    3b96:	89 31       	cpi	r24, 0x19	; 25
    3b98:	09 f4       	brne	.+2      	; 0x3b9c <LearnToFly()+0x22>
    3b9a:	87 c0       	rjmp	.+270    	; 0x3caa <LearnToFly()+0x130>
    3b9c:	38 f5       	brcc	.+78     	; 0x3bec <LearnToFly()+0x72>
    3b9e:	85 30       	cpi	r24, 0x05	; 5
    3ba0:	09 f4       	brne	.+2      	; 0x3ba4 <LearnToFly()+0x2a>
    3ba2:	6f c0       	rjmp	.+222    	; 0x3c82 <LearnToFly()+0x108>
    3ba4:	98 f4       	brcc	.+38     	; 0x3bcc <LearnToFly()+0x52>
    3ba6:	88 23       	and	r24, r24
    3ba8:	09 f4       	brne	.+2      	; 0x3bac <LearnToFly()+0x32>
    3baa:	4b c0       	rjmp	.+150    	; 0x3c42 <LearnToFly()+0xc8>
    3bac:	82 30       	cpi	r24, 0x02	; 2
    3bae:	09 f4       	brne	.+2      	; 0x3bb2 <LearnToFly()+0x38>
    3bb0:	60 c0       	rjmp	.+192    	; 0x3c72 <LearnToFly()+0xf8>
    3bb2:	27 96       	adiw	r28, 0x07	; 7
    3bb4:	0f b6       	in	r0, 0x3f	; 63
    3bb6:	f8 94       	cli
    3bb8:	de bf       	out	0x3e, r29	; 62
    3bba:	0f be       	out	0x3f, r0	; 63
    3bbc:	cd bf       	out	0x3d, r28	; 61
    3bbe:	df 91       	pop	r29
    3bc0:	cf 91       	pop	r28
    3bc2:	1f 91       	pop	r17
    3bc4:	0f 91       	pop	r16
    3bc6:	ff 90       	pop	r15
    3bc8:	ef 90       	pop	r14
    3bca:	08 95       	ret
    3bcc:	8f 30       	cpi	r24, 0x0F	; 15
    3bce:	09 f4       	brne	.+2      	; 0x3bd2 <LearnToFly()+0x58>
    3bd0:	5e c0       	rjmp	.+188    	; 0x3c8e <LearnToFly()+0x114>
    3bd2:	84 31       	cpi	r24, 0x14	; 20
    3bd4:	09 f4       	brne	.+2      	; 0x3bd8 <LearnToFly()+0x5e>
    3bd6:	61 c0       	rjmp	.+194    	; 0x3c9a <LearnToFly()+0x120>
    3bd8:	8a 30       	cpi	r24, 0x0A	; 10
    3bda:	59 f7       	brne	.-42     	; 0x3bb2 <LearnToFly()+0x38>
    3bdc:	49 ea       	ldi	r20, 0xA9	; 169
    3bde:	51 e0       	ldi	r21, 0x01	; 1
    3be0:	6f e0       	ldi	r22, 0x0F	; 15
    3be2:	82 e8       	ldi	r24, 0x82	; 130
    3be4:	90 e6       	ldi	r25, 0x60	; 96
    3be6:	0e 94 38 0b 	call	0x1670	; 0x1670 <progFullColors(unsigned int, unsigned char, unsigned int)>
    3bea:	e3 cf       	rjmp	.-58     	; 0x3bb2 <LearnToFly()+0x38>
    3bec:	8d 32       	cpi	r24, 0x2D	; 45
    3bee:	09 f4       	brne	.+2      	; 0x3bf2 <LearnToFly()+0x78>
    3bf0:	76 c0       	rjmp	.+236    	; 0x3cde <LearnToFly()+0x164>
    3bf2:	80 f4       	brcc	.+32     	; 0x3c14 <LearnToFly()+0x9a>
    3bf4:	83 32       	cpi	r24, 0x23	; 35
    3bf6:	09 f4       	brne	.+2      	; 0x3bfa <LearnToFly()+0x80>
    3bf8:	5f c0       	rjmp	.+190    	; 0x3cb8 <LearnToFly()+0x13e>
    3bfa:	88 32       	cpi	r24, 0x28	; 40
    3bfc:	09 f4       	brne	.+2      	; 0x3c00 <LearnToFly()+0x86>
    3bfe:	6b c0       	rjmp	.+214    	; 0x3cd6 <LearnToFly()+0x15c>
    3c00:	8e 31       	cpi	r24, 0x1E	; 30
    3c02:	b9 f6       	brne	.-82     	; 0x3bb2 <LearnToFly()+0x38>
    3c04:	49 ec       	ldi	r20, 0xC9	; 201
    3c06:	5d e1       	ldi	r21, 0x1D	; 29
    3c08:	63 e2       	ldi	r22, 0x23	; 35
    3c0a:	8b e4       	ldi	r24, 0x4B	; 75
    3c0c:	9e e6       	ldi	r25, 0x6E	; 110
    3c0e:	0e 94 1a 0a 	call	0x1434	; 0x1434 <progBlingBlingColoring(unsigned int, unsigned char, unsigned int)>
    3c12:	cf cf       	rjmp	.-98     	; 0x3bb2 <LearnToFly()+0x38>
    3c14:	87 33       	cpi	r24, 0x37	; 55
    3c16:	09 f4       	brne	.+2      	; 0x3c1a <LearnToFly()+0xa0>
    3c18:	67 c0       	rjmp	.+206    	; 0x3ce8 <LearnToFly()+0x16e>
    3c1a:	84 36       	cpi	r24, 0x64	; 100
    3c1c:	09 f4       	brne	.+2      	; 0x3c20 <LearnToFly()+0xa6>
    3c1e:	6a c0       	rjmp	.+212    	; 0x3cf4 <LearnToFly()+0x17a>
    3c20:	82 33       	cpi	r24, 0x32	; 50
    3c22:	39 f6       	brne	.-114    	; 0x3bb2 <LearnToFly()+0x38>
    3c24:	0e 94 cd 09 	call	0x139a	; 0x139a <getRandomColorValue()>
    3c28:	7c 01       	movw	r14, r24
    3c2a:	0e 94 cd 09 	call	0x139a	; 0x139a <getRandomColorValue()>
    3c2e:	8c 01       	movw	r16, r24
    3c30:	0e 94 cd 09 	call	0x139a	; 0x139a <getRandomColorValue()>
    3c34:	9c 01       	movw	r18, r24
    3c36:	4b e4       	ldi	r20, 0x4B	; 75
    3c38:	50 e0       	ldi	r21, 0x00	; 0
    3c3a:	67 e3       	ldi	r22, 0x37	; 55
    3c3c:	86 e2       	ldi	r24, 0x26	; 38
    3c3e:	97 e3       	ldi	r25, 0x37	; 55
    3c40:	47 c0       	rjmp	.+142    	; 0x3cd0 <LearnToFly()+0x156>
    3c42:	0e 94 e6 09 	call	0x13cc	; 0x13cc <getRandomColor()>
    3c46:	7c 01       	movw	r14, r24
    3c48:	69 e5       	ldi	r22, 0x59	; 89
    3c4a:	71 e0       	ldi	r23, 0x01	; 1
    3c4c:	ce 01       	movw	r24, r28
    3c4e:	01 96       	adiw	r24, 0x01	; 1
    3c50:	0e 94 30 51 	call	0xa260	; 0xa260 <String::String(char const*)>
    3c54:	02 e0       	ldi	r16, 0x02	; 2
    3c56:	97 01       	movw	r18, r14
    3c58:	4b e4       	ldi	r20, 0x4B	; 75
    3c5a:	50 e0       	ldi	r21, 0x00	; 0
    3c5c:	6c e6       	ldi	r22, 0x6C	; 108
    3c5e:	75 e3       	ldi	r23, 0x35	; 53
    3c60:	ce 01       	movw	r24, r28
    3c62:	01 96       	adiw	r24, 0x01	; 1
    3c64:	0e 94 4b 13 	call	0x2696	; 0x2696 <progScrollText(String, unsigned int, int, int, unsigned char)>
    3c68:	ce 01       	movw	r24, r28
    3c6a:	01 96       	adiw	r24, 0x01	; 1
    3c6c:	0e 94 c7 50 	call	0xa18e	; 0xa18e <String::~String()>
    3c70:	a0 cf       	rjmp	.-192    	; 0x3bb2 <LearnToFly()+0x38>
    3c72:	45 e0       	ldi	r20, 0x05	; 5
    3c74:	68 eb       	ldi	r22, 0xB8	; 184
    3c76:	71 e0       	ldi	r23, 0x01	; 1
    3c78:	83 e9       	ldi	r24, 0x93	; 147
    3c7a:	9b e1       	ldi	r25, 0x1B	; 27
    3c7c:	0e 94 d4 0c 	call	0x19a8	; 0x19a8 <progStern(unsigned int, int, unsigned char)>
    3c80:	98 cf       	rjmp	.-208    	; 0x3bb2 <LearnToFly()+0x38>
    3c82:	6a e0       	ldi	r22, 0x0A	; 10
    3c84:	8b e4       	ldi	r24, 0x4B	; 75
    3c86:	9e e6       	ldi	r25, 0x6E	; 110
    3c88:	0e 94 d1 0c 	call	0x19a2	; 0x19a2 <progMatrixScanner(unsigned int, unsigned char)>
    3c8c:	92 cf       	rjmp	.-220    	; 0x3bb2 <LearnToFly()+0x38>
    3c8e:	64 e1       	ldi	r22, 0x14	; 20
    3c90:	86 e2       	ldi	r24, 0x26	; 38
    3c92:	97 e3       	ldi	r25, 0x37	; 55
    3c94:	0e 94 21 0e 	call	0x1c42	; 0x1c42 <progStern(unsigned int, unsigned char)>
    3c98:	8c cf       	rjmp	.-232    	; 0x3bb2 <LearnToFly()+0x38>
    3c9a:	49 ea       	ldi	r20, 0xA9	; 169
    3c9c:	51 e0       	ldi	r21, 0x01	; 1
    3c9e:	69 e1       	ldi	r22, 0x19	; 25
    3ca0:	8b e4       	ldi	r24, 0x4B	; 75
    3ca2:	9e e6       	ldi	r25, 0x6E	; 110
    3ca4:	0e 94 7b 0f 	call	0x1ef6	; 0x1ef6 <progRandomLines(unsigned int, unsigned char, unsigned int)>
    3ca8:	84 cf       	rjmp	.-248    	; 0x3bb2 <LearnToFly()+0x38>
    3caa:	4e e1       	ldi	r20, 0x1E	; 30
    3cac:	65 e0       	ldi	r22, 0x05	; 5
    3cae:	80 e3       	ldi	r24, 0x30	; 48
    3cb0:	95 e7       	ldi	r25, 0x75	; 117
    3cb2:	0e 94 2c 0b 	call	0x1658	; 0x1658 <progFastBlingBling(unsigned int, unsigned char, unsigned char)>
    3cb6:	7d cf       	rjmp	.-262    	; 0x3bb2 <LearnToFly()+0x38>
    3cb8:	ee 24       	eor	r14, r14
    3cba:	ea 94       	dec	r14
    3cbc:	f1 2c       	mov	r15, r1
    3cbe:	0f ef       	ldi	r16, 0xFF	; 255
    3cc0:	10 e0       	ldi	r17, 0x00	; 0
    3cc2:	2f ef       	ldi	r18, 0xFF	; 255
    3cc4:	30 e0       	ldi	r19, 0x00	; 0
    3cc6:	4b e4       	ldi	r20, 0x4B	; 75
    3cc8:	50 e0       	ldi	r21, 0x00	; 0
    3cca:	68 e2       	ldi	r22, 0x28	; 40
    3ccc:	89 ec       	ldi	r24, 0xC9	; 201
    3cce:	9d e0       	ldi	r25, 0x0D	; 13
    3cd0:	0e 94 9d 0b 	call	0x173a	; 0x173a <progStrobo(unsigned int, unsigned char, unsigned int, int, int, int)>
    3cd4:	6e cf       	rjmp	.-292    	; 0x3bb2 <LearnToFly()+0x38>
    3cd6:	49 ea       	ldi	r20, 0xA9	; 169
    3cd8:	51 e0       	ldi	r21, 0x01	; 1
    3cda:	6d e2       	ldi	r22, 0x2D	; 45
    3cdc:	82 cf       	rjmp	.-252    	; 0x3be2 <LearnToFly()+0x68>
    3cde:	42 e3       	ldi	r20, 0x32	; 50
    3ce0:	65 e0       	ldi	r22, 0x05	; 5
    3ce2:	88 eb       	ldi	r24, 0xB8	; 184
    3ce4:	92 e5       	ldi	r25, 0x52	; 82
    3ce6:	e5 cf       	rjmp	.-54     	; 0x3cb2 <LearnToFly()+0x138>
    3ce8:	49 ec       	ldi	r20, 0xC9	; 201
    3cea:	5d e1       	ldi	r21, 0x1D	; 29
    3cec:	64 e6       	ldi	r22, 0x64	; 100
    3cee:	8f ef       	ldi	r24, 0xFF	; 255
    3cf0:	9f ef       	ldi	r25, 0xFF	; 255
    3cf2:	8d cf       	rjmp	.-230    	; 0x3c0e <LearnToFly()+0x94>
    3cf4:	60 e0       	ldi	r22, 0x00	; 0
    3cf6:	8a ed       	ldi	r24, 0xDA	; 218
    3cf8:	90 e1       	ldi	r25, 0x10	; 16
    3cfa:	0e 94 91 44 	call	0x8922	; 0x8922 <CFastLED::clear(bool)>
    3cfe:	80 e0       	ldi	r24, 0x00	; 0
    3d00:	99 dd       	rcall	.-1230   	; 0x3834 <switchToSong(unsigned char)>
    3d02:	57 cf       	rjmp	.-338    	; 0x3bb2 <LearnToFly()+0x38>

00003d04 <Castle()>:
    3d04:	ef 92       	push	r14
    3d06:	ff 92       	push	r15
    3d08:	0f 93       	push	r16
    3d0a:	1f 93       	push	r17
    3d0c:	cf 93       	push	r28
    3d0e:	df 93       	push	r29
    3d10:	00 d0       	rcall	.+0      	; 0x3d12 <Castle()+0xe>
    3d12:	00 d0       	rcall	.+0      	; 0x3d14 <Castle()+0x10>
    3d14:	00 d0       	rcall	.+0      	; 0x3d16 <Castle()+0x12>
    3d16:	1f 92       	push	r1
    3d18:	cd b7       	in	r28, 0x3d	; 61
    3d1a:	de b7       	in	r29, 0x3e	; 62
    3d1c:	80 91 c5 0a 	lds	r24, 0x0AC5	; 0x800ac5 <prog>
    3d20:	82 33       	cpi	r24, 0x32	; 50
    3d22:	09 f4       	brne	.+2      	; 0x3d26 <Castle()+0x22>
    3d24:	eb c0       	rjmp	.+470    	; 0x3efc <Castle()+0x1f8>
    3d26:	08 f0       	brcs	.+2      	; 0x3d2a <Castle()+0x26>
    3d28:	49 c0       	rjmp	.+146    	; 0x3dbc <Castle()+0xb8>
    3d2a:	84 31       	cpi	r24, 0x14	; 20
    3d2c:	09 f4       	brne	.+2      	; 0x3d30 <Castle()+0x2c>
    3d2e:	c8 c0       	rjmp	.+400    	; 0x3ec0 <Castle()+0x1bc>
    3d30:	10 f5       	brcc	.+68     	; 0x3d76 <Castle()+0x72>
    3d32:	85 30       	cpi	r24, 0x05	; 5
    3d34:	09 f4       	brne	.+2      	; 0x3d38 <Castle()+0x34>
    3d36:	b6 c0       	rjmp	.+364    	; 0x3ea4 <Castle()+0x1a0>
    3d38:	98 f4       	brcc	.+38     	; 0x3d60 <Castle()+0x5c>
    3d3a:	88 23       	and	r24, r24
    3d3c:	09 f4       	brne	.+2      	; 0x3d40 <Castle()+0x3c>
    3d3e:	92 c0       	rjmp	.+292    	; 0x3e64 <Castle()+0x160>
    3d40:	81 30       	cpi	r24, 0x01	; 1
    3d42:	09 f4       	brne	.+2      	; 0x3d46 <Castle()+0x42>
    3d44:	a7 c0       	rjmp	.+334    	; 0x3e94 <Castle()+0x190>
    3d46:	27 96       	adiw	r28, 0x07	; 7
    3d48:	0f b6       	in	r0, 0x3f	; 63
    3d4a:	f8 94       	cli
    3d4c:	de bf       	out	0x3e, r29	; 62
    3d4e:	0f be       	out	0x3f, r0	; 63
    3d50:	cd bf       	out	0x3d, r28	; 61
    3d52:	df 91       	pop	r29
    3d54:	cf 91       	pop	r28
    3d56:	1f 91       	pop	r17
    3d58:	0f 91       	pop	r16
    3d5a:	ff 90       	pop	r15
    3d5c:	ef 90       	pop	r14
    3d5e:	08 95       	ret
    3d60:	8a 30       	cpi	r24, 0x0A	; 10
    3d62:	09 f4       	brne	.+2      	; 0x3d66 <Castle()+0x62>
    3d64:	a7 c0       	rjmp	.+334    	; 0x3eb4 <Castle()+0x1b0>
    3d66:	8f 30       	cpi	r24, 0x0F	; 15
    3d68:	71 f7       	brne	.-36     	; 0x3d46 <Castle()+0x42>
    3d6a:	64 e1       	ldi	r22, 0x14	; 20
    3d6c:	87 ee       	ldi	r24, 0xE7	; 231
    3d6e:	90 e4       	ldi	r25, 0x40	; 64
    3d70:	0e 94 25 0e 	call	0x1c4a	; 0x1c4a <progBlack(unsigned int, unsigned char)>
    3d74:	e8 cf       	rjmp	.-48     	; 0x3d46 <Castle()+0x42>
    3d76:	83 32       	cpi	r24, 0x23	; 35
    3d78:	09 f4       	brne	.+2      	; 0x3d7c <Castle()+0x78>
    3d7a:	b8 c0       	rjmp	.+368    	; 0x3eec <Castle()+0x1e8>
    3d7c:	b0 f4       	brcc	.+44     	; 0x3daa <Castle()+0xa6>
    3d7e:	89 31       	cpi	r24, 0x19	; 25
    3d80:	09 f4       	brne	.+2      	; 0x3d84 <Castle()+0x80>
    3d82:	ae c0       	rjmp	.+348    	; 0x3ee0 <Castle()+0x1dc>
    3d84:	8e 31       	cpi	r24, 0x1E	; 30
    3d86:	f9 f6       	brne	.-66     	; 0x3d46 <Castle()+0x42>
    3d88:	0e 94 cd 09 	call	0x139a	; 0x139a <getRandomColorValue()>
    3d8c:	7c 01       	movw	r14, r24
    3d8e:	0e 94 cd 09 	call	0x139a	; 0x139a <getRandomColorValue()>
    3d92:	8c 01       	movw	r16, r24
    3d94:	0e 94 cd 09 	call	0x139a	; 0x139a <getRandomColorValue()>
    3d98:	9c 01       	movw	r18, r24
    3d9a:	42 e3       	ldi	r20, 0x32	; 50
    3d9c:	50 e0       	ldi	r21, 0x00	; 0
    3d9e:	63 e2       	ldi	r22, 0x23	; 35
    3da0:	86 e3       	ldi	r24, 0x36	; 54
    3da2:	97 e0       	ldi	r25, 0x07	; 7
    3da4:	0e 94 9d 0b 	call	0x173a	; 0x173a <progStrobo(unsigned int, unsigned char, unsigned int, int, int, int)>
    3da8:	ce cf       	rjmp	.-100    	; 0x3d46 <Castle()+0x42>
    3daa:	88 32       	cpi	r24, 0x28	; 40
    3dac:	09 f4       	brne	.+2      	; 0x3db0 <Castle()+0xac>
    3dae:	a4 c0       	rjmp	.+328    	; 0x3ef8 <Castle()+0x1f4>
    3db0:	8d 32       	cpi	r24, 0x2D	; 45
    3db2:	49 f6       	brne	.-110    	; 0x3d46 <Castle()+0x42>
    3db4:	62 e3       	ldi	r22, 0x32	; 50
    3db6:	8b e7       	ldi	r24, 0x7B	; 123
    3db8:	92 e3       	ldi	r25, 0x32	; 50
    3dba:	da cf       	rjmp	.-76     	; 0x3d70 <Castle()+0x6c>
    3dbc:	86 34       	cpi	r24, 0x46	; 70
    3dbe:	09 f4       	brne	.+2      	; 0x3dc2 <Castle()+0xbe>
    3dc0:	b8 c0       	rjmp	.+368    	; 0x3f32 <Castle()+0x22e>
    3dc2:	50 f5       	brcc	.+84     	; 0x3e18 <Castle()+0x114>
    3dc4:	8a 33       	cpi	r24, 0x3A	; 58
    3dc6:	09 f4       	brne	.+2      	; 0x3dca <Castle()+0xc6>
    3dc8:	a6 c0       	rjmp	.+332    	; 0x3f16 <Castle()+0x212>
    3dca:	98 f4       	brcc	.+38     	; 0x3df2 <Castle()+0xee>
    3dcc:	87 33       	cpi	r24, 0x37	; 55
    3dce:	09 f4       	brne	.+2      	; 0x3dd2 <Castle()+0xce>
    3dd0:	9a c0       	rjmp	.+308    	; 0x3f06 <Castle()+0x202>
    3dd2:	88 33       	cpi	r24, 0x38	; 56
    3dd4:	09 f0       	breq	.+2      	; 0x3dd8 <Castle()+0xd4>
    3dd6:	b7 cf       	rjmp	.-146    	; 0x3d46 <Castle()+0x42>
    3dd8:	0e 94 cd 09 	call	0x139a	; 0x139a <getRandomColorValue()>
    3ddc:	7c 01       	movw	r14, r24
    3dde:	0e 94 cd 09 	call	0x139a	; 0x139a <getRandomColorValue()>
    3de2:	8c 01       	movw	r16, r24
    3de4:	0e 94 cd 09 	call	0x139a	; 0x139a <getRandomColorValue()>
    3de8:	9c 01       	movw	r18, r24
    3dea:	42 e3       	ldi	r20, 0x32	; 50
    3dec:	50 e0       	ldi	r21, 0x00	; 0
    3dee:	6a e3       	ldi	r22, 0x3A	; 58
    3df0:	d7 cf       	rjmp	.-82     	; 0x3da0 <Castle()+0x9c>
    3df2:	8c 33       	cpi	r24, 0x3C	; 60
    3df4:	09 f4       	brne	.+2      	; 0x3df8 <Castle()+0xf4>
    3df6:	95 c0       	rjmp	.+298    	; 0x3f22 <Castle()+0x21e>
    3df8:	81 34       	cpi	r24, 0x41	; 65
    3dfa:	09 f0       	breq	.+2      	; 0x3dfe <Castle()+0xfa>
    3dfc:	a4 cf       	rjmp	.-184    	; 0x3d46 <Castle()+0x42>
    3dfe:	ee 24       	eor	r14, r14
    3e00:	ea 94       	dec	r14
    3e02:	f1 2c       	mov	r15, r1
    3e04:	0f ef       	ldi	r16, 0xFF	; 255
    3e06:	10 e0       	ldi	r17, 0x00	; 0
    3e08:	2f ef       	ldi	r18, 0xFF	; 255
    3e0a:	30 e0       	ldi	r19, 0x00	; 0
    3e0c:	42 e3       	ldi	r20, 0x32	; 50
    3e0e:	50 e0       	ldi	r21, 0x00	; 0
    3e10:	66 e4       	ldi	r22, 0x46	; 70
    3e12:	8c e6       	ldi	r24, 0x6C	; 108
    3e14:	9e e0       	ldi	r25, 0x0E	; 14
    3e16:	c6 cf       	rjmp	.-116    	; 0x3da4 <Castle()+0xa0>
    3e18:	85 35       	cpi	r24, 0x55	; 85
    3e1a:	09 f4       	brne	.+2      	; 0x3e1e <Castle()+0x11a>
    3e1c:	9f c0       	rjmp	.+318    	; 0x3f5c <Castle()+0x258>
    3e1e:	98 f4       	brcc	.+38     	; 0x3e46 <Castle()+0x142>
    3e20:	8b 34       	cpi	r24, 0x4B	; 75
    3e22:	09 f4       	brne	.+2      	; 0x3e26 <Castle()+0x122>
    3e24:	95 c0       	rjmp	.+298    	; 0x3f50 <Castle()+0x24c>
    3e26:	80 35       	cpi	r24, 0x50	; 80
    3e28:	09 f0       	breq	.+2      	; 0x3e2c <Castle()+0x128>
    3e2a:	8d cf       	rjmp	.-230    	; 0x3d46 <Castle()+0x42>
    3e2c:	0e 94 cd 09 	call	0x139a	; 0x139a <getRandomColorValue()>
    3e30:	7c 01       	movw	r14, r24
    3e32:	0e 94 cd 09 	call	0x139a	; 0x139a <getRandomColorValue()>
    3e36:	8c 01       	movw	r16, r24
    3e38:	0e 94 cd 09 	call	0x139a	; 0x139a <getRandomColorValue()>
    3e3c:	9c 01       	movw	r18, r24
    3e3e:	42 e3       	ldi	r20, 0x32	; 50
    3e40:	50 e0       	ldi	r21, 0x00	; 0
    3e42:	65 e5       	ldi	r22, 0x55	; 85
    3e44:	e6 cf       	rjmp	.-52     	; 0x3e12 <Castle()+0x10e>
    3e46:	8f 35       	cpi	r24, 0x5F	; 95
    3e48:	09 f4       	brne	.+2      	; 0x3e4c <Castle()+0x148>
    3e4a:	8f c0       	rjmp	.+286    	; 0x3f6a <Castle()+0x266>
    3e4c:	84 36       	cpi	r24, 0x64	; 100
    3e4e:	09 f4       	brne	.+2      	; 0x3e52 <Castle()+0x14e>
    3e50:	98 c0       	rjmp	.+304    	; 0x3f82 <Castle()+0x27e>
    3e52:	8a 35       	cpi	r24, 0x5A	; 90
    3e54:	09 f0       	breq	.+2      	; 0x3e58 <Castle()+0x154>
    3e56:	77 cf       	rjmp	.-274    	; 0x3d46 <Castle()+0x42>
    3e58:	42 ec       	ldi	r20, 0xC2	; 194
    3e5a:	51 e0       	ldi	r21, 0x01	; 1
    3e5c:	6f e5       	ldi	r22, 0x5F	; 95
    3e5e:	87 ec       	ldi	r24, 0xC7	; 199
    3e60:	9f e6       	ldi	r25, 0x6F	; 111
    3e62:	25 c0       	rjmp	.+74     	; 0x3eae <Castle()+0x1aa>
    3e64:	0e 94 e6 09 	call	0x13cc	; 0x13cc <getRandomColor()>
    3e68:	7c 01       	movw	r14, r24
    3e6a:	66 e7       	ldi	r22, 0x76	; 118
    3e6c:	71 e0       	ldi	r23, 0x01	; 1
    3e6e:	ce 01       	movw	r24, r28
    3e70:	01 96       	adiw	r24, 0x01	; 1
    3e72:	0e 94 30 51 	call	0xa260	; 0xa260 <String::String(char const*)>
    3e76:	01 e0       	ldi	r16, 0x01	; 1
    3e78:	97 01       	movw	r18, r14
    3e7a:	44 e6       	ldi	r20, 0x64	; 100
    3e7c:	50 e0       	ldi	r21, 0x00	; 0
    3e7e:	6b e7       	ldi	r22, 0x7B	; 123
    3e80:	72 e3       	ldi	r23, 0x32	; 50
    3e82:	ce 01       	movw	r24, r28
    3e84:	01 96       	adiw	r24, 0x01	; 1
    3e86:	0e 94 4b 13 	call	0x2696	; 0x2696 <progScrollText(String, unsigned int, int, int, unsigned char)>
    3e8a:	ce 01       	movw	r24, r28
    3e8c:	01 96       	adiw	r24, 0x01	; 1
    3e8e:	0e 94 c7 50 	call	0xa18e	; 0xa18e <String::~String()>
    3e92:	59 cf       	rjmp	.-334    	; 0x3d46 <Castle()+0x42>
    3e94:	49 ec       	ldi	r20, 0xC9	; 201
    3e96:	5d e1       	ldi	r21, 0x1D	; 29
    3e98:	65 e0       	ldi	r22, 0x05	; 5
    3e9a:	89 ed       	ldi	r24, 0xD9	; 217
    3e9c:	9c e1       	ldi	r25, 0x1C	; 28
    3e9e:	0e 94 1a 0a 	call	0x1434	; 0x1434 <progBlingBlingColoring(unsigned int, unsigned char, unsigned int)>
    3ea2:	51 cf       	rjmp	.-350    	; 0x3d46 <Castle()+0x42>
    3ea4:	4d e9       	ldi	r20, 0x9D	; 157
    3ea6:	53 e0       	ldi	r21, 0x03	; 3
    3ea8:	6a e0       	ldi	r22, 0x0A	; 10
    3eaa:	89 ed       	ldi	r24, 0xD9	; 217
    3eac:	9c e1       	ldi	r25, 0x1C	; 28
    3eae:	0e 94 cf 0e 	call	0x1d9e	; 0x1d9e <progCircles(unsigned int, unsigned char, unsigned int)>
    3eb2:	49 cf       	rjmp	.-366    	; 0x3d46 <Castle()+0x42>
    3eb4:	6f e0       	ldi	r22, 0x0F	; 15
    3eb6:	82 e6       	ldi	r24, 0x62	; 98
    3eb8:	93 e7       	ldi	r25, 0x73	; 115
    3eba:	0e 94 d1 0c 	call	0x19a2	; 0x19a2 <progMatrixScanner(unsigned int, unsigned char)>
    3ebe:	43 cf       	rjmp	.-378    	; 0x3d46 <Castle()+0x42>
    3ec0:	0e 94 e6 09 	call	0x13cc	; 0x13cc <getRandomColor()>
    3ec4:	59 e1       	ldi	r21, 0x19	; 25
    3ec6:	e5 2e       	mov	r14, r21
    3ec8:	8c 01       	movw	r16, r24
    3eca:	26 e3       	ldi	r18, 0x36	; 54
    3ecc:	37 e0       	ldi	r19, 0x07	; 7
    3ece:	45 e4       	ldi	r20, 0x45	; 69
    3ed0:	51 e0       	ldi	r21, 0x01	; 1
    3ed2:	66 e0       	ldi	r22, 0x06	; 6
    3ed4:	70 e0       	ldi	r23, 0x00	; 0
    3ed6:	8c ef       	ldi	r24, 0xFC	; 252
    3ed8:	99 e0       	ldi	r25, 0x09	; 9
    3eda:	0e 94 d2 14 	call	0x29a4	; 0x29a4 <progWordArray(String*, int, int, unsigned int, int, unsigned char)>
    3ede:	33 cf       	rjmp	.-410    	; 0x3d46 <Castle()+0x42>
    3ee0:	42 ec       	ldi	r20, 0xC2	; 194
    3ee2:	51 e0       	ldi	r21, 0x01	; 1
    3ee4:	6e e1       	ldi	r22, 0x1E	; 30
    3ee6:	8b e7       	ldi	r24, 0x7B	; 123
    3ee8:	92 e3       	ldi	r25, 0x32	; 50
    3eea:	e1 cf       	rjmp	.-62     	; 0x3eae <Castle()+0x1aa>
    3eec:	42 ec       	ldi	r20, 0xC2	; 194
    3eee:	51 e0       	ldi	r21, 0x01	; 1
    3ef0:	68 e2       	ldi	r22, 0x28	; 40
    3ef2:	81 eb       	ldi	r24, 0xB1	; 177
    3ef4:	99 e3       	ldi	r25, 0x39	; 57
    3ef6:	db cf       	rjmp	.-74     	; 0x3eae <Castle()+0x1aa>
    3ef8:	6d e2       	ldi	r22, 0x2D	; 45
    3efa:	dd cf       	rjmp	.-70     	; 0x3eb6 <Castle()+0x1b2>
    3efc:	0e 94 e6 09 	call	0x13cc	; 0x13cc <getRandomColor()>
    3f00:	47 e3       	ldi	r20, 0x37	; 55
    3f02:	e4 2e       	mov	r14, r20
    3f04:	e1 cf       	rjmp	.-62     	; 0x3ec8 <Castle()+0x1c4>
    3f06:	42 ec       	ldi	r20, 0xC2	; 194
    3f08:	51 e0       	ldi	r21, 0x01	; 1
    3f0a:	68 e3       	ldi	r22, 0x38	; 56
    3f0c:	8b e7       	ldi	r24, 0x7B	; 123
    3f0e:	92 e3       	ldi	r25, 0x32	; 50
    3f10:	0e 94 7b 0f 	call	0x1ef6	; 0x1ef6 <progRandomLines(unsigned int, unsigned char, unsigned int)>
    3f14:	18 cf       	rjmp	.-464    	; 0x3d46 <Castle()+0x42>
    3f16:	42 ec       	ldi	r20, 0xC2	; 194
    3f18:	51 e0       	ldi	r21, 0x01	; 1
    3f1a:	6c e3       	ldi	r22, 0x3C	; 60
    3f1c:	81 eb       	ldi	r24, 0xB1	; 177
    3f1e:	99 e3       	ldi	r25, 0x39	; 57
    3f20:	f7 cf       	rjmp	.-18     	; 0x3f10 <Castle()+0x20c>
    3f22:	41 e4       	ldi	r20, 0x41	; 65
    3f24:	6a e3       	ldi	r22, 0x3A	; 58
    3f26:	77 e0       	ldi	r23, 0x07	; 7
    3f28:	86 e8       	ldi	r24, 0x86	; 134
    3f2a:	9d e4       	ldi	r25, 0x4D	; 77
    3f2c:	0e 94 d4 0c 	call	0x19a8	; 0x19a8 <progStern(unsigned int, int, unsigned char)>
    3f30:	0a cf       	rjmp	.-492    	; 0x3d46 <Castle()+0x42>
    3f32:	0e 94 cd 09 	call	0x139a	; 0x139a <getRandomColorValue()>
    3f36:	7c 01       	movw	r14, r24
    3f38:	0e 94 cd 09 	call	0x139a	; 0x139a <getRandomColorValue()>
    3f3c:	8c 01       	movw	r16, r24
    3f3e:	0e 94 cd 09 	call	0x139a	; 0x139a <getRandomColorValue()>
    3f42:	9c 01       	movw	r18, r24
    3f44:	42 e3       	ldi	r20, 0x32	; 50
    3f46:	50 e0       	ldi	r21, 0x00	; 0
    3f48:	6b e4       	ldi	r22, 0x4B	; 75
    3f4a:	80 e7       	ldi	r24, 0x70	; 112
    3f4c:	97 e1       	ldi	r25, 0x17	; 23
    3f4e:	2a cf       	rjmp	.-428    	; 0x3da4 <Castle()+0xa0>
    3f50:	40 e5       	ldi	r20, 0x50	; 80
    3f52:	6a e3       	ldi	r22, 0x3A	; 58
    3f54:	77 e0       	ldi	r23, 0x07	; 7
    3f56:	81 eb       	ldi	r24, 0xB1	; 177
    3f58:	99 e3       	ldi	r25, 0x39	; 57
    3f5a:	e8 cf       	rjmp	.-48     	; 0x3f2c <Castle()+0x228>
    3f5c:	4a e5       	ldi	r20, 0x5A	; 90
    3f5e:	65 e0       	ldi	r22, 0x05	; 5
    3f60:	82 e6       	ldi	r24, 0x62	; 98
    3f62:	93 e7       	ldi	r25, 0x73	; 115
    3f64:	0e 94 2c 0b 	call	0x1658	; 0x1658 <progFastBlingBling(unsigned int, unsigned char, unsigned char)>
    3f68:	ee ce       	rjmp	.-548    	; 0x3d46 <Castle()+0x42>
    3f6a:	0e 94 e6 09 	call	0x13cc	; 0x13cc <getRandomColor()>
    3f6e:	29 e0       	ldi	r18, 0x09	; 9
    3f70:	e2 2e       	mov	r14, r18
    3f72:	8c 01       	movw	r16, r24
    3f74:	20 e6       	ldi	r18, 0x60	; 96
    3f76:	3a ee       	ldi	r19, 0xEA	; 234
    3f78:	45 e4       	ldi	r20, 0x45	; 69
    3f7a:	51 e0       	ldi	r21, 0x01	; 1
    3f7c:	64 e6       	ldi	r22, 0x64	; 100
    3f7e:	70 e0       	ldi	r23, 0x00	; 0
    3f80:	aa cf       	rjmp	.-172    	; 0x3ed6 <Castle()+0x1d2>
    3f82:	60 e0       	ldi	r22, 0x00	; 0
    3f84:	8a ed       	ldi	r24, 0xDA	; 218
    3f86:	90 e1       	ldi	r25, 0x10	; 16
    3f88:	0e 94 91 44 	call	0x8922	; 0x8922 <CFastLED::clear(bool)>
    3f8c:	80 e0       	ldi	r24, 0x00	; 0
    3f8e:	52 dc       	rcall	.-1884   	; 0x3834 <switchToSong(unsigned char)>
    3f90:	da ce       	rjmp	.-588    	; 0x3d46 <Castle()+0x42>

00003f92 <TooClose()>:
    3f92:	ef 92       	push	r14
    3f94:	ff 92       	push	r15
    3f96:	0f 93       	push	r16
    3f98:	1f 93       	push	r17
    3f9a:	cf 93       	push	r28
    3f9c:	df 93       	push	r29
    3f9e:	00 d0       	rcall	.+0      	; 0x3fa0 <TooClose()+0xe>
    3fa0:	00 d0       	rcall	.+0      	; 0x3fa2 <TooClose()+0x10>
    3fa2:	00 d0       	rcall	.+0      	; 0x3fa4 <TooClose()+0x12>
    3fa4:	1f 92       	push	r1
    3fa6:	cd b7       	in	r28, 0x3d	; 61
    3fa8:	de b7       	in	r29, 0x3e	; 62
    3faa:	80 91 c5 0a 	lds	r24, 0x0AC5	; 0x800ac5 <prog>
    3fae:	8e 31       	cpi	r24, 0x1E	; 30
    3fb0:	09 f4       	brne	.+2      	; 0x3fb4 <TooClose()+0x22>
    3fb2:	9f c0       	rjmp	.+318    	; 0x40f2 <TooClose()+0x160>
    3fb4:	f0 f5       	brcc	.+124    	; 0x4032 <TooClose()+0xa0>
    3fb6:	8a 30       	cpi	r24, 0x0A	; 10
    3fb8:	09 f4       	brne	.+2      	; 0x3fbc <TooClose()+0x2a>
    3fba:	7d c0       	rjmp	.+250    	; 0x40b6 <TooClose()+0x124>
    3fbc:	60 f5       	brcc	.+88     	; 0x4016 <TooClose()+0x84>
    3fbe:	82 30       	cpi	r24, 0x02	; 2
    3fc0:	09 f4       	brne	.+2      	; 0x3fc4 <TooClose()+0x32>
    3fc2:	69 c0       	rjmp	.+210    	; 0x4096 <TooClose()+0x104>
    3fc4:	85 30       	cpi	r24, 0x05	; 5
    3fc6:	09 f4       	brne	.+2      	; 0x3fca <TooClose()+0x38>
    3fc8:	6e c0       	rjmp	.+220    	; 0x40a6 <TooClose()+0x114>
    3fca:	81 11       	cpse	r24, r1
    3fcc:	17 c0       	rjmp	.+46     	; 0x3ffc <TooClose()+0x6a>
    3fce:	0e 94 e6 09 	call	0x13cc	; 0x13cc <getRandomColor()>
    3fd2:	7c 01       	movw	r14, r24
    3fd4:	67 e8       	ldi	r22, 0x87	; 135
    3fd6:	71 e0       	ldi	r23, 0x01	; 1
    3fd8:	ce 01       	movw	r24, r28
    3fda:	01 96       	adiw	r24, 0x01	; 1
    3fdc:	0e 94 30 51 	call	0xa260	; 0xa260 <String::String(char const*)>
    3fe0:	02 e0       	ldi	r16, 0x02	; 2
    3fe2:	97 01       	movw	r18, r14
    3fe4:	4b e4       	ldi	r20, 0x4B	; 75
    3fe6:	50 e0       	ldi	r21, 0x00	; 0
    3fe8:	61 e8       	ldi	r22, 0x81	; 129
    3fea:	7e e2       	ldi	r23, 0x2E	; 46
    3fec:	ce 01       	movw	r24, r28
    3fee:	01 96       	adiw	r24, 0x01	; 1
    3ff0:	0e 94 4b 13 	call	0x2696	; 0x2696 <progScrollText(String, unsigned int, int, int, unsigned char)>
    3ff4:	ce 01       	movw	r24, r28
    3ff6:	01 96       	adiw	r24, 0x01	; 1
    3ff8:	0e 94 c7 50 	call	0xa18e	; 0xa18e <String::~String()>
    3ffc:	27 96       	adiw	r28, 0x07	; 7
    3ffe:	0f b6       	in	r0, 0x3f	; 63
    4000:	f8 94       	cli
    4002:	de bf       	out	0x3e, r29	; 62
    4004:	0f be       	out	0x3f, r0	; 63
    4006:	cd bf       	out	0x3d, r28	; 61
    4008:	df 91       	pop	r29
    400a:	cf 91       	pop	r28
    400c:	1f 91       	pop	r17
    400e:	0f 91       	pop	r16
    4010:	ff 90       	pop	r15
    4012:	ef 90       	pop	r14
    4014:	08 95       	ret
    4016:	84 31       	cpi	r24, 0x14	; 20
    4018:	09 f4       	brne	.+2      	; 0x401c <TooClose()+0x8a>
    401a:	55 c0       	rjmp	.+170    	; 0x40c6 <TooClose()+0x134>
    401c:	89 31       	cpi	r24, 0x19	; 25
    401e:	09 f4       	brne	.+2      	; 0x4022 <TooClose()+0x90>
    4020:	58 c0       	rjmp	.+176    	; 0x40d2 <TooClose()+0x140>
    4022:	8f 30       	cpi	r24, 0x0F	; 15
    4024:	59 f7       	brne	.-42     	; 0x3ffc <TooClose()+0x6a>
    4026:	46 eb       	ldi	r20, 0xB6	; 182
    4028:	53 e0       	ldi	r21, 0x03	; 3
    402a:	64 e1       	ldi	r22, 0x14	; 20
    402c:	89 e7       	ldi	r24, 0x79	; 121
    402e:	9b e3       	ldi	r25, 0x3B	; 59
    4030:	37 c0       	rjmp	.+110    	; 0x40a0 <TooClose()+0x10e>
    4032:	82 33       	cpi	r24, 0x32	; 50
    4034:	09 f4       	brne	.+2      	; 0x4038 <TooClose()+0xa6>
    4036:	72 c0       	rjmp	.+228    	; 0x411c <TooClose()+0x18a>
    4038:	b8 f4       	brcc	.+46     	; 0x4068 <TooClose()+0xd6>
    403a:	88 32       	cpi	r24, 0x28	; 40
    403c:	09 f4       	brne	.+2      	; 0x4040 <TooClose()+0xae>
    403e:	61 c0       	rjmp	.+194    	; 0x4102 <TooClose()+0x170>
    4040:	8d 32       	cpi	r24, 0x2D	; 45
    4042:	09 f4       	brne	.+2      	; 0x4046 <TooClose()+0xb4>
    4044:	64 c0       	rjmp	.+200    	; 0x410e <TooClose()+0x17c>
    4046:	83 32       	cpi	r24, 0x23	; 35
    4048:	c9 f6       	brne	.-78     	; 0x3ffc <TooClose()+0x6a>
    404a:	ee 24       	eor	r14, r14
    404c:	ea 94       	dec	r14
    404e:	f1 2c       	mov	r15, r1
    4050:	0f ef       	ldi	r16, 0xFF	; 255
    4052:	10 e0       	ldi	r17, 0x00	; 0
    4054:	2f ef       	ldi	r18, 0xFF	; 255
    4056:	30 e0       	ldi	r19, 0x00	; 0
    4058:	4b e4       	ldi	r20, 0x4B	; 75
    405a:	50 e0       	ldi	r21, 0x00	; 0
    405c:	68 e2       	ldi	r22, 0x28	; 40
    405e:	89 e7       	ldi	r24, 0x79	; 121
    4060:	9b e3       	ldi	r25, 0x3B	; 59
    4062:	0e 94 9d 0b 	call	0x173a	; 0x173a <progStrobo(unsigned int, unsigned char, unsigned int, int, int, int)>
    4066:	ca cf       	rjmp	.-108    	; 0x3ffc <TooClose()+0x6a>
    4068:	8c 33       	cpi	r24, 0x3C	; 60
    406a:	09 f4       	brne	.+2      	; 0x406e <TooClose()+0xdc>
    406c:	5d c0       	rjmp	.+186    	; 0x4128 <TooClose()+0x196>
    406e:	84 36       	cpi	r24, 0x64	; 100
    4070:	09 f4       	brne	.+2      	; 0x4074 <TooClose()+0xe2>
    4072:	62 c0       	rjmp	.+196    	; 0x4138 <TooClose()+0x1a6>
    4074:	87 33       	cpi	r24, 0x37	; 55
    4076:	11 f6       	brne	.-124    	; 0x3ffc <TooClose()+0x6a>
    4078:	0e 94 cd 09 	call	0x139a	; 0x139a <getRandomColorValue()>
    407c:	7c 01       	movw	r14, r24
    407e:	0e 94 cd 09 	call	0x139a	; 0x139a <getRandomColorValue()>
    4082:	8c 01       	movw	r16, r24
    4084:	0e 94 cd 09 	call	0x139a	; 0x139a <getRandomColorValue()>
    4088:	9c 01       	movw	r18, r24
    408a:	4b e4       	ldi	r20, 0x4B	; 75
    408c:	50 e0       	ldi	r21, 0x00	; 0
    408e:	6c e3       	ldi	r22, 0x3C	; 60
    4090:	80 eb       	ldi	r24, 0xB0	; 176
    4092:	9d e1       	ldi	r25, 0x1D	; 29
    4094:	e6 cf       	rjmp	.-52     	; 0x4062 <TooClose()+0xd0>
    4096:	46 eb       	ldi	r20, 0xB6	; 182
    4098:	53 e0       	ldi	r21, 0x03	; 3
    409a:	65 e0       	ldi	r22, 0x05	; 5
    409c:	82 e7       	ldi	r24, 0x72	; 114
    409e:	94 e6       	ldi	r25, 0x64	; 100
    40a0:	0e 94 cf 0e 	call	0x1d9e	; 0x1d9e <progCircles(unsigned int, unsigned char, unsigned int)>
    40a4:	ab cf       	rjmp	.-170    	; 0x3ffc <TooClose()+0x6a>
    40a6:	4b ed       	ldi	r20, 0xDB	; 219
    40a8:	51 e0       	ldi	r21, 0x01	; 1
    40aa:	6a e0       	ldi	r22, 0x0A	; 10
    40ac:	84 e8       	ldi	r24, 0x84	; 132
    40ae:	92 eb       	ldi	r25, 0xB2	; 178
    40b0:	0e 94 7b 0f 	call	0x1ef6	; 0x1ef6 <progRandomLines(unsigned int, unsigned char, unsigned int)>
    40b4:	a3 cf       	rjmp	.-186    	; 0x3ffc <TooClose()+0x6a>
    40b6:	46 eb       	ldi	r20, 0xB6	; 182
    40b8:	53 e0       	ldi	r21, 0x03	; 3
    40ba:	6f e0       	ldi	r22, 0x0F	; 15
    40bc:	8b e0       	ldi	r24, 0x0B	; 11
    40be:	97 e7       	ldi	r25, 0x77	; 119
    40c0:	0e 94 38 0b 	call	0x1670	; 0x1670 <progFullColors(unsigned int, unsigned char, unsigned int)>
    40c4:	9b cf       	rjmp	.-202    	; 0x3ffc <TooClose()+0x6a>
    40c6:	4b ed       	ldi	r20, 0xDB	; 219
    40c8:	51 e0       	ldi	r21, 0x01	; 1
    40ca:	69 e1       	ldi	r22, 0x19	; 25
    40cc:	8b e0       	ldi	r24, 0x0B	; 11
    40ce:	97 e7       	ldi	r25, 0x77	; 119
    40d0:	ef cf       	rjmp	.-34     	; 0x40b0 <TooClose()+0x11e>
    40d2:	0e 94 e6 09 	call	0x13cc	; 0x13cc <getRandomColor()>
    40d6:	2e e1       	ldi	r18, 0x1E	; 30
    40d8:	e2 2e       	mov	r14, r18
    40da:	8c 01       	movw	r16, r24
    40dc:	2b e2       	ldi	r18, 0x2B	; 43
    40de:	36 e1       	ldi	r19, 0x16	; 22
    40e0:	4b ed       	ldi	r20, 0xDB	; 219
    40e2:	51 e0       	ldi	r21, 0x01	; 1
    40e4:	6a e0       	ldi	r22, 0x0A	; 10
    40e6:	70 e0       	ldi	r23, 0x00	; 0
    40e8:	86 e2       	ldi	r24, 0x26	; 38
    40ea:	9a e0       	ldi	r25, 0x0A	; 10
    40ec:	0e 94 d2 14 	call	0x29a4	; 0x29a4 <progWordArray(String*, int, int, unsigned int, int, unsigned char)>
    40f0:	85 cf       	rjmp	.-246    	; 0x3ffc <TooClose()+0x6a>
    40f2:	43 e2       	ldi	r20, 0x23	; 35
    40f4:	6c e6       	ldi	r22, 0x6C	; 108
    40f6:	77 e0       	ldi	r23, 0x07	; 7
    40f8:	87 ec       	ldi	r24, 0xC7	; 199
    40fa:	90 e6       	ldi	r25, 0x60	; 96
    40fc:	0e 94 d4 0c 	call	0x19a8	; 0x19a8 <progStern(unsigned int, int, unsigned char)>
    4100:	7d cf       	rjmp	.-262    	; 0x3ffc <TooClose()+0x6a>
    4102:	48 eb       	ldi	r20, 0xB8	; 184
    4104:	53 e0       	ldi	r21, 0x03	; 3
    4106:	6d e2       	ldi	r22, 0x2D	; 45
    4108:	89 e7       	ldi	r24, 0x79	; 121
    410a:	9b e3       	ldi	r25, 0x3B	; 59
    410c:	d9 cf       	rjmp	.-78     	; 0x40c0 <TooClose()+0x12e>
    410e:	42 e3       	ldi	r20, 0x32	; 50
    4110:	65 e0       	ldi	r22, 0x05	; 5
    4112:	80 eb       	ldi	r24, 0xB0	; 176
    4114:	9d e1       	ldi	r25, 0x1D	; 29
    4116:	0e 94 2c 0b 	call	0x1658	; 0x1658 <progFastBlingBling(unsigned int, unsigned char, unsigned char)>
    411a:	70 cf       	rjmp	.-288    	; 0x3ffc <TooClose()+0x6a>
    411c:	46 eb       	ldi	r20, 0xB6	; 182
    411e:	53 e0       	ldi	r21, 0x03	; 3
    4120:	67 e3       	ldi	r22, 0x37	; 55
    4122:	80 eb       	ldi	r24, 0xB0	; 176
    4124:	9d e1       	ldi	r25, 0x1D	; 29
    4126:	cc cf       	rjmp	.-104    	; 0x40c0 <TooClose()+0x12e>
    4128:	49 ec       	ldi	r20, 0xC9	; 201
    412a:	5d e1       	ldi	r21, 0x1D	; 29
    412c:	64 e6       	ldi	r22, 0x64	; 100
    412e:	8f ef       	ldi	r24, 0xFF	; 255
    4130:	9f ef       	ldi	r25, 0xFF	; 255
    4132:	0e 94 1a 0a 	call	0x1434	; 0x1434 <progBlingBlingColoring(unsigned int, unsigned char, unsigned int)>
    4136:	62 cf       	rjmp	.-316    	; 0x3ffc <TooClose()+0x6a>
    4138:	60 e0       	ldi	r22, 0x00	; 0
    413a:	8a ed       	ldi	r24, 0xDA	; 218
    413c:	90 e1       	ldi	r25, 0x10	; 16
    413e:	0e 94 91 44 	call	0x8922	; 0x8922 <CFastLED::clear(bool)>
    4142:	80 e0       	ldi	r24, 0x00	; 0
    4144:	77 db       	rcall	.-2322   	; 0x3834 <switchToSong(unsigned char)>
    4146:	5a cf       	rjmp	.-332    	; 0x3ffc <TooClose()+0x6a>

00004148 <Pokerface()>:
    4148:	ef 92       	push	r14
    414a:	ff 92       	push	r15
    414c:	0f 93       	push	r16
    414e:	1f 93       	push	r17
    4150:	cf 93       	push	r28
    4152:	df 93       	push	r29
    4154:	00 d0       	rcall	.+0      	; 0x4156 <Pokerface()+0xe>
    4156:	00 d0       	rcall	.+0      	; 0x4158 <Pokerface()+0x10>
    4158:	00 d0       	rcall	.+0      	; 0x415a <Pokerface()+0x12>
    415a:	1f 92       	push	r1
    415c:	cd b7       	in	r28, 0x3d	; 61
    415e:	de b7       	in	r29, 0x3e	; 62
    4160:	80 91 c5 0a 	lds	r24, 0x0AC5	; 0x800ac5 <prog>
    4164:	8e 31       	cpi	r24, 0x1E	; 30
    4166:	09 f4       	brne	.+2      	; 0x416a <Pokerface()+0x22>
    4168:	ad c0       	rjmp	.+346    	; 0x42c4 <Pokerface()+0x17c>
    416a:	90 f5       	brcc	.+100    	; 0x41d0 <Pokerface()+0x88>
    416c:	85 30       	cpi	r24, 0x05	; 5
    416e:	09 f4       	brne	.+2      	; 0x4172 <Pokerface()+0x2a>
    4170:	90 c0       	rjmp	.+288    	; 0x4292 <Pokerface()+0x14a>
    4172:	b8 f4       	brcc	.+46     	; 0x41a2 <Pokerface()+0x5a>
    4174:	81 30       	cpi	r24, 0x01	; 1
    4176:	09 f4       	brne	.+2      	; 0x417a <Pokerface()+0x32>
    4178:	85 c0       	rjmp	.+266    	; 0x4284 <Pokerface()+0x13c>
    417a:	08 f4       	brcc	.+2      	; 0x417e <Pokerface()+0x36>
    417c:	6b c0       	rjmp	.+214    	; 0x4254 <Pokerface()+0x10c>
    417e:	45 e0       	ldi	r20, 0x05	; 5
    4180:	64 e0       	ldi	r22, 0x04	; 4
    4182:	82 30       	cpi	r24, 0x02	; 2
    4184:	09 f4       	brne	.+2      	; 0x4188 <Pokerface()+0x40>
    4186:	80 c0       	rjmp	.+256    	; 0x4288 <Pokerface()+0x140>
    4188:	27 96       	adiw	r28, 0x07	; 7
    418a:	0f b6       	in	r0, 0x3f	; 63
    418c:	f8 94       	cli
    418e:	de bf       	out	0x3e, r29	; 62
    4190:	0f be       	out	0x3f, r0	; 63
    4192:	cd bf       	out	0x3d, r28	; 61
    4194:	df 91       	pop	r29
    4196:	cf 91       	pop	r28
    4198:	1f 91       	pop	r17
    419a:	0f 91       	pop	r16
    419c:	ff 90       	pop	r15
    419e:	ef 90       	pop	r14
    41a0:	08 95       	ret
    41a2:	8f 30       	cpi	r24, 0x0F	; 15
    41a4:	09 f4       	brne	.+2      	; 0x41a8 <Pokerface()+0x60>
    41a6:	79 c0       	rjmp	.+242    	; 0x429a <Pokerface()+0x152>
    41a8:	30 f4       	brcc	.+12     	; 0x41b6 <Pokerface()+0x6e>
    41aa:	8a 30       	cpi	r24, 0x0A	; 10
    41ac:	69 f7       	brne	.-38     	; 0x4188 <Pokerface()+0x40>
    41ae:	89 e0       	ldi	r24, 0x09	; 9
    41b0:	0e 94 86 09 	call	0x130c	; 0x130c <display_rgbBitmap(unsigned char)>
    41b4:	e9 cf       	rjmp	.-46     	; 0x4188 <Pokerface()+0x40>
    41b6:	84 31       	cpi	r24, 0x14	; 20
    41b8:	09 f4       	brne	.+2      	; 0x41bc <Pokerface()+0x74>
    41ba:	73 c0       	rjmp	.+230    	; 0x42a2 <Pokerface()+0x15a>
    41bc:	44 ef       	ldi	r20, 0xF4	; 244
    41be:	51 e0       	ldi	r21, 0x01	; 1
    41c0:	6e e1       	ldi	r22, 0x1E	; 30
    41c2:	89 31       	cpi	r24, 0x19	; 25
    41c4:	09 f7       	brne	.-62     	; 0x4188 <Pokerface()+0x40>
    41c6:	86 e0       	ldi	r24, 0x06	; 6
    41c8:	9f e3       	ldi	r25, 0x3F	; 63
    41ca:	0e 94 cf 0e 	call	0x1d9e	; 0x1d9e <progCircles(unsigned int, unsigned char, unsigned int)>
    41ce:	dc cf       	rjmp	.-72     	; 0x4188 <Pokerface()+0x40>
    41d0:	87 33       	cpi	r24, 0x37	; 55
    41d2:	09 f4       	brne	.+2      	; 0x41d6 <Pokerface()+0x8e>
    41d4:	8f c0       	rjmp	.+286    	; 0x42f4 <Pokerface()+0x1ac>
    41d6:	d0 f4       	brcc	.+52     	; 0x420c <Pokerface()+0xc4>
    41d8:	88 32       	cpi	r24, 0x28	; 40
    41da:	09 f4       	brne	.+2      	; 0x41de <Pokerface()+0x96>
    41dc:	78 c0       	rjmp	.+240    	; 0x42ce <Pokerface()+0x186>
    41de:	50 f4       	brcc	.+20     	; 0x41f4 <Pokerface()+0xac>
    41e0:	44 ef       	ldi	r20, 0xF4	; 244
    41e2:	51 e0       	ldi	r21, 0x01	; 1
    41e4:	68 e2       	ldi	r22, 0x28	; 40
    41e6:	83 32       	cpi	r24, 0x23	; 35
    41e8:	79 f6       	brne	.-98     	; 0x4188 <Pokerface()+0x40>
    41ea:	86 e0       	ldi	r24, 0x06	; 6
    41ec:	9f e3       	ldi	r25, 0x3F	; 63
    41ee:	0e 94 38 0b 	call	0x1670	; 0x1670 <progFullColors(unsigned int, unsigned char, unsigned int)>
    41f2:	ca cf       	rjmp	.-108    	; 0x4188 <Pokerface()+0x40>
    41f4:	8d 32       	cpi	r24, 0x2D	; 45
    41f6:	09 f4       	brne	.+2      	; 0x41fa <Pokerface()+0xb2>
    41f8:	77 c0       	rjmp	.+238    	; 0x42e8 <Pokerface()+0x1a0>
    41fa:	82 33       	cpi	r24, 0x32	; 50
    41fc:	29 f6       	brne	.-118    	; 0x4188 <Pokerface()+0x40>
    41fe:	47 e3       	ldi	r20, 0x37	; 55
    4200:	67 e0       	ldi	r22, 0x07	; 7
    4202:	8d ef       	ldi	r24, 0xFD	; 253
    4204:	9e e3       	ldi	r25, 0x3E	; 62
    4206:	0e 94 2c 0b 	call	0x1658	; 0x1658 <progFastBlingBling(unsigned int, unsigned char, unsigned char)>
    420a:	be cf       	rjmp	.-132    	; 0x4188 <Pokerface()+0x40>
    420c:	81 34       	cpi	r24, 0x41	; 65
    420e:	09 f4       	brne	.+2      	; 0x4212 <Pokerface()+0xca>
    4210:	75 c0       	rjmp	.+234    	; 0x42fc <Pokerface()+0x1b4>
    4212:	90 f4       	brcc	.+36     	; 0x4238 <Pokerface()+0xf0>
    4214:	8c 33       	cpi	r24, 0x3C	; 60
    4216:	09 f0       	breq	.+2      	; 0x421a <Pokerface()+0xd2>
    4218:	b7 cf       	rjmp	.-146    	; 0x4188 <Pokerface()+0x40>
    421a:	0e 94 cd 09 	call	0x139a	; 0x139a <getRandomColorValue()>
    421e:	7c 01       	movw	r14, r24
    4220:	0e 94 cd 09 	call	0x139a	; 0x139a <getRandomColorValue()>
    4224:	8c 01       	movw	r16, r24
    4226:	0e 94 cd 09 	call	0x139a	; 0x139a <getRandomColorValue()>
    422a:	9c 01       	movw	r18, r24
    422c:	4b e4       	ldi	r20, 0x4B	; 75
    422e:	50 e0       	ldi	r21, 0x00	; 0
    4230:	61 e4       	ldi	r22, 0x41	; 65
    4232:	84 e4       	ldi	r24, 0x44	; 68
    4234:	9f e2       	ldi	r25, 0x2F	; 47
    4236:	43 c0       	rjmp	.+134    	; 0x42be <Pokerface()+0x176>
    4238:	86 34       	cpi	r24, 0x46	; 70
    423a:	09 f4       	brne	.+2      	; 0x423e <Pokerface()+0xf6>
    423c:	64 c0       	rjmp	.+200    	; 0x4306 <Pokerface()+0x1be>
    423e:	84 36       	cpi	r24, 0x64	; 100
    4240:	09 f0       	breq	.+2      	; 0x4244 <Pokerface()+0xfc>
    4242:	a2 cf       	rjmp	.-188    	; 0x4188 <Pokerface()+0x40>
    4244:	60 e0       	ldi	r22, 0x00	; 0
    4246:	8a ed       	ldi	r24, 0xDA	; 218
    4248:	90 e1       	ldi	r25, 0x10	; 16
    424a:	0e 94 91 44 	call	0x8922	; 0x8922 <CFastLED::clear(bool)>
    424e:	80 e0       	ldi	r24, 0x00	; 0
    4250:	f1 da       	rcall	.-2590   	; 0x3834 <switchToSong(unsigned char)>
    4252:	9a cf       	rjmp	.-204    	; 0x4188 <Pokerface()+0x40>
    4254:	0e 94 e6 09 	call	0x13cc	; 0x13cc <getRandomColor()>
    4258:	7c 01       	movw	r14, r24
    425a:	6f e9       	ldi	r22, 0x9F	; 159
    425c:	71 e0       	ldi	r23, 0x01	; 1
    425e:	ce 01       	movw	r24, r28
    4260:	01 96       	adiw	r24, 0x01	; 1
    4262:	0e 94 30 51 	call	0xa260	; 0xa260 <String::String(char const*)>
    4266:	01 e0       	ldi	r16, 0x01	; 1
    4268:	97 01       	movw	r18, r14
    426a:	4b e4       	ldi	r20, 0x4B	; 75
    426c:	50 e0       	ldi	r21, 0x00	; 0
    426e:	6e e0       	ldi	r22, 0x0E	; 14
    4270:	7d e3       	ldi	r23, 0x3D	; 61
    4272:	ce 01       	movw	r24, r28
    4274:	01 96       	adiw	r24, 0x01	; 1
    4276:	0e 94 4b 13 	call	0x2696	; 0x2696 <progScrollText(String, unsigned int, int, int, unsigned char)>
    427a:	ce 01       	movw	r24, r28
    427c:	01 96       	adiw	r24, 0x01	; 1
    427e:	0e 94 c7 50 	call	0xa18e	; 0xa18e <String::~String()>
    4282:	82 cf       	rjmp	.-252    	; 0x4188 <Pokerface()+0x40>
    4284:	42 e0       	ldi	r20, 0x02	; 2
    4286:	63 e0       	ldi	r22, 0x03	; 3
    4288:	83 e8       	ldi	r24, 0x83	; 131
    428a:	9f e1       	ldi	r25, 0x1F	; 31
    428c:	0e 94 83 16 	call	0x2d06	; 0x2d06 <progPalette(unsigned int, unsigned char, unsigned char)>
    4290:	7b cf       	rjmp	.-266    	; 0x4188 <Pokerface()+0x40>
    4292:	44 ef       	ldi	r20, 0xF4	; 244
    4294:	51 e0       	ldi	r21, 0x01	; 1
    4296:	6a e0       	ldi	r22, 0x0A	; 10
    4298:	96 cf       	rjmp	.-212    	; 0x41c6 <Pokerface()+0x7e>
    429a:	44 ef       	ldi	r20, 0xF4	; 244
    429c:	51 e0       	ldi	r21, 0x01	; 1
    429e:	64 e1       	ldi	r22, 0x14	; 20
    42a0:	a4 cf       	rjmp	.-184    	; 0x41ea <Pokerface()+0xa2>
    42a2:	0e 94 cd 09 	call	0x139a	; 0x139a <getRandomColorValue()>
    42a6:	7c 01       	movw	r14, r24
    42a8:	0e 94 cd 09 	call	0x139a	; 0x139a <getRandomColorValue()>
    42ac:	8c 01       	movw	r16, r24
    42ae:	0e 94 cd 09 	call	0x139a	; 0x139a <getRandomColorValue()>
    42b2:	9c 01       	movw	r18, r24
    42b4:	4b e4       	ldi	r20, 0x4B	; 75
    42b6:	50 e0       	ldi	r21, 0x00	; 0
    42b8:	69 e1       	ldi	r22, 0x19	; 25
    42ba:	86 e0       	ldi	r24, 0x06	; 6
    42bc:	9f e3       	ldi	r25, 0x3F	; 63
    42be:	0e 94 9d 0b 	call	0x173a	; 0x173a <progStrobo(unsigned int, unsigned char, unsigned int, int, int, int)>
    42c2:	62 cf       	rjmp	.-316    	; 0x4188 <Pokerface()+0x40>
    42c4:	43 e2       	ldi	r20, 0x23	; 35
    42c6:	64 e0       	ldi	r22, 0x04	; 4
    42c8:	86 e0       	ldi	r24, 0x06	; 6
    42ca:	9f e3       	ldi	r25, 0x3F	; 63
    42cc:	df cf       	rjmp	.-66     	; 0x428c <Pokerface()+0x144>
    42ce:	0e 94 cd 09 	call	0x139a	; 0x139a <getRandomColorValue()>
    42d2:	7c 01       	movw	r14, r24
    42d4:	0e 94 cd 09 	call	0x139a	; 0x139a <getRandomColorValue()>
    42d8:	8c 01       	movw	r16, r24
    42da:	0e 94 cd 09 	call	0x139a	; 0x139a <getRandomColorValue()>
    42de:	9c 01       	movw	r18, r24
    42e0:	4b e4       	ldi	r20, 0x4B	; 75
    42e2:	50 e0       	ldi	r21, 0x00	; 0
    42e4:	6d e2       	ldi	r22, 0x2D	; 45
    42e6:	e9 cf       	rjmp	.-46     	; 0x42ba <Pokerface()+0x172>
    42e8:	62 e3       	ldi	r22, 0x32	; 50
    42ea:	82 e7       	ldi	r24, 0x72	; 114
    42ec:	9f e1       	ldi	r25, 0x1F	; 31
    42ee:	0e 94 d1 0c 	call	0x19a2	; 0x19a2 <progMatrixScanner(unsigned int, unsigned char)>
    42f2:	4a cf       	rjmp	.-364    	; 0x4188 <Pokerface()+0x40>
    42f4:	44 ef       	ldi	r20, 0xF4	; 244
    42f6:	51 e0       	ldi	r21, 0x01	; 1
    42f8:	6c e3       	ldi	r22, 0x3C	; 60
    42fa:	77 cf       	rjmp	.-274    	; 0x41ea <Pokerface()+0xa2>
    42fc:	46 e4       	ldi	r20, 0x46	; 70
    42fe:	6c e0       	ldi	r22, 0x0C	; 12
    4300:	89 eb       	ldi	r24, 0xB9	; 185
    4302:	9f e0       	ldi	r25, 0x0F	; 15
    4304:	80 cf       	rjmp	.-256    	; 0x4206 <Pokerface()+0xbe>
    4306:	64 e6       	ldi	r22, 0x64	; 100
    4308:	80 e1       	ldi	r24, 0x10	; 16
    430a:	97 e2       	ldi	r25, 0x27	; 39
    430c:	0e 94 25 0e 	call	0x1c4a	; 0x1c4a <progBlack(unsigned int, unsigned char)>
    4310:	3b cf       	rjmp	.-394    	; 0x4188 <Pokerface()+0x40>

00004312 <UseSomebody()>:
    4312:	ef 92       	push	r14
    4314:	ff 92       	push	r15
    4316:	0f 93       	push	r16
    4318:	1f 93       	push	r17
    431a:	cf 93       	push	r28
    431c:	df 93       	push	r29
    431e:	00 d0       	rcall	.+0      	; 0x4320 <UseSomebody()+0xe>
    4320:	00 d0       	rcall	.+0      	; 0x4322 <UseSomebody()+0x10>
    4322:	00 d0       	rcall	.+0      	; 0x4324 <UseSomebody()+0x12>
    4324:	1f 92       	push	r1
    4326:	cd b7       	in	r28, 0x3d	; 61
    4328:	de b7       	in	r29, 0x3e	; 62
    432a:	80 91 c5 0a 	lds	r24, 0x0AC5	; 0x800ac5 <prog>
    432e:	84 31       	cpi	r24, 0x14	; 20
    4330:	09 f4       	brne	.+2      	; 0x4334 <UseSomebody()+0x22>
    4332:	75 c0       	rjmp	.+234    	; 0x441e <UseSomebody()+0x10c>
    4334:	48 f5       	brcc	.+82     	; 0x4388 <UseSomebody()+0x76>
    4336:	82 30       	cpi	r24, 0x02	; 2
    4338:	09 f4       	brne	.+2      	; 0x433c <UseSomebody()+0x2a>
    433a:	5c c0       	rjmp	.+184    	; 0x43f4 <UseSomebody()+0xe2>
    433c:	a8 f4       	brcc	.+42     	; 0x4368 <UseSomebody()+0x56>
    433e:	88 23       	and	r24, r24
    4340:	09 f4       	brne	.+2      	; 0x4344 <UseSomebody()+0x32>
    4342:	40 c0       	rjmp	.+128    	; 0x43c4 <UseSomebody()+0xb2>
    4344:	42 e0       	ldi	r20, 0x02	; 2
    4346:	63 e0       	ldi	r22, 0x03	; 3
    4348:	81 30       	cpi	r24, 0x01	; 1
    434a:	09 f4       	brne	.+2      	; 0x434e <UseSomebody()+0x3c>
    434c:	7b c0       	rjmp	.+246    	; 0x4444 <UseSomebody()+0x132>
    434e:	27 96       	adiw	r28, 0x07	; 7
    4350:	0f b6       	in	r0, 0x3f	; 63
    4352:	f8 94       	cli
    4354:	de bf       	out	0x3e, r29	; 62
    4356:	0f be       	out	0x3f, r0	; 63
    4358:	cd bf       	out	0x3d, r28	; 61
    435a:	df 91       	pop	r29
    435c:	cf 91       	pop	r28
    435e:	1f 91       	pop	r17
    4360:	0f 91       	pop	r16
    4362:	ff 90       	pop	r15
    4364:	ef 90       	pop	r14
    4366:	08 95       	ret
    4368:	8a 30       	cpi	r24, 0x0A	; 10
    436a:	09 f4       	brne	.+2      	; 0x436e <UseSomebody()+0x5c>
    436c:	4a c0       	rjmp	.+148    	; 0x4402 <UseSomebody()+0xf0>
    436e:	8f 30       	cpi	r24, 0x0F	; 15
    4370:	09 f4       	brne	.+2      	; 0x4374 <UseSomebody()+0x62>
    4372:	4d c0       	rjmp	.+154    	; 0x440e <UseSomebody()+0xfc>
    4374:	85 30       	cpi	r24, 0x05	; 5
    4376:	59 f7       	brne	.-42     	; 0x434e <UseSomebody()+0x3c>
    4378:	49 ea       	ldi	r20, 0xA9	; 169
    437a:	51 e0       	ldi	r21, 0x01	; 1
    437c:	6a e0       	ldi	r22, 0x0A	; 10
    437e:	82 eb       	ldi	r24, 0xB2	; 178
    4380:	9c e6       	ldi	r25, 0x6C	; 108
    4382:	0e 94 cf 0e 	call	0x1d9e	; 0x1d9e <progCircles(unsigned int, unsigned char, unsigned int)>
    4386:	e3 cf       	rjmp	.-58     	; 0x434e <UseSomebody()+0x3c>
    4388:	88 32       	cpi	r24, 0x28	; 40
    438a:	09 f4       	brne	.+2      	; 0x438e <UseSomebody()+0x7c>
    438c:	62 c0       	rjmp	.+196    	; 0x4452 <UseSomebody()+0x140>
    438e:	60 f4       	brcc	.+24     	; 0x43a8 <UseSomebody()+0x96>
    4390:	8e 31       	cpi	r24, 0x1E	; 30
    4392:	09 f4       	brne	.+2      	; 0x4396 <UseSomebody()+0x84>
    4394:	55 c0       	rjmp	.+170    	; 0x4440 <UseSomebody()+0x12e>
    4396:	83 32       	cpi	r24, 0x23	; 35
    4398:	09 f4       	brne	.+2      	; 0x439c <UseSomebody()+0x8a>
    439a:	57 c0       	rjmp	.+174    	; 0x444a <UseSomebody()+0x138>
    439c:	89 31       	cpi	r24, 0x19	; 25
    439e:	b9 f6       	brne	.-82     	; 0x434e <UseSomebody()+0x3c>
    43a0:	49 ea       	ldi	r20, 0xA9	; 169
    43a2:	51 e0       	ldi	r21, 0x01	; 1
    43a4:	6e e1       	ldi	r22, 0x1E	; 30
    43a6:	eb cf       	rjmp	.-42     	; 0x437e <UseSomebody()+0x6c>
    43a8:	86 34       	cpi	r24, 0x46	; 70
    43aa:	09 f4       	brne	.+2      	; 0x43ae <UseSomebody()+0x9c>
    43ac:	61 c0       	rjmp	.+194    	; 0x4470 <UseSomebody()+0x15e>
    43ae:	84 36       	cpi	r24, 0x64	; 100
    43b0:	09 f4       	brne	.+2      	; 0x43b4 <UseSomebody()+0xa2>
    43b2:	64 c0       	rjmp	.+200    	; 0x447c <UseSomebody()+0x16a>
    43b4:	8d 32       	cpi	r24, 0x2D	; 45
    43b6:	59 f6       	brne	.-106    	; 0x434e <UseSomebody()+0x3c>
    43b8:	66 e4       	ldi	r22, 0x46	; 70
    43ba:	89 e5       	ldi	r24, 0x59	; 89
    43bc:	96 e3       	ldi	r25, 0x36	; 54
    43be:	0e 94 d1 0c 	call	0x19a2	; 0x19a2 <progMatrixScanner(unsigned int, unsigned char)>
    43c2:	c5 cf       	rjmp	.-118    	; 0x434e <UseSomebody()+0x3c>
    43c4:	0e 94 e6 09 	call	0x13cc	; 0x13cc <getRandomColor()>
    43c8:	7c 01       	movw	r14, r24
    43ca:	66 eb       	ldi	r22, 0xB6	; 182
    43cc:	71 e0       	ldi	r23, 0x01	; 1
    43ce:	ce 01       	movw	r24, r28
    43d0:	01 96       	adiw	r24, 0x01	; 1
    43d2:	0e 94 30 51 	call	0xa260	; 0xa260 <String::String(char const*)>
    43d6:	01 e0       	ldi	r16, 0x01	; 1
    43d8:	97 01       	movw	r18, r14
    43da:	4b e4       	ldi	r20, 0x4B	; 75
    43dc:	50 e0       	ldi	r21, 0x00	; 0
    43de:	63 ed       	ldi	r22, 0xD3	; 211
    43e0:	7f e4       	ldi	r23, 0x4F	; 79
    43e2:	ce 01       	movw	r24, r28
    43e4:	01 96       	adiw	r24, 0x01	; 1
    43e6:	0e 94 4b 13 	call	0x2696	; 0x2696 <progScrollText(String, unsigned int, int, int, unsigned char)>
    43ea:	ce 01       	movw	r24, r28
    43ec:	01 96       	adiw	r24, 0x01	; 1
    43ee:	0e 94 c7 50 	call	0xa18e	; 0xa18e <String::~String()>
    43f2:	ad cf       	rjmp	.-166    	; 0x434e <UseSomebody()+0x3c>
    43f4:	45 e0       	ldi	r20, 0x05	; 5
    43f6:	64 e0       	ldi	r22, 0x04	; 4
    43f8:	82 eb       	ldi	r24, 0xB2	; 178
    43fa:	9c e6       	ldi	r25, 0x6C	; 108
    43fc:	0e 94 83 16 	call	0x2d06	; 0x2d06 <progPalette(unsigned int, unsigned char, unsigned char)>
    4400:	a6 cf       	rjmp	.-180    	; 0x434e <UseSomebody()+0x3c>
    4402:	6f e0       	ldi	r22, 0x0F	; 15
    4404:	82 eb       	ldi	r24, 0xB2	; 178
    4406:	9c e6       	ldi	r25, 0x6C	; 108
    4408:	0e 94 7d 0f 	call	0x1efa	; 0x1efa <progMovingLines(unsigned int, unsigned char)>
    440c:	a0 cf       	rjmp	.-192    	; 0x434e <UseSomebody()+0x3c>
    440e:	49 ea       	ldi	r20, 0xA9	; 169
    4410:	51 e0       	ldi	r21, 0x01	; 1
    4412:	64 e1       	ldi	r22, 0x14	; 20
    4414:	89 e5       	ldi	r24, 0x59	; 89
    4416:	96 e3       	ldi	r25, 0x36	; 54
    4418:	0e 94 38 0b 	call	0x1670	; 0x1670 <progFullColors(unsigned int, unsigned char, unsigned int)>
    441c:	98 cf       	rjmp	.-208    	; 0x434e <UseSomebody()+0x3c>
    441e:	0e 94 cd 09 	call	0x139a	; 0x139a <getRandomColorValue()>
    4422:	7c 01       	movw	r14, r24
    4424:	0e 94 cd 09 	call	0x139a	; 0x139a <getRandomColorValue()>
    4428:	8c 01       	movw	r16, r24
    442a:	0e 94 cd 09 	call	0x139a	; 0x139a <getRandomColorValue()>
    442e:	9c 01       	movw	r18, r24
    4430:	4b e4       	ldi	r20, 0x4B	; 75
    4432:	50 e0       	ldi	r21, 0x00	; 0
    4434:	69 e1       	ldi	r22, 0x19	; 25
    4436:	89 e5       	ldi	r24, 0x59	; 89
    4438:	96 e3       	ldi	r25, 0x36	; 54
    443a:	0e 94 9d 0b 	call	0x173a	; 0x173a <progStrobo(unsigned int, unsigned char, unsigned int, int, int, int)>
    443e:	87 cf       	rjmp	.-242    	; 0x434e <UseSomebody()+0x3c>
    4440:	43 e2       	ldi	r20, 0x23	; 35
    4442:	64 e0       	ldi	r22, 0x04	; 4
    4444:	89 e5       	ldi	r24, 0x59	; 89
    4446:	96 e3       	ldi	r25, 0x36	; 54
    4448:	d9 cf       	rjmp	.-78     	; 0x43fc <UseSomebody()+0xea>
    444a:	49 ea       	ldi	r20, 0xA9	; 169
    444c:	51 e0       	ldi	r21, 0x01	; 1
    444e:	68 e2       	ldi	r22, 0x28	; 40
    4450:	e1 cf       	rjmp	.-62     	; 0x4414 <UseSomebody()+0x102>
    4452:	0e 94 cd 09 	call	0x139a	; 0x139a <getRandomColorValue()>
    4456:	7c 01       	movw	r14, r24
    4458:	0e 94 cd 09 	call	0x139a	; 0x139a <getRandomColorValue()>
    445c:	8c 01       	movw	r16, r24
    445e:	0e 94 cd 09 	call	0x139a	; 0x139a <getRandomColorValue()>
    4462:	9c 01       	movw	r18, r24
    4464:	4b e4       	ldi	r20, 0x4B	; 75
    4466:	50 e0       	ldi	r21, 0x00	; 0
    4468:	6d e2       	ldi	r22, 0x2D	; 45
    446a:	8f ee       	ldi	r24, 0xEF	; 239
    446c:	93 e4       	ldi	r25, 0x43	; 67
    446e:	e5 cf       	rjmp	.-54     	; 0x443a <UseSomebody()+0x128>
    4470:	64 e6       	ldi	r22, 0x64	; 100
    4472:	80 e1       	ldi	r24, 0x10	; 16
    4474:	97 e2       	ldi	r25, 0x27	; 39
    4476:	0e 94 25 0e 	call	0x1c4a	; 0x1c4a <progBlack(unsigned int, unsigned char)>
    447a:	69 cf       	rjmp	.-302    	; 0x434e <UseSomebody()+0x3c>
    447c:	60 e0       	ldi	r22, 0x00	; 0
    447e:	8a ed       	ldi	r24, 0xDA	; 218
    4480:	90 e1       	ldi	r25, 0x10	; 16
    4482:	0e 94 91 44 	call	0x8922	; 0x8922 <CFastLED::clear(bool)>
    4486:	80 e0       	ldi	r24, 0x00	; 0
    4488:	d5 d9       	rcall	.-3158   	; 0x3834 <switchToSong(unsigned char)>
    448a:	61 cf       	rjmp	.-318    	; 0x434e <UseSomebody()+0x3c>

0000448c <NoRoots()>:
    448c:	ef 92       	push	r14
    448e:	ff 92       	push	r15
    4490:	0f 93       	push	r16
    4492:	1f 93       	push	r17
    4494:	cf 93       	push	r28
    4496:	df 93       	push	r29
    4498:	00 d0       	rcall	.+0      	; 0x449a <NoRoots()+0xe>
    449a:	00 d0       	rcall	.+0      	; 0x449c <NoRoots()+0x10>
    449c:	00 d0       	rcall	.+0      	; 0x449e <NoRoots()+0x12>
    449e:	1f 92       	push	r1
    44a0:	cd b7       	in	r28, 0x3d	; 61
    44a2:	de b7       	in	r29, 0x3e	; 62
    44a4:	e0 91 c5 0a 	lds	r30, 0x0AC5	; 0x800ac5 <prog>
    44a8:	e5 36       	cpi	r30, 0x65	; 101
    44aa:	08 f0       	brcs	.+2      	; 0x44ae <NoRoots()+0x22>
    44ac:	81 c0       	rjmp	.+258    	; 0x45b0 <NoRoots()+0x124>
    44ae:	f0 e0       	ldi	r31, 0x00	; 0
    44b0:	e4 5a       	subi	r30, 0xA4	; 164
    44b2:	fd 4d       	sbci	r31, 0xDD	; 221
    44b4:	0c 94 68 53 	jmp	0xa6d0	; 0xa6d0 <__tablejump2__>
    44b8:	c1 22       	and	r12, r17
    44ba:	e5 22       	and	r14, r21
    44bc:	ec 22       	and	r14, r28
    44be:	d8 22       	and	r13, r24
    44c0:	d8 22       	and	r13, r24
    44c2:	f1 22       	and	r15, r17
    44c4:	f9 22       	and	r15, r25
    44c6:	ff 22       	and	r15, r31
    44c8:	05 23       	and	r16, r21
    44ca:	0b 23       	and	r16, r27
    44cc:	0d 23       	and	r16, r29
    44ce:	15 23       	and	r17, r21
    44d0:	26 23       	and	r18, r22
    44d2:	28 23       	and	r18, r24
    44d4:	2c 23       	and	r18, r28
    44d6:	2e 23       	and	r18, r30
    44d8:	d8 22       	and	r13, r24
    44da:	d8 22       	and	r13, r24
    44dc:	32 23       	and	r19, r18
    44de:	d8 22       	and	r13, r24
    44e0:	41 23       	and	r20, r17
    44e2:	d8 22       	and	r13, r24
    44e4:	d8 22       	and	r13, r24
    44e6:	d8 22       	and	r13, r24
    44e8:	d8 22       	and	r13, r24
    44ea:	44 23       	and	r20, r20
    44ec:	d8 22       	and	r13, r24
    44ee:	48 23       	and	r20, r24
    44f0:	d8 22       	and	r13, r24
    44f2:	4d 23       	and	r20, r29
    44f4:	d8 22       	and	r13, r24
    44f6:	4f 23       	and	r20, r31
    44f8:	d8 22       	and	r13, r24
    44fa:	53 23       	and	r21, r19
    44fc:	d8 22       	and	r13, r24
    44fe:	55 23       	and	r21, r21
    4500:	d8 22       	and	r13, r24
    4502:	59 23       	and	r21, r25
    4504:	d8 22       	and	r13, r24
    4506:	66 23       	and	r22, r22
    4508:	d8 22       	and	r13, r24
    450a:	68 23       	and	r22, r24
    450c:	d8 22       	and	r13, r24
    450e:	6c 23       	and	r22, r28
    4510:	d8 22       	and	r13, r24
    4512:	6e 23       	and	r22, r30
    4514:	d8 22       	and	r13, r24
    4516:	72 23       	and	r23, r18
    4518:	d8 22       	and	r13, r24
    451a:	7f 23       	and	r23, r31
    451c:	d8 22       	and	r13, r24
    451e:	85 23       	and	r24, r21
    4520:	d8 22       	and	r13, r24
    4522:	8b 23       	and	r24, r27
    4524:	d8 22       	and	r13, r24
    4526:	93 23       	and	r25, r19
    4528:	d8 22       	and	r13, r24
    452a:	9a 23       	and	r25, r26
    452c:	d8 22       	and	r13, r24
    452e:	9e 23       	and	r25, r30
    4530:	d8 22       	and	r13, r24
    4532:	a3 23       	and	r26, r19
    4534:	d8 22       	and	r13, r24
    4536:	d8 22       	and	r13, r24
    4538:	d8 22       	and	r13, r24
    453a:	d8 22       	and	r13, r24
    453c:	d8 22       	and	r13, r24
    453e:	d8 22       	and	r13, r24
    4540:	d8 22       	and	r13, r24
    4542:	d8 22       	and	r13, r24
    4544:	d8 22       	and	r13, r24
    4546:	d8 22       	and	r13, r24
    4548:	d8 22       	and	r13, r24
    454a:	d8 22       	and	r13, r24
    454c:	d8 22       	and	r13, r24
    454e:	d8 22       	and	r13, r24
    4550:	d8 22       	and	r13, r24
    4552:	d8 22       	and	r13, r24
    4554:	d8 22       	and	r13, r24
    4556:	d8 22       	and	r13, r24
    4558:	d8 22       	and	r13, r24
    455a:	d8 22       	and	r13, r24
    455c:	d8 22       	and	r13, r24
    455e:	d8 22       	and	r13, r24
    4560:	d8 22       	and	r13, r24
    4562:	d8 22       	and	r13, r24
    4564:	d8 22       	and	r13, r24
    4566:	d8 22       	and	r13, r24
    4568:	d8 22       	and	r13, r24
    456a:	d8 22       	and	r13, r24
    456c:	d8 22       	and	r13, r24
    456e:	d8 22       	and	r13, r24
    4570:	d8 22       	and	r13, r24
    4572:	d8 22       	and	r13, r24
    4574:	d8 22       	and	r13, r24
    4576:	d8 22       	and	r13, r24
    4578:	d8 22       	and	r13, r24
    457a:	d8 22       	and	r13, r24
    457c:	d8 22       	and	r13, r24
    457e:	d8 22       	and	r13, r24
    4580:	a7 23       	and	r26, r23
    4582:	0e 94 e6 09 	call	0x13cc	; 0x13cc <getRandomColor()>
    4586:	7c 01       	movw	r14, r24
    4588:	64 ed       	ldi	r22, 0xD4	; 212
    458a:	71 e0       	ldi	r23, 0x01	; 1
    458c:	ce 01       	movw	r24, r28
    458e:	01 96       	adiw	r24, 0x01	; 1
    4590:	0e 94 30 51 	call	0xa260	; 0xa260 <String::String(char const*)>
    4594:	01 e0       	ldi	r16, 0x01	; 1
    4596:	97 01       	movw	r18, r14
    4598:	4b e4       	ldi	r20, 0x4B	; 75
    459a:	50 e0       	ldi	r21, 0x00	; 0
    459c:	69 e7       	ldi	r22, 0x79	; 121
    459e:	7e e2       	ldi	r23, 0x2E	; 46
    45a0:	ce 01       	movw	r24, r28
    45a2:	01 96       	adiw	r24, 0x01	; 1
    45a4:	0e 94 4b 13 	call	0x2696	; 0x2696 <progScrollText(String, unsigned int, int, int, unsigned char)>
    45a8:	ce 01       	movw	r24, r28
    45aa:	01 96       	adiw	r24, 0x01	; 1
    45ac:	0e 94 c7 50 	call	0xa18e	; 0xa18e <String::~String()>
    45b0:	27 96       	adiw	r28, 0x07	; 7
    45b2:	0f b6       	in	r0, 0x3f	; 63
    45b4:	f8 94       	cli
    45b6:	de bf       	out	0x3e, r29	; 62
    45b8:	0f be       	out	0x3f, r0	; 63
    45ba:	cd bf       	out	0x3d, r28	; 61
    45bc:	df 91       	pop	r29
    45be:	cf 91       	pop	r28
    45c0:	1f 91       	pop	r17
    45c2:	0f 91       	pop	r16
    45c4:	ff 90       	pop	r15
    45c6:	ef 90       	pop	r14
    45c8:	08 95       	ret
    45ca:	42 e0       	ldi	r20, 0x02	; 2
    45cc:	67 e0       	ldi	r22, 0x07	; 7
    45ce:	83 e5       	ldi	r24, 0x53	; 83
    45d0:	90 e2       	ldi	r25, 0x20	; 32
    45d2:	0e 94 83 16 	call	0x2d06	; 0x2d06 <progPalette(unsigned int, unsigned char, unsigned char)>
    45d6:	ec cf       	rjmp	.-40     	; 0x45b0 <NoRoots()+0x124>
    45d8:	45 e0       	ldi	r20, 0x05	; 5
    45da:	66 e0       	ldi	r22, 0x06	; 6
    45dc:	86 ea       	ldi	r24, 0xA6	; 166
    45de:	90 e4       	ldi	r25, 0x40	; 64
    45e0:	f8 cf       	rjmp	.-16     	; 0x45d2 <NoRoots()+0x146>
    45e2:	44 ef       	ldi	r20, 0xF4	; 244
    45e4:	51 e0       	ldi	r21, 0x01	; 1
    45e6:	66 e0       	ldi	r22, 0x06	; 6
    45e8:	86 ea       	ldi	r24, 0xA6	; 166
    45ea:	90 e4       	ldi	r25, 0x40	; 64
    45ec:	0e 94 cf 0e 	call	0x1d9e	; 0x1d9e <progCircles(unsigned int, unsigned char, unsigned int)>
    45f0:	df cf       	rjmp	.-66     	; 0x45b0 <NoRoots()+0x124>
    45f2:	67 e0       	ldi	r22, 0x07	; 7
    45f4:	86 e4       	ldi	r24, 0x46	; 70
    45f6:	9e e1       	ldi	r25, 0x1E	; 30
    45f8:	0e 94 7d 0f 	call	0x1efa	; 0x1efa <progMovingLines(unsigned int, unsigned char)>
    45fc:	d9 cf       	rjmp	.-78     	; 0x45b0 <NoRoots()+0x124>
    45fe:	68 e0       	ldi	r22, 0x08	; 8
    4600:	8e e0       	ldi	r24, 0x0E	; 14
    4602:	96 e0       	ldi	r25, 0x06	; 6
    4604:	0e 94 fc 13 	call	0x27f8	; 0x27f8 <progShowROOTS(unsigned int, unsigned char)>
    4608:	d3 cf       	rjmp	.-90     	; 0x45b0 <NoRoots()+0x124>
    460a:	44 ef       	ldi	r20, 0xF4	; 244
    460c:	51 e0       	ldi	r21, 0x01	; 1
    460e:	69 e0       	ldi	r22, 0x09	; 9
    4610:	8f e0       	ldi	r24, 0x0F	; 15
    4612:	9a e0       	ldi	r25, 0x0A	; 10
    4614:	07 c0       	rjmp	.+14     	; 0x4624 <NoRoots()+0x198>
    4616:	6a e0       	ldi	r22, 0x0A	; 10
    4618:	f3 cf       	rjmp	.-26     	; 0x4600 <NoRoots()+0x174>
    461a:	44 ef       	ldi	r20, 0xF4	; 244
    461c:	51 e0       	ldi	r21, 0x01	; 1
    461e:	6b e0       	ldi	r22, 0x0B	; 11
    4620:	8c e1       	ldi	r24, 0x1C	; 28
    4622:	9c e0       	ldi	r25, 0x0C	; 12
    4624:	0e 94 38 0b 	call	0x1670	; 0x1670 <progFullColors(unsigned int, unsigned char, unsigned int)>
    4628:	c3 cf       	rjmp	.-122    	; 0x45b0 <NoRoots()+0x124>
    462a:	0e 94 cd 09 	call	0x139a	; 0x139a <getRandomColorValue()>
    462e:	7c 01       	movw	r14, r24
    4630:	0e 94 cd 09 	call	0x139a	; 0x139a <getRandomColorValue()>
    4634:	8c 01       	movw	r16, r24
    4636:	0e 94 cd 09 	call	0x139a	; 0x139a <getRandomColorValue()>
    463a:	9c 01       	movw	r18, r24
    463c:	4b e4       	ldi	r20, 0x4B	; 75
    463e:	50 e0       	ldi	r21, 0x00	; 0
    4640:	6c e0       	ldi	r22, 0x0C	; 12
    4642:	86 e4       	ldi	r24, 0x46	; 70
    4644:	9e e1       	ldi	r25, 0x1E	; 30
    4646:	0e 94 9d 0b 	call	0x173a	; 0x173a <progStrobo(unsigned int, unsigned char, unsigned int, int, int, int)>
    464a:	b2 cf       	rjmp	.-156    	; 0x45b0 <NoRoots()+0x124>
    464c:	6d e0       	ldi	r22, 0x0D	; 13
    464e:	d8 cf       	rjmp	.-80     	; 0x4600 <NoRoots()+0x174>
    4650:	44 ef       	ldi	r20, 0xF4	; 244
    4652:	51 e0       	ldi	r21, 0x01	; 1
    4654:	6e e0       	ldi	r22, 0x0E	; 14
    4656:	dc cf       	rjmp	.-72     	; 0x4610 <NoRoots()+0x184>
    4658:	6f e0       	ldi	r22, 0x0F	; 15
    465a:	d2 cf       	rjmp	.-92     	; 0x4600 <NoRoots()+0x174>
    465c:	44 ef       	ldi	r20, 0xF4	; 244
    465e:	51 e0       	ldi	r21, 0x01	; 1
    4660:	62 e1       	ldi	r22, 0x12	; 18
    4662:	de cf       	rjmp	.-68     	; 0x4620 <NoRoots()+0x194>
    4664:	0e 94 cd 09 	call	0x139a	; 0x139a <getRandomColorValue()>
    4668:	7c 01       	movw	r14, r24
    466a:	0e 94 cd 09 	call	0x139a	; 0x139a <getRandomColorValue()>
    466e:	8c 01       	movw	r16, r24
    4670:	0e 94 cd 09 	call	0x139a	; 0x139a <getRandomColorValue()>
    4674:	9c 01       	movw	r18, r24
    4676:	4b e4       	ldi	r20, 0x4B	; 75
    4678:	50 e0       	ldi	r21, 0x00	; 0
    467a:	64 e1       	ldi	r22, 0x14	; 20
    467c:	83 e5       	ldi	r24, 0x53	; 83
    467e:	90 e2       	ldi	r25, 0x20	; 32
    4680:	e2 cf       	rjmp	.-60     	; 0x4646 <NoRoots()+0x1ba>
    4682:	49 e1       	ldi	r20, 0x19	; 25
    4684:	68 e0       	ldi	r22, 0x08	; 8
    4686:	aa cf       	rjmp	.-172    	; 0x45dc <NoRoots()+0x150>
    4688:	44 ef       	ldi	r20, 0xF4	; 244
    468a:	51 e0       	ldi	r21, 0x01	; 1
    468c:	6b e1       	ldi	r22, 0x1B	; 27
    468e:	ac cf       	rjmp	.-168    	; 0x45e8 <NoRoots()+0x15c>
    4690:	4d e1       	ldi	r20, 0x1D	; 29
    4692:	64 e0       	ldi	r22, 0x04	; 4
    4694:	86 e4       	ldi	r24, 0x46	; 70
    4696:	9e e1       	ldi	r25, 0x1E	; 30
    4698:	9c cf       	rjmp	.-200    	; 0x45d2 <NoRoots()+0x146>
    469a:	6f e1       	ldi	r22, 0x1F	; 31
    469c:	b1 cf       	rjmp	.-158    	; 0x4600 <NoRoots()+0x174>
    469e:	44 ef       	ldi	r20, 0xF4	; 244
    46a0:	51 e0       	ldi	r21, 0x01	; 1
    46a2:	61 e2       	ldi	r22, 0x21	; 33
    46a4:	b5 cf       	rjmp	.-150    	; 0x4610 <NoRoots()+0x184>
    46a6:	63 e2       	ldi	r22, 0x23	; 35
    46a8:	ab cf       	rjmp	.-170    	; 0x4600 <NoRoots()+0x174>
    46aa:	44 ef       	ldi	r20, 0xF4	; 244
    46ac:	51 e0       	ldi	r21, 0x01	; 1
    46ae:	65 e2       	ldi	r22, 0x25	; 37
    46b0:	b7 cf       	rjmp	.-146    	; 0x4620 <NoRoots()+0x194>
    46b2:	0e 94 cd 09 	call	0x139a	; 0x139a <getRandomColorValue()>
    46b6:	7c 01       	movw	r14, r24
    46b8:	0e 94 cd 09 	call	0x139a	; 0x139a <getRandomColorValue()>
    46bc:	8c 01       	movw	r16, r24
    46be:	0e 94 cd 09 	call	0x139a	; 0x139a <getRandomColorValue()>
    46c2:	9c 01       	movw	r18, r24
    46c4:	4b e4       	ldi	r20, 0x4B	; 75
    46c6:	50 e0       	ldi	r21, 0x00	; 0
    46c8:	67 e2       	ldi	r22, 0x27	; 39
    46ca:	bb cf       	rjmp	.-138    	; 0x4642 <NoRoots()+0x1b6>
    46cc:	69 e2       	ldi	r22, 0x29	; 41
    46ce:	98 cf       	rjmp	.-208    	; 0x4600 <NoRoots()+0x174>
    46d0:	44 ef       	ldi	r20, 0xF4	; 244
    46d2:	51 e0       	ldi	r21, 0x01	; 1
    46d4:	6b e2       	ldi	r22, 0x2B	; 43
    46d6:	9c cf       	rjmp	.-200    	; 0x4610 <NoRoots()+0x184>
    46d8:	6d e2       	ldi	r22, 0x2D	; 45
    46da:	92 cf       	rjmp	.-220    	; 0x4600 <NoRoots()+0x174>
    46dc:	44 ef       	ldi	r20, 0xF4	; 244
    46de:	51 e0       	ldi	r21, 0x01	; 1
    46e0:	6f e2       	ldi	r22, 0x2F	; 47
    46e2:	9e cf       	rjmp	.-196    	; 0x4620 <NoRoots()+0x194>
    46e4:	0e 94 cd 09 	call	0x139a	; 0x139a <getRandomColorValue()>
    46e8:	7c 01       	movw	r14, r24
    46ea:	0e 94 cd 09 	call	0x139a	; 0x139a <getRandomColorValue()>
    46ee:	8c 01       	movw	r16, r24
    46f0:	0e 94 cd 09 	call	0x139a	; 0x139a <getRandomColorValue()>
    46f4:	9c 01       	movw	r18, r24
    46f6:	4b e4       	ldi	r20, 0x4B	; 75
    46f8:	50 e0       	ldi	r21, 0x00	; 0
    46fa:	61 e3       	ldi	r22, 0x31	; 49
    46fc:	bf cf       	rjmp	.-130    	; 0x467c <NoRoots()+0x1f0>
    46fe:	63 e3       	ldi	r22, 0x33	; 51
    4700:	88 ea       	ldi	r24, 0xA8	; 168
    4702:	98 e4       	ldi	r25, 0x48	; 72
    4704:	0e 94 5e 17 	call	0x2ebc	; 0x2ebc <progMatrixHorizontal(unsigned int, unsigned char)>
    4708:	53 cf       	rjmp	.-346    	; 0x45b0 <NoRoots()+0x124>
    470a:	65 e3       	ldi	r22, 0x35	; 53
    470c:	86 ea       	ldi	r24, 0xA6	; 166
    470e:	90 e4       	ldi	r25, 0x40	; 64
    4710:	0e 94 d1 0c 	call	0x19a2	; 0x19a2 <progMatrixScanner(unsigned int, unsigned char)>
    4714:	4d cf       	rjmp	.-358    	; 0x45b0 <NoRoots()+0x124>
    4716:	47 e3       	ldi	r20, 0x37	; 55
    4718:	64 ef       	ldi	r22, 0xF4	; 244
    471a:	71 e0       	ldi	r23, 0x01	; 1
    471c:	83 e5       	ldi	r24, 0x53	; 83
    471e:	90 e2       	ldi	r25, 0x20	; 32
    4720:	0e 94 d4 0c 	call	0x19a8	; 0x19a8 <progStern(unsigned int, int, unsigned char)>
    4724:	45 cf       	rjmp	.-374    	; 0x45b0 <NoRoots()+0x124>
    4726:	49 e3       	ldi	r20, 0x39	; 57
    4728:	67 e0       	ldi	r22, 0x07	; 7
    472a:	83 e5       	ldi	r24, 0x53	; 83
    472c:	90 e2       	ldi	r25, 0x20	; 32
    472e:	0e 94 2c 0b 	call	0x1658	; 0x1658 <progFastBlingBling(unsigned int, unsigned char, unsigned char)>
    4732:	3e cf       	rjmp	.-388    	; 0x45b0 <NoRoots()+0x124>
    4734:	4b e3       	ldi	r20, 0x3B	; 59
    4736:	6a ef       	ldi	r22, 0xFA	; 250
    4738:	70 e0       	ldi	r23, 0x00	; 0
    473a:	f0 cf       	rjmp	.-32     	; 0x471c <NoRoots()+0x290>
    473c:	4d e3       	ldi	r20, 0x3D	; 61
    473e:	6c e0       	ldi	r22, 0x0C	; 12
    4740:	8f e4       	ldi	r24, 0x4F	; 79
    4742:	9e e1       	ldi	r25, 0x1E	; 30
    4744:	f4 cf       	rjmp	.-24     	; 0x472e <NoRoots()+0x2a2>
    4746:	64 e6       	ldi	r22, 0x64	; 100
    4748:	80 e3       	ldi	r24, 0x30	; 48
    474a:	95 e7       	ldi	r25, 0x75	; 117
    474c:	5b cf       	rjmp	.-330    	; 0x4604 <NoRoots()+0x178>
    474e:	60 e0       	ldi	r22, 0x00	; 0
    4750:	8a ed       	ldi	r24, 0xDA	; 218
    4752:	90 e1       	ldi	r25, 0x10	; 16
    4754:	0e 94 91 44 	call	0x8922	; 0x8922 <CFastLED::clear(bool)>
    4758:	80 e0       	ldi	r24, 0x00	; 0
    475a:	6c d8       	rcall	.-3880   	; 0x3834 <switchToSong(unsigned char)>
    475c:	29 cf       	rjmp	.-430    	; 0x45b0 <NoRoots()+0x124>

0000475e <Firework()>:
    475e:	ef 92       	push	r14
    4760:	ff 92       	push	r15
    4762:	0f 93       	push	r16
    4764:	1f 93       	push	r17
    4766:	cf 93       	push	r28
    4768:	df 93       	push	r29
    476a:	00 d0       	rcall	.+0      	; 0x476c <Firework()+0xe>
    476c:	00 d0       	rcall	.+0      	; 0x476e <Firework()+0x10>
    476e:	00 d0       	rcall	.+0      	; 0x4770 <Firework()+0x12>
    4770:	1f 92       	push	r1
    4772:	cd b7       	in	r28, 0x3d	; 61
    4774:	de b7       	in	r29, 0x3e	; 62
    4776:	80 91 c5 0a 	lds	r24, 0x0AC5	; 0x800ac5 <prog>
    477a:	83 32       	cpi	r24, 0x23	; 35
    477c:	09 f4       	brne	.+2      	; 0x4780 <Firework()+0x22>
    477e:	f5 c0       	rjmp	.+490    	; 0x496a <Firework()+0x20c>
    4780:	08 f0       	brcs	.+2      	; 0x4784 <Firework()+0x26>
    4782:	4b c0       	rjmp	.+150    	; 0x481a <Firework()+0xbc>
    4784:	86 31       	cpi	r24, 0x16	; 22
    4786:	09 f4       	brne	.+2      	; 0x478a <Firework()+0x2c>
    4788:	cc c0       	rjmp	.+408    	; 0x4922 <Firework()+0x1c4>
    478a:	18 f5       	brcc	.+70     	; 0x47d2 <Firework()+0x74>
    478c:	8a 30       	cpi	r24, 0x0A	; 10
    478e:	09 f4       	brne	.+2      	; 0x4792 <Firework()+0x34>
    4790:	b8 c0       	rjmp	.+368    	; 0x4902 <Firework()+0x1a4>
    4792:	98 f4       	brcc	.+38     	; 0x47ba <Firework()+0x5c>
    4794:	88 23       	and	r24, r24
    4796:	09 f4       	brne	.+2      	; 0x479a <Firework()+0x3c>
    4798:	94 c0       	rjmp	.+296    	; 0x48c2 <Firework()+0x164>
    479a:	85 30       	cpi	r24, 0x05	; 5
    479c:	09 f4       	brne	.+2      	; 0x47a0 <Firework()+0x42>
    479e:	a9 c0       	rjmp	.+338    	; 0x48f2 <Firework()+0x194>
    47a0:	27 96       	adiw	r28, 0x07	; 7
    47a2:	0f b6       	in	r0, 0x3f	; 63
    47a4:	f8 94       	cli
    47a6:	de bf       	out	0x3e, r29	; 62
    47a8:	0f be       	out	0x3f, r0	; 63
    47aa:	cd bf       	out	0x3d, r28	; 61
    47ac:	df 91       	pop	r29
    47ae:	cf 91       	pop	r28
    47b0:	1f 91       	pop	r17
    47b2:	0f 91       	pop	r16
    47b4:	ff 90       	pop	r15
    47b6:	ef 90       	pop	r14
    47b8:	08 95       	ret
    47ba:	8f 30       	cpi	r24, 0x0F	; 15
    47bc:	09 f4       	brne	.+2      	; 0x47c0 <Firework()+0x62>
    47be:	a9 c0       	rjmp	.+338    	; 0x4912 <Firework()+0x1b4>
    47c0:	46 e1       	ldi	r20, 0x16	; 22
    47c2:	64 e0       	ldi	r22, 0x04	; 4
    47c4:	84 31       	cpi	r24, 0x14	; 20
    47c6:	61 f7       	brne	.-40     	; 0x47a0 <Firework()+0x42>
    47c8:	8e ee       	ldi	r24, 0xEE	; 238
    47ca:	94 e3       	ldi	r25, 0x34	; 52
    47cc:	0e 94 83 16 	call	0x2d06	; 0x2d06 <progPalette(unsigned int, unsigned char, unsigned char)>
    47d0:	e7 cf       	rjmp	.-50     	; 0x47a0 <Firework()+0x42>
    47d2:	8c 31       	cpi	r24, 0x1C	; 28
    47d4:	09 f4       	brne	.+2      	; 0x47d8 <Firework()+0x7a>
    47d6:	bb c0       	rjmp	.+374    	; 0x494e <Firework()+0x1f0>
    47d8:	a0 f4       	brcc	.+40     	; 0x4802 <Firework()+0xa4>
    47da:	88 31       	cpi	r24, 0x18	; 24
    47dc:	09 f4       	brne	.+2      	; 0x47e0 <Firework()+0x82>
    47de:	b2 c0       	rjmp	.+356    	; 0x4944 <Firework()+0x1e6>
    47e0:	8a 31       	cpi	r24, 0x1A	; 26
    47e2:	f1 f6       	brne	.-68     	; 0x47a0 <Firework()+0x42>
    47e4:	0e 94 cd 09 	call	0x139a	; 0x139a <getRandomColorValue()>
    47e8:	7c 01       	movw	r14, r24
    47ea:	0e 94 cd 09 	call	0x139a	; 0x139a <getRandomColorValue()>
    47ee:	8c 01       	movw	r16, r24
    47f0:	0e 94 cd 09 	call	0x139a	; 0x139a <getRandomColorValue()>
    47f4:	9c 01       	movw	r18, r24
    47f6:	42 e3       	ldi	r20, 0x32	; 50
    47f8:	50 e0       	ldi	r21, 0x00	; 0
    47fa:	6c e1       	ldi	r22, 0x1C	; 28
    47fc:	88 ee       	ldi	r24, 0xE8	; 232
    47fe:	93 e0       	ldi	r25, 0x03	; 3
    4800:	9e c0       	rjmp	.+316    	; 0x493e <Firework()+0x1e0>
    4802:	80 32       	cpi	r24, 0x20	; 32
    4804:	09 f4       	brne	.+2      	; 0x4808 <Firework()+0xaa>
    4806:	aa c0       	rjmp	.+340    	; 0x495c <Firework()+0x1fe>
    4808:	82 32       	cpi	r24, 0x22	; 34
    480a:	09 f4       	brne	.+2      	; 0x480e <Firework()+0xb0>
    480c:	ab c0       	rjmp	.+342    	; 0x4964 <Firework()+0x206>
    480e:	8e 31       	cpi	r24, 0x1E	; 30
    4810:	39 f6       	brne	.-114    	; 0x47a0 <Firework()+0x42>
    4812:	44 ef       	ldi	r20, 0xF4	; 244
    4814:	51 e0       	ldi	r21, 0x01	; 1
    4816:	60 e2       	ldi	r22, 0x20	; 32
    4818:	7f c0       	rjmp	.+254    	; 0x4918 <Firework()+0x1ba>
    481a:	8c 32       	cpi	r24, 0x2C	; 44
    481c:	09 f4       	brne	.+2      	; 0x4820 <Firework()+0xc2>
    481e:	bb c0       	rjmp	.+374    	; 0x4996 <Firework()+0x238>
    4820:	18 f5       	brcc	.+70     	; 0x4868 <Firework()+0x10a>
    4822:	86 32       	cpi	r24, 0x26	; 38
    4824:	09 f4       	brne	.+2      	; 0x4828 <Firework()+0xca>
    4826:	b0 c0       	rjmp	.+352    	; 0x4988 <Firework()+0x22a>
    4828:	98 f4       	brcc	.+38     	; 0x4850 <Firework()+0xf2>
    482a:	84 32       	cpi	r24, 0x24	; 36
    482c:	09 f4       	brne	.+2      	; 0x4830 <Firework()+0xd2>
    482e:	aa c0       	rjmp	.+340    	; 0x4984 <Firework()+0x226>
    4830:	85 32       	cpi	r24, 0x25	; 37
    4832:	09 f0       	breq	.+2      	; 0x4836 <Firework()+0xd8>
    4834:	b5 cf       	rjmp	.-150    	; 0x47a0 <Firework()+0x42>
    4836:	0e 94 cd 09 	call	0x139a	; 0x139a <getRandomColorValue()>
    483a:	7c 01       	movw	r14, r24
    483c:	0e 94 cd 09 	call	0x139a	; 0x139a <getRandomColorValue()>
    4840:	8c 01       	movw	r16, r24
    4842:	0e 94 cd 09 	call	0x139a	; 0x139a <getRandomColorValue()>
    4846:	9c 01       	movw	r18, r24
    4848:	42 e3       	ldi	r20, 0x32	; 50
    484a:	50 e0       	ldi	r21, 0x00	; 0
    484c:	66 e2       	ldi	r22, 0x26	; 38
    484e:	d6 cf       	rjmp	.-84     	; 0x47fc <Firework()+0x9e>
    4850:	88 32       	cpi	r24, 0x28	; 40
    4852:	09 f4       	brne	.+2      	; 0x4856 <Firework()+0xf8>
    4854:	9b c0       	rjmp	.+310    	; 0x498c <Firework()+0x22e>
    4856:	8a 32       	cpi	r24, 0x2A	; 42
    4858:	09 f0       	breq	.+2      	; 0x485c <Firework()+0xfe>
    485a:	a2 cf       	rjmp	.-188    	; 0x47a0 <Firework()+0x42>
    485c:	6c e2       	ldi	r22, 0x2C	; 44
    485e:	84 ea       	ldi	r24, 0xA4	; 164
    4860:	98 e3       	ldi	r25, 0x38	; 56
    4862:	0e 94 5e 17 	call	0x2ebc	; 0x2ebc <progMatrixHorizontal(unsigned int, unsigned char)>
    4866:	9c cf       	rjmp	.-200    	; 0x47a0 <Firework()+0x42>
    4868:	82 33       	cpi	r24, 0x32	; 50
    486a:	09 f4       	brne	.+2      	; 0x486e <Firework()+0x110>
    486c:	a4 c0       	rjmp	.+328    	; 0x49b6 <Firework()+0x258>
    486e:	98 f4       	brcc	.+38     	; 0x4896 <Firework()+0x138>
    4870:	8e 32       	cpi	r24, 0x2E	; 46
    4872:	09 f4       	brne	.+2      	; 0x4876 <Firework()+0x118>
    4874:	9d c0       	rjmp	.+314    	; 0x49b0 <Firework()+0x252>
    4876:	80 33       	cpi	r24, 0x30	; 48
    4878:	09 f0       	breq	.+2      	; 0x487c <Firework()+0x11e>
    487a:	92 cf       	rjmp	.-220    	; 0x47a0 <Firework()+0x42>
    487c:	0e 94 cd 09 	call	0x139a	; 0x139a <getRandomColorValue()>
    4880:	7c 01       	movw	r14, r24
    4882:	0e 94 cd 09 	call	0x139a	; 0x139a <getRandomColorValue()>
    4886:	8c 01       	movw	r16, r24
    4888:	0e 94 cd 09 	call	0x139a	; 0x139a <getRandomColorValue()>
    488c:	9c 01       	movw	r18, r24
    488e:	42 e3       	ldi	r20, 0x32	; 50
    4890:	50 e0       	ldi	r21, 0x00	; 0
    4892:	62 e3       	ldi	r22, 0x32	; 50
    4894:	b3 cf       	rjmp	.-154    	; 0x47fc <Firework()+0x9e>
    4896:	8c 33       	cpi	r24, 0x3C	; 60
    4898:	09 f4       	brne	.+2      	; 0x489c <Firework()+0x13e>
    489a:	90 c0       	rjmp	.+288    	; 0x49bc <Firework()+0x25e>
    489c:	84 36       	cpi	r24, 0x64	; 100
    489e:	09 f4       	brne	.+2      	; 0x48a2 <Firework()+0x144>
    48a0:	93 c0       	rjmp	.+294    	; 0x49c8 <Firework()+0x26a>
    48a2:	87 33       	cpi	r24, 0x37	; 55
    48a4:	09 f0       	breq	.+2      	; 0x48a8 <Firework()+0x14a>
    48a6:	7c cf       	rjmp	.-264    	; 0x47a0 <Firework()+0x42>
    48a8:	0e 94 cd 09 	call	0x139a	; 0x139a <getRandomColorValue()>
    48ac:	7c 01       	movw	r14, r24
    48ae:	0e 94 cd 09 	call	0x139a	; 0x139a <getRandomColorValue()>
    48b2:	8c 01       	movw	r16, r24
    48b4:	0e 94 cd 09 	call	0x139a	; 0x139a <getRandomColorValue()>
    48b8:	9c 01       	movw	r18, r24
    48ba:	42 e3       	ldi	r20, 0x32	; 50
    48bc:	50 e0       	ldi	r21, 0x00	; 0
    48be:	6c e3       	ldi	r22, 0x3C	; 60
    48c0:	9d cf       	rjmp	.-198    	; 0x47fc <Firework()+0x9e>
    48c2:	0e 94 e6 09 	call	0x13cc	; 0x13cc <getRandomColor()>
    48c6:	7c 01       	movw	r14, r24
    48c8:	6d ee       	ldi	r22, 0xED	; 237
    48ca:	71 e0       	ldi	r23, 0x01	; 1
    48cc:	ce 01       	movw	r24, r28
    48ce:	01 96       	adiw	r24, 0x01	; 1
    48d0:	0e 94 30 51 	call	0xa260	; 0xa260 <String::String(char const*)>
    48d4:	05 e0       	ldi	r16, 0x05	; 5
    48d6:	97 01       	movw	r18, r14
    48d8:	42 e3       	ldi	r20, 0x32	; 50
    48da:	50 e0       	ldi	r21, 0x00	; 0
    48dc:	6c e4       	ldi	r22, 0x4C	; 76
    48de:	7d e1       	ldi	r23, 0x1D	; 29
    48e0:	ce 01       	movw	r24, r28
    48e2:	01 96       	adiw	r24, 0x01	; 1
    48e4:	0e 94 4b 13 	call	0x2696	; 0x2696 <progScrollText(String, unsigned int, int, int, unsigned char)>
    48e8:	ce 01       	movw	r24, r28
    48ea:	01 96       	adiw	r24, 0x01	; 1
    48ec:	0e 94 c7 50 	call	0xa18e	; 0xa18e <String::~String()>
    48f0:	57 cf       	rjmp	.-338    	; 0x47a0 <Firework()+0x42>
    48f2:	4a e0       	ldi	r20, 0x0A	; 10
    48f4:	66 eb       	ldi	r22, 0xB6	; 182
    48f6:	73 e0       	ldi	r23, 0x03	; 3
    48f8:	83 e7       	ldi	r24, 0x73	; 115
    48fa:	9c e3       	ldi	r25, 0x3C	; 60
    48fc:	0e 94 d4 0c 	call	0x19a8	; 0x19a8 <progStern(unsigned int, int, unsigned char)>
    4900:	4f cf       	rjmp	.-354    	; 0x47a0 <Firework()+0x42>
    4902:	44 ef       	ldi	r20, 0xF4	; 244
    4904:	51 e0       	ldi	r21, 0x01	; 1
    4906:	6f e0       	ldi	r22, 0x0F	; 15
    4908:	83 e7       	ldi	r24, 0x73	; 115
    490a:	9c e3       	ldi	r25, 0x3C	; 60
    490c:	0e 94 cf 0e 	call	0x1d9e	; 0x1d9e <progCircles(unsigned int, unsigned char, unsigned int)>
    4910:	47 cf       	rjmp	.-370    	; 0x47a0 <Firework()+0x42>
    4912:	44 ef       	ldi	r20, 0xF4	; 244
    4914:	51 e0       	ldi	r21, 0x01	; 1
    4916:	64 e1       	ldi	r22, 0x14	; 20
    4918:	83 e7       	ldi	r24, 0x73	; 115
    491a:	9c e3       	ldi	r25, 0x3C	; 60
    491c:	0e 94 38 0b 	call	0x1670	; 0x1670 <progFullColors(unsigned int, unsigned char, unsigned int)>
    4920:	3f cf       	rjmp	.-386    	; 0x47a0 <Firework()+0x42>
    4922:	0e 94 cd 09 	call	0x139a	; 0x139a <getRandomColorValue()>
    4926:	7c 01       	movw	r14, r24
    4928:	0e 94 cd 09 	call	0x139a	; 0x139a <getRandomColorValue()>
    492c:	8c 01       	movw	r16, r24
    492e:	0e 94 cd 09 	call	0x139a	; 0x139a <getRandomColorValue()>
    4932:	9c 01       	movw	r18, r24
    4934:	42 e3       	ldi	r20, 0x32	; 50
    4936:	50 e0       	ldi	r21, 0x00	; 0
    4938:	68 e1       	ldi	r22, 0x18	; 24
    493a:	85 e8       	ldi	r24, 0x85	; 133
    493c:	97 e0       	ldi	r25, 0x07	; 7
    493e:	0e 94 9d 0b 	call	0x173a	; 0x173a <progStrobo(unsigned int, unsigned char, unsigned int, int, int, int)>
    4942:	2e cf       	rjmp	.-420    	; 0x47a0 <Firework()+0x42>
    4944:	4a e1       	ldi	r20, 0x1A	; 26
    4946:	63 e0       	ldi	r22, 0x03	; 3
    4948:	84 ea       	ldi	r24, 0xA4	; 164
    494a:	98 e3       	ldi	r25, 0x38	; 56
    494c:	04 c0       	rjmp	.+8      	; 0x4956 <Firework()+0x1f8>
    494e:	4e e1       	ldi	r20, 0x1E	; 30
    4950:	67 e0       	ldi	r22, 0x07	; 7
    4952:	8a e5       	ldi	r24, 0x5A	; 90
    4954:	9c e3       	ldi	r25, 0x3C	; 60
    4956:	0e 94 2c 0b 	call	0x1658	; 0x1658 <progFastBlingBling(unsigned int, unsigned char, unsigned char)>
    495a:	22 cf       	rjmp	.-444    	; 0x47a0 <Firework()+0x42>
    495c:	44 ef       	ldi	r20, 0xF4	; 244
    495e:	51 e0       	ldi	r21, 0x01	; 1
    4960:	62 e2       	ldi	r22, 0x22	; 34
    4962:	d2 cf       	rjmp	.-92     	; 0x4908 <Firework()+0x1aa>
    4964:	43 e2       	ldi	r20, 0x23	; 35
    4966:	65 e0       	ldi	r22, 0x05	; 5
    4968:	2f cf       	rjmp	.-418    	; 0x47c8 <Firework()+0x6a>
    496a:	0e 94 cd 09 	call	0x139a	; 0x139a <getRandomColorValue()>
    496e:	7c 01       	movw	r14, r24
    4970:	0e 94 cd 09 	call	0x139a	; 0x139a <getRandomColorValue()>
    4974:	8c 01       	movw	r16, r24
    4976:	0e 94 cd 09 	call	0x139a	; 0x139a <getRandomColorValue()>
    497a:	9c 01       	movw	r18, r24
    497c:	42 e3       	ldi	r20, 0x32	; 50
    497e:	50 e0       	ldi	r21, 0x00	; 0
    4980:	64 e2       	ldi	r22, 0x24	; 36
    4982:	db cf       	rjmp	.-74     	; 0x493a <Firework()+0x1dc>
    4984:	45 e2       	ldi	r20, 0x25	; 37
    4986:	df cf       	rjmp	.-66     	; 0x4946 <Firework()+0x1e8>
    4988:	48 e2       	ldi	r20, 0x28	; 40
    498a:	e2 cf       	rjmp	.-60     	; 0x4950 <Firework()+0x1f2>
    498c:	4a e2       	ldi	r20, 0x2A	; 42
    498e:	62 e0       	ldi	r22, 0x02	; 2
    4990:	83 e7       	ldi	r24, 0x73	; 115
    4992:	9c e3       	ldi	r25, 0x3C	; 60
    4994:	1b cf       	rjmp	.-458    	; 0x47cc <Firework()+0x6e>
    4996:	0e 94 cd 09 	call	0x139a	; 0x139a <getRandomColorValue()>
    499a:	7c 01       	movw	r14, r24
    499c:	0e 94 cd 09 	call	0x139a	; 0x139a <getRandomColorValue()>
    49a0:	8c 01       	movw	r16, r24
    49a2:	0e 94 cd 09 	call	0x139a	; 0x139a <getRandomColorValue()>
    49a6:	9c 01       	movw	r18, r24
    49a8:	42 e3       	ldi	r20, 0x32	; 50
    49aa:	50 e0       	ldi	r21, 0x00	; 0
    49ac:	6e e2       	ldi	r22, 0x2E	; 46
    49ae:	26 cf       	rjmp	.-436    	; 0x47fc <Firework()+0x9e>
    49b0:	40 e3       	ldi	r20, 0x30	; 48
    49b2:	65 e0       	ldi	r22, 0x05	; 5
    49b4:	c9 cf       	rjmp	.-110    	; 0x4948 <Firework()+0x1ea>
    49b6:	47 e3       	ldi	r20, 0x37	; 55
    49b8:	6a e0       	ldi	r22, 0x0A	; 10
    49ba:	c6 cf       	rjmp	.-116    	; 0x4948 <Firework()+0x1ea>
    49bc:	64 e6       	ldi	r22, 0x64	; 100
    49be:	80 e1       	ldi	r24, 0x10	; 16
    49c0:	97 e2       	ldi	r25, 0x27	; 39
    49c2:	0e 94 25 0e 	call	0x1c4a	; 0x1c4a <progBlack(unsigned int, unsigned char)>
    49c6:	ec ce       	rjmp	.-552    	; 0x47a0 <Firework()+0x42>
    49c8:	60 e0       	ldi	r22, 0x00	; 0
    49ca:	8a ed       	ldi	r24, 0xDA	; 218
    49cc:	90 e1       	ldi	r25, 0x10	; 16
    49ce:	0e 94 91 44 	call	0x8922	; 0x8922 <CFastLED::clear(bool)>
    49d2:	80 e0       	ldi	r24, 0x00	; 0
    49d4:	0e 94 1a 1c 	call	0x3834	; 0x3834 <switchToSong(unsigned char)>
    49d8:	e3 ce       	rjmp	.-570    	; 0x47a0 <Firework()+0x42>

000049da <Diamonds()>:
    49da:	ef 92       	push	r14
    49dc:	ff 92       	push	r15
    49de:	0f 93       	push	r16
    49e0:	1f 93       	push	r17
    49e2:	cf 93       	push	r28
    49e4:	df 93       	push	r29
    49e6:	00 d0       	rcall	.+0      	; 0x49e8 <Diamonds()+0xe>
    49e8:	00 d0       	rcall	.+0      	; 0x49ea <Diamonds()+0x10>
    49ea:	00 d0       	rcall	.+0      	; 0x49ec <Diamonds()+0x12>
    49ec:	1f 92       	push	r1
    49ee:	cd b7       	in	r28, 0x3d	; 61
    49f0:	de b7       	in	r29, 0x3e	; 62
    49f2:	80 91 c5 0a 	lds	r24, 0x0AC5	; 0x800ac5 <prog>
    49f6:	89 31       	cpi	r24, 0x19	; 25
    49f8:	09 f4       	brne	.+2      	; 0x49fc <Diamonds()+0x22>
    49fa:	86 c0       	rjmp	.+268    	; 0x4b08 <Diamonds()+0x12e>
    49fc:	58 f5       	brcc	.+86     	; 0x4a54 <Diamonds()+0x7a>
    49fe:	85 30       	cpi	r24, 0x05	; 5
    4a00:	09 f4       	brne	.+2      	; 0x4a04 <Diamonds()+0x2a>
    4a02:	74 c0       	rjmp	.+232    	; 0x4aec <Diamonds()+0x112>
    4a04:	b8 f4       	brcc	.+46     	; 0x4a34 <Diamonds()+0x5a>
    4a06:	81 30       	cpi	r24, 0x01	; 1
    4a08:	09 f4       	brne	.+2      	; 0x4a0c <Diamonds()+0x32>
    4a0a:	69 c0       	rjmp	.+210    	; 0x4ade <Diamonds()+0x104>
    4a0c:	08 f4       	brcc	.+2      	; 0x4a10 <Diamonds()+0x36>
    4a0e:	4f c0       	rjmp	.+158    	; 0x4aae <Diamonds()+0xd4>
    4a10:	45 e0       	ldi	r20, 0x05	; 5
    4a12:	64 e0       	ldi	r22, 0x04	; 4
    4a14:	82 30       	cpi	r24, 0x02	; 2
    4a16:	09 f4       	brne	.+2      	; 0x4a1a <Diamonds()+0x40>
    4a18:	64 c0       	rjmp	.+200    	; 0x4ae2 <Diamonds()+0x108>
    4a1a:	27 96       	adiw	r28, 0x07	; 7
    4a1c:	0f b6       	in	r0, 0x3f	; 63
    4a1e:	f8 94       	cli
    4a20:	de bf       	out	0x3e, r29	; 62
    4a22:	0f be       	out	0x3f, r0	; 63
    4a24:	cd bf       	out	0x3d, r28	; 61
    4a26:	df 91       	pop	r29
    4a28:	cf 91       	pop	r28
    4a2a:	1f 91       	pop	r17
    4a2c:	0f 91       	pop	r16
    4a2e:	ff 90       	pop	r15
    4a30:	ef 90       	pop	r14
    4a32:	08 95       	ret
    4a34:	8f 30       	cpi	r24, 0x0F	; 15
    4a36:	09 f4       	brne	.+2      	; 0x4a3a <Diamonds()+0x60>
    4a38:	5c c0       	rjmp	.+184    	; 0x4af2 <Diamonds()+0x118>
    4a3a:	84 31       	cpi	r24, 0x14	; 20
    4a3c:	09 f4       	brne	.+2      	; 0x4a40 <Diamonds()+0x66>
    4a3e:	61 c0       	rjmp	.+194    	; 0x4b02 <Diamonds()+0x128>
    4a40:	8a 30       	cpi	r24, 0x0A	; 10
    4a42:	59 f7       	brne	.-42     	; 0x4a1a <Diamonds()+0x40>
    4a44:	46 e9       	ldi	r20, 0x96	; 150
    4a46:	50 e0       	ldi	r21, 0x00	; 0
    4a48:	6f e0       	ldi	r22, 0x0F	; 15
    4a4a:	80 e0       	ldi	r24, 0x00	; 0
    4a4c:	9b e4       	ldi	r25, 0x4B	; 75
    4a4e:	0e 94 cf 0e 	call	0x1d9e	; 0x1d9e <progCircles(unsigned int, unsigned char, unsigned int)>
    4a52:	e3 cf       	rjmp	.-58     	; 0x4a1a <Diamonds()+0x40>
    4a54:	8d 32       	cpi	r24, 0x2D	; 45
    4a56:	09 f4       	brne	.+2      	; 0x4a5a <Diamonds()+0x80>
    4a58:	76 c0       	rjmp	.+236    	; 0x4b46 <Diamonds()+0x16c>
    4a5a:	68 f4       	brcc	.+26     	; 0x4a76 <Diamonds()+0x9c>
    4a5c:	83 32       	cpi	r24, 0x23	; 35
    4a5e:	09 f4       	brne	.+2      	; 0x4a62 <Diamonds()+0x88>
    4a60:	5b c0       	rjmp	.+182    	; 0x4b18 <Diamonds()+0x13e>
    4a62:	88 32       	cpi	r24, 0x28	; 40
    4a64:	09 f4       	brne	.+2      	; 0x4a68 <Diamonds()+0x8e>
    4a66:	5e c0       	rjmp	.+188    	; 0x4b24 <Diamonds()+0x14a>
    4a68:	8e 31       	cpi	r24, 0x1E	; 30
    4a6a:	b9 f6       	brne	.-82     	; 0x4a1a <Diamonds()+0x40>
    4a6c:	43 e2       	ldi	r20, 0x23	; 35
    4a6e:	64 e0       	ldi	r22, 0x04	; 4
    4a70:	80 e2       	ldi	r24, 0x20	; 32
    4a72:	97 e6       	ldi	r25, 0x67	; 103
    4a74:	38 c0       	rjmp	.+112    	; 0x4ae6 <Diamonds()+0x10c>
    4a76:	87 33       	cpi	r24, 0x37	; 55
    4a78:	09 f4       	brne	.+2      	; 0x4a7c <Diamonds()+0xa2>
    4a7a:	6b c0       	rjmp	.+214    	; 0x4b52 <Diamonds()+0x178>
    4a7c:	48 f4       	brcc	.+18     	; 0x4a90 <Diamonds()+0xb6>
    4a7e:	82 33       	cpi	r24, 0x32	; 50
    4a80:	61 f6       	brne	.-104    	; 0x4a1a <Diamonds()+0x40>
    4a82:	47 e3       	ldi	r20, 0x37	; 55
    4a84:	67 e0       	ldi	r22, 0x07	; 7
    4a86:	80 e0       	ldi	r24, 0x00	; 0
    4a88:	9b e4       	ldi	r25, 0x4B	; 75
    4a8a:	0e 94 2c 0b 	call	0x1658	; 0x1658 <progFastBlingBling(unsigned int, unsigned char, unsigned char)>
    4a8e:	c5 cf       	rjmp	.-118    	; 0x4a1a <Diamonds()+0x40>
    4a90:	8c 33       	cpi	r24, 0x3C	; 60
    4a92:	09 f4       	brne	.+2      	; 0x4a96 <Diamonds()+0xbc>
    4a94:	63 c0       	rjmp	.+198    	; 0x4b5c <Diamonds()+0x182>
    4a96:	84 36       	cpi	r24, 0x64	; 100
    4a98:	09 f0       	breq	.+2      	; 0x4a9c <Diamonds()+0xc2>
    4a9a:	bf cf       	rjmp	.-130    	; 0x4a1a <Diamonds()+0x40>
    4a9c:	60 e0       	ldi	r22, 0x00	; 0
    4a9e:	8a ed       	ldi	r24, 0xDA	; 218
    4aa0:	90 e1       	ldi	r25, 0x10	; 16
    4aa2:	0e 94 91 44 	call	0x8922	; 0x8922 <CFastLED::clear(bool)>
    4aa6:	80 e0       	ldi	r24, 0x00	; 0
    4aa8:	0e 94 1a 1c 	call	0x3834	; 0x3834 <switchToSong(unsigned char)>
    4aac:	b6 cf       	rjmp	.-148    	; 0x4a1a <Diamonds()+0x40>
    4aae:	0e 94 e6 09 	call	0x13cc	; 0x13cc <getRandomColor()>
    4ab2:	7c 01       	movw	r14, r24
    4ab4:	65 e0       	ldi	r22, 0x05	; 5
    4ab6:	72 e0       	ldi	r23, 0x02	; 2
    4ab8:	ce 01       	movw	r24, r28
    4aba:	01 96       	adiw	r24, 0x01	; 1
    4abc:	0e 94 30 51 	call	0xa260	; 0xa260 <String::String(char const*)>
    4ac0:	01 e0       	ldi	r16, 0x01	; 1
    4ac2:	97 01       	movw	r18, r14
    4ac4:	4b e4       	ldi	r20, 0x4B	; 75
    4ac6:	50 e0       	ldi	r21, 0x00	; 0
    4ac8:	60 e8       	ldi	r22, 0x80	; 128
    4aca:	75 e2       	ldi	r23, 0x25	; 37
    4acc:	ce 01       	movw	r24, r28
    4ace:	01 96       	adiw	r24, 0x01	; 1
    4ad0:	0e 94 4b 13 	call	0x2696	; 0x2696 <progScrollText(String, unsigned int, int, int, unsigned char)>
    4ad4:	ce 01       	movw	r24, r28
    4ad6:	01 96       	adiw	r24, 0x01	; 1
    4ad8:	0e 94 c7 50 	call	0xa18e	; 0xa18e <String::~String()>
    4adc:	9e cf       	rjmp	.-196    	; 0x4a1a <Diamonds()+0x40>
    4ade:	42 e0       	ldi	r20, 0x02	; 2
    4ae0:	63 e0       	ldi	r22, 0x03	; 3
    4ae2:	80 e0       	ldi	r24, 0x00	; 0
    4ae4:	9b e4       	ldi	r25, 0x4B	; 75
    4ae6:	0e 94 83 16 	call	0x2d06	; 0x2d06 <progPalette(unsigned int, unsigned char, unsigned char)>
    4aea:	97 cf       	rjmp	.-210    	; 0x4a1a <Diamonds()+0x40>
    4aec:	4a e0       	ldi	r20, 0x0A	; 10
    4aee:	67 e0       	ldi	r22, 0x07	; 7
    4af0:	f8 cf       	rjmp	.-16     	; 0x4ae2 <Diamonds()+0x108>
    4af2:	48 e5       	ldi	r20, 0x58	; 88
    4af4:	52 e0       	ldi	r21, 0x02	; 2
    4af6:	64 e1       	ldi	r22, 0x14	; 20
    4af8:	80 e8       	ldi	r24, 0x80	; 128
    4afa:	90 e7       	ldi	r25, 0x70	; 112
    4afc:	0e 94 38 0b 	call	0x1670	; 0x1670 <progFullColors(unsigned int, unsigned char, unsigned int)>
    4b00:	8c cf       	rjmp	.-232    	; 0x4a1a <Diamonds()+0x40>
    4b02:	49 e1       	ldi	r20, 0x19	; 25
    4b04:	68 e0       	ldi	r22, 0x08	; 8
    4b06:	ed cf       	rjmp	.-38     	; 0x4ae2 <Diamonds()+0x108>
    4b08:	46 e9       	ldi	r20, 0x96	; 150
    4b0a:	50 e0       	ldi	r21, 0x00	; 0
    4b0c:	6e e1       	ldi	r22, 0x1E	; 30
    4b0e:	80 e0       	ldi	r24, 0x00	; 0
    4b10:	9b e4       	ldi	r25, 0x4B	; 75
    4b12:	0e 94 7b 0f 	call	0x1ef6	; 0x1ef6 <progRandomLines(unsigned int, unsigned char, unsigned int)>
    4b16:	81 cf       	rjmp	.-254    	; 0x4a1a <Diamonds()+0x40>
    4b18:	68 e2       	ldi	r22, 0x28	; 40
    4b1a:	80 eb       	ldi	r24, 0xB0	; 176
    4b1c:	94 e0       	ldi	r25, 0x04	; 4
    4b1e:	0e 94 25 0e 	call	0x1c4a	; 0x1c4a <progBlack(unsigned int, unsigned char)>
    4b22:	7b cf       	rjmp	.-266    	; 0x4a1a <Diamonds()+0x40>
    4b24:	0e 94 cd 09 	call	0x139a	; 0x139a <getRandomColorValue()>
    4b28:	7c 01       	movw	r14, r24
    4b2a:	0e 94 cd 09 	call	0x139a	; 0x139a <getRandomColorValue()>
    4b2e:	8c 01       	movw	r16, r24
    4b30:	0e 94 cd 09 	call	0x139a	; 0x139a <getRandomColorValue()>
    4b34:	9c 01       	movw	r18, r24
    4b36:	42 e3       	ldi	r20, 0x32	; 50
    4b38:	50 e0       	ldi	r21, 0x00	; 0
    4b3a:	6d e2       	ldi	r22, 0x2D	; 45
    4b3c:	80 eb       	ldi	r24, 0xB0	; 176
    4b3e:	94 e0       	ldi	r25, 0x04	; 4
    4b40:	0e 94 9d 0b 	call	0x173a	; 0x173a <progStrobo(unsigned int, unsigned char, unsigned int, int, int, int)>
    4b44:	6a cf       	rjmp	.-300    	; 0x4a1a <Diamonds()+0x40>
    4b46:	46 e9       	ldi	r20, 0x96	; 150
    4b48:	50 e0       	ldi	r21, 0x00	; 0
    4b4a:	62 e3       	ldi	r22, 0x32	; 50
    4b4c:	80 e0       	ldi	r24, 0x00	; 0
    4b4e:	9b e4       	ldi	r25, 0x4B	; 75
    4b50:	d5 cf       	rjmp	.-86     	; 0x4afc <Diamonds()+0x122>
    4b52:	4c e3       	ldi	r20, 0x3C	; 60
    4b54:	65 e0       	ldi	r22, 0x05	; 5
    4b56:	80 ee       	ldi	r24, 0xE0	; 224
    4b58:	9e e2       	ldi	r25, 0x2E	; 46
    4b5a:	c5 cf       	rjmp	.-118    	; 0x4ae6 <Diamonds()+0x10c>
    4b5c:	42 e3       	ldi	r20, 0x32	; 50
    4b5e:	50 e0       	ldi	r21, 0x00	; 0
    4b60:	64 e6       	ldi	r22, 0x64	; 100
    4b62:	80 e0       	ldi	r24, 0x00	; 0
    4b64:	96 e9       	ldi	r25, 0x96	; 150
    4b66:	0e 94 1a 0a 	call	0x1434	; 0x1434 <progBlingBlingColoring(unsigned int, unsigned char, unsigned int)>
    4b6a:	57 cf       	rjmp	.-338    	; 0x4a1a <Diamonds()+0x40>

00004b6c <SetFire()>:
    4b6c:	ef 92       	push	r14
    4b6e:	ff 92       	push	r15
    4b70:	0f 93       	push	r16
    4b72:	cf 93       	push	r28
    4b74:	df 93       	push	r29
    4b76:	00 d0       	rcall	.+0      	; 0x4b78 <SetFire()+0xc>
    4b78:	00 d0       	rcall	.+0      	; 0x4b7a <SetFire()+0xe>
    4b7a:	00 d0       	rcall	.+0      	; 0x4b7c <SetFire()+0x10>
    4b7c:	1f 92       	push	r1
    4b7e:	cd b7       	in	r28, 0x3d	; 61
    4b80:	de b7       	in	r29, 0x3e	; 62
    4b82:	80 91 c5 0a 	lds	r24, 0x0AC5	; 0x800ac5 <prog>
    4b86:	83 32       	cpi	r24, 0x23	; 35
    4b88:	09 f4       	brne	.+2      	; 0x4b8c <SetFire()+0x20>
    4b8a:	a5 c0       	rjmp	.+330    	; 0x4cd6 <SetFire()+0x16a>
    4b8c:	a0 f5       	brcc	.+104    	; 0x4bf6 <SetFire()+0x8a>
    4b8e:	8a 30       	cpi	r24, 0x0A	; 10
    4b90:	09 f4       	brne	.+2      	; 0x4b94 <SetFire()+0x28>
    4b92:	92 c0       	rjmp	.+292    	; 0x4cb8 <SetFire()+0x14c>
    4b94:	c0 f4       	brcc	.+48     	; 0x4bc6 <SetFire()+0x5a>
    4b96:	81 30       	cpi	r24, 0x01	; 1
    4b98:	09 f4       	brne	.+2      	; 0x4b9c <SetFire()+0x30>
    4b9a:	84 c0       	rjmp	.+264    	; 0x4ca4 <SetFire()+0x138>
    4b9c:	08 f4       	brcc	.+2      	; 0x4ba0 <SetFire()+0x34>
    4b9e:	6a c0       	rjmp	.+212    	; 0x4c74 <SetFire()+0x108>
    4ba0:	82 30       	cpi	r24, 0x02	; 2
    4ba2:	09 f4       	brne	.+2      	; 0x4ba6 <SetFire()+0x3a>
    4ba4:	86 c0       	rjmp	.+268    	; 0x4cb2 <SetFire()+0x146>
    4ba6:	4a e0       	ldi	r20, 0x0A	; 10
    4ba8:	85 30       	cpi	r24, 0x05	; 5
    4baa:	09 f4       	brne	.+2      	; 0x4bae <SetFire()+0x42>
    4bac:	88 c0       	rjmp	.+272    	; 0x4cbe <SetFire()+0x152>
    4bae:	27 96       	adiw	r28, 0x07	; 7
    4bb0:	0f b6       	in	r0, 0x3f	; 63
    4bb2:	f8 94       	cli
    4bb4:	de bf       	out	0x3e, r29	; 62
    4bb6:	0f be       	out	0x3f, r0	; 63
    4bb8:	cd bf       	out	0x3d, r28	; 61
    4bba:	df 91       	pop	r29
    4bbc:	cf 91       	pop	r28
    4bbe:	0f 91       	pop	r16
    4bc0:	ff 90       	pop	r15
    4bc2:	ef 90       	pop	r14
    4bc4:	08 95       	ret
    4bc6:	84 31       	cpi	r24, 0x14	; 20
    4bc8:	09 f4       	brne	.+2      	; 0x4bcc <SetFire()+0x60>
    4bca:	78 c0       	rjmp	.+240    	; 0x4cbc <SetFire()+0x150>
    4bcc:	38 f4       	brcc	.+14     	; 0x4bdc <SetFire()+0x70>
    4bce:	44 e1       	ldi	r20, 0x14	; 20
    4bd0:	6b e0       	ldi	r22, 0x0B	; 11
    4bd2:	8f 30       	cpi	r24, 0x0F	; 15
    4bd4:	61 f7       	brne	.-40     	; 0x4bae <SetFire()+0x42>
    4bd6:	88 e3       	ldi	r24, 0x38	; 56
    4bd8:	91 e4       	ldi	r25, 0x41	; 65
    4bda:	68 c0       	rjmp	.+208    	; 0x4cac <SetFire()+0x140>
    4bdc:	89 31       	cpi	r24, 0x19	; 25
    4bde:	09 f4       	brne	.+2      	; 0x4be2 <SetFire()+0x76>
    4be0:	72 c0       	rjmp	.+228    	; 0x4cc6 <SetFire()+0x15a>
    4be2:	43 e2       	ldi	r20, 0x23	; 35
    4be4:	8e 31       	cpi	r24, 0x1E	; 30
    4be6:	19 f7       	brne	.-58     	; 0x4bae <SetFire()+0x42>
    4be8:	6d e0       	ldi	r22, 0x0D	; 13
    4bea:	72 e0       	ldi	r23, 0x02	; 2
    4bec:	88 e3       	ldi	r24, 0x38	; 56
    4bee:	91 e4       	ldi	r25, 0x41	; 65
    4bf0:	0e 94 d4 0c 	call	0x19a8	; 0x19a8 <progStern(unsigned int, int, unsigned char)>
    4bf4:	dc cf       	rjmp	.-72     	; 0x4bae <SetFire()+0x42>
    4bf6:	8c 33       	cpi	r24, 0x3C	; 60
    4bf8:	09 f4       	brne	.+2      	; 0x4bfc <SetFire()+0x90>
    4bfa:	7e c0       	rjmp	.+252    	; 0x4cf8 <SetFire()+0x18c>
    4bfc:	c8 f4       	brcc	.+50     	; 0x4c30 <SetFire()+0xc4>
    4bfe:	8d 32       	cpi	r24, 0x2D	; 45
    4c00:	09 f4       	brne	.+2      	; 0x4c04 <SetFire()+0x98>
    4c02:	6d c0       	rjmp	.+218    	; 0x4cde <SetFire()+0x172>
    4c04:	40 f4       	brcc	.+16     	; 0x4c16 <SetFire()+0xaa>
    4c06:	88 32       	cpi	r24, 0x28	; 40
    4c08:	91 f6       	brne	.-92     	; 0x4bae <SetFire()+0x42>
    4c0a:	6d e2       	ldi	r22, 0x2D	; 45
    4c0c:	87 e2       	ldi	r24, 0x27	; 39
    4c0e:	98 e0       	ldi	r25, 0x08	; 8
    4c10:	0e 94 7d 0f 	call	0x1efa	; 0x1efa <progMovingLines(unsigned int, unsigned char)>
    4c14:	cc cf       	rjmp	.-104    	; 0x4bae <SetFire()+0x42>
    4c16:	82 33       	cpi	r24, 0x32	; 50
    4c18:	09 f4       	brne	.+2      	; 0x4c1c <SetFire()+0xb0>
    4c1a:	65 c0       	rjmp	.+202    	; 0x4ce6 <SetFire()+0x17a>
    4c1c:	4d e0       	ldi	r20, 0x0D	; 13
    4c1e:	52 e0       	ldi	r21, 0x02	; 2
    4c20:	6c e3       	ldi	r22, 0x3C	; 60
    4c22:	87 33       	cpi	r24, 0x37	; 55
    4c24:	21 f6       	brne	.-120    	; 0x4bae <SetFire()+0x42>
    4c26:	88 e3       	ldi	r24, 0x38	; 56
    4c28:	91 e4       	ldi	r25, 0x41	; 65
    4c2a:	0e 94 38 0b 	call	0x1670	; 0x1670 <progFullColors(unsigned int, unsigned char, unsigned int)>
    4c2e:	bf cf       	rjmp	.-130    	; 0x4bae <SetFire()+0x42>
    4c30:	8b 34       	cpi	r24, 0x4B	; 75
    4c32:	09 f4       	brne	.+2      	; 0x4c36 <SetFire()+0xca>
    4c34:	6d c0       	rjmp	.+218    	; 0x4d10 <SetFire()+0x1a4>
    4c36:	78 f4       	brcc	.+30     	; 0x4c56 <SetFire()+0xea>
    4c38:	81 34       	cpi	r24, 0x41	; 65
    4c3a:	09 f4       	brne	.+2      	; 0x4c3e <SetFire()+0xd2>
    4c3c:	64 c0       	rjmp	.+200    	; 0x4d06 <SetFire()+0x19a>
    4c3e:	86 34       	cpi	r24, 0x46	; 70
    4c40:	09 f0       	breq	.+2      	; 0x4c44 <SetFire()+0xd8>
    4c42:	b5 cf       	rjmp	.-150    	; 0x4bae <SetFire()+0x42>
    4c44:	20 e0       	ldi	r18, 0x00	; 0
    4c46:	4a ef       	ldi	r20, 0xFA	; 250
    4c48:	50 e0       	ldi	r21, 0x00	; 0
    4c4a:	6b e4       	ldi	r22, 0x4B	; 75
    4c4c:	88 e3       	ldi	r24, 0x38	; 56
    4c4e:	91 e4       	ldi	r25, 0x41	; 65
    4c50:	0e 94 47 0e 	call	0x1c8e	; 0x1c8e <progCircles(unsigned int, unsigned char, unsigned int, bool)>
    4c54:	ac cf       	rjmp	.-168    	; 0x4bae <SetFire()+0x42>
    4c56:	80 35       	cpi	r24, 0x50	; 80
    4c58:	09 f4       	brne	.+2      	; 0x4c5c <SetFire()+0xf0>
    4c5a:	60 c0       	rjmp	.+192    	; 0x4d1c <SetFire()+0x1b0>
    4c5c:	84 36       	cpi	r24, 0x64	; 100
    4c5e:	09 f0       	breq	.+2      	; 0x4c62 <SetFire()+0xf6>
    4c60:	a6 cf       	rjmp	.-180    	; 0x4bae <SetFire()+0x42>
    4c62:	60 e0       	ldi	r22, 0x00	; 0
    4c64:	8a ed       	ldi	r24, 0xDA	; 218
    4c66:	90 e1       	ldi	r25, 0x10	; 16
    4c68:	0e 94 91 44 	call	0x8922	; 0x8922 <CFastLED::clear(bool)>
    4c6c:	80 e0       	ldi	r24, 0x00	; 0
    4c6e:	0e 94 1a 1c 	call	0x3834	; 0x3834 <switchToSong(unsigned char)>
    4c72:	9d cf       	rjmp	.-198    	; 0x4bae <SetFire()+0x42>
    4c74:	0e 94 e6 09 	call	0x13cc	; 0x13cc <getRandomColor()>
    4c78:	7c 01       	movw	r14, r24
    4c7a:	69 e1       	ldi	r22, 0x19	; 25
    4c7c:	72 e0       	ldi	r23, 0x02	; 2
    4c7e:	ce 01       	movw	r24, r28
    4c80:	01 96       	adiw	r24, 0x01	; 1
    4c82:	0e 94 30 51 	call	0xa260	; 0xa260 <String::String(char const*)>
    4c86:	01 e0       	ldi	r16, 0x01	; 1
    4c88:	97 01       	movw	r18, r14
    4c8a:	4b e4       	ldi	r20, 0x4B	; 75
    4c8c:	50 e0       	ldi	r21, 0x00	; 0
    4c8e:	6c e0       	ldi	r22, 0x0C	; 12
    4c90:	78 e3       	ldi	r23, 0x38	; 56
    4c92:	ce 01       	movw	r24, r28
    4c94:	01 96       	adiw	r24, 0x01	; 1
    4c96:	0e 94 4b 13 	call	0x2696	; 0x2696 <progScrollText(String, unsigned int, int, int, unsigned char)>
    4c9a:	ce 01       	movw	r24, r28
    4c9c:	01 96       	adiw	r24, 0x01	; 1
    4c9e:	0e 94 c7 50 	call	0xa18e	; 0xa18e <String::~String()>
    4ca2:	85 cf       	rjmp	.-246    	; 0x4bae <SetFire()+0x42>
    4ca4:	42 e0       	ldi	r20, 0x02	; 2
    4ca6:	64 e0       	ldi	r22, 0x04	; 4
    4ca8:	88 ec       	ldi	r24, 0xC8	; 200
    4caa:	99 e2       	ldi	r25, 0x29	; 41
    4cac:	0e 94 83 16 	call	0x2d06	; 0x2d06 <progPalette(unsigned int, unsigned char, unsigned char)>
    4cb0:	7e cf       	rjmp	.-260    	; 0x4bae <SetFire()+0x42>
    4cb2:	45 e0       	ldi	r20, 0x05	; 5
    4cb4:	68 e0       	ldi	r22, 0x08	; 8
    4cb6:	8f cf       	rjmp	.-226    	; 0x4bd6 <SetFire()+0x6a>
    4cb8:	4f e0       	ldi	r20, 0x0F	; 15
    4cba:	96 cf       	rjmp	.-212    	; 0x4be8 <SetFire()+0x7c>
    4cbc:	49 e1       	ldi	r20, 0x19	; 25
    4cbe:	61 e0       	ldi	r22, 0x01	; 1
    4cc0:	81 e1       	ldi	r24, 0x11	; 17
    4cc2:	99 e3       	ldi	r25, 0x39	; 57
    4cc4:	f3 cf       	rjmp	.-26     	; 0x4cac <SetFire()+0x140>
    4cc6:	4d e0       	ldi	r20, 0x0D	; 13
    4cc8:	52 e0       	ldi	r21, 0x02	; 2
    4cca:	6e e1       	ldi	r22, 0x1E	; 30
    4ccc:	88 e3       	ldi	r24, 0x38	; 56
    4cce:	91 e4       	ldi	r25, 0x41	; 65
    4cd0:	0e 94 cf 0e 	call	0x1d9e	; 0x1d9e <progCircles(unsigned int, unsigned char, unsigned int)>
    4cd4:	6c cf       	rjmp	.-296    	; 0x4bae <SetFire()+0x42>
    4cd6:	4d e0       	ldi	r20, 0x0D	; 13
    4cd8:	52 e0       	ldi	r21, 0x02	; 2
    4cda:	68 e2       	ldi	r22, 0x28	; 40
    4cdc:	a4 cf       	rjmp	.-184    	; 0x4c26 <SetFire()+0xba>
    4cde:	4a ef       	ldi	r20, 0xFA	; 250
    4ce0:	50 e0       	ldi	r21, 0x00	; 0
    4ce2:	62 e3       	ldi	r22, 0x32	; 50
    4ce4:	f3 cf       	rjmp	.-26     	; 0x4ccc <SetFire()+0x160>
    4ce6:	21 e0       	ldi	r18, 0x01	; 1
    4ce8:	4a ef       	ldi	r20, 0xFA	; 250
    4cea:	50 e0       	ldi	r21, 0x00	; 0
    4cec:	67 e3       	ldi	r22, 0x37	; 55
    4cee:	88 e3       	ldi	r24, 0x38	; 56
    4cf0:	91 e4       	ldi	r25, 0x41	; 65
    4cf2:	0e 94 d1 0e 	call	0x1da2	; 0x1da2 <progRandomLines(unsigned int, unsigned char, unsigned int, bool)>
    4cf6:	5b cf       	rjmp	.-330    	; 0x4bae <SetFire()+0x42>
    4cf8:	41 e4       	ldi	r20, 0x41	; 65
    4cfa:	6c e0       	ldi	r22, 0x0C	; 12
    4cfc:	88 e3       	ldi	r24, 0x38	; 56
    4cfe:	91 e4       	ldi	r25, 0x41	; 65
    4d00:	0e 94 2c 0b 	call	0x1658	; 0x1658 <progFastBlingBling(unsigned int, unsigned char, unsigned char)>
    4d04:	54 cf       	rjmp	.-344    	; 0x4bae <SetFire()+0x42>
    4d06:	20 e0       	ldi	r18, 0x00	; 0
    4d08:	4a ef       	ldi	r20, 0xFA	; 250
    4d0a:	50 e0       	ldi	r21, 0x00	; 0
    4d0c:	66 e4       	ldi	r22, 0x46	; 70
    4d0e:	ef cf       	rjmp	.-34     	; 0x4cee <SetFire()+0x182>
    4d10:	60 e5       	ldi	r22, 0x50	; 80
    4d12:	8d eb       	ldi	r24, 0xBD	; 189
    4d14:	92 e9       	ldi	r25, 0x92	; 146
    4d16:	0e 94 5e 17 	call	0x2ebc	; 0x2ebc <progMatrixHorizontal(unsigned int, unsigned char)>
    4d1a:	49 cf       	rjmp	.-366    	; 0x4bae <SetFire()+0x42>
    4d1c:	64 e6       	ldi	r22, 0x64	; 100
    4d1e:	80 e1       	ldi	r24, 0x10	; 16
    4d20:	97 e2       	ldi	r25, 0x27	; 39
    4d22:	0e 94 25 0e 	call	0x1c4a	; 0x1c4a <progBlack(unsigned int, unsigned char)>
    4d26:	43 cf       	rjmp	.-378    	; 0x4bae <SetFire()+0x42>

00004d28 <Chandelier()>:
    4d28:	ef 92       	push	r14
    4d2a:	ff 92       	push	r15
    4d2c:	0f 93       	push	r16
    4d2e:	1f 93       	push	r17
    4d30:	cf 93       	push	r28
    4d32:	df 93       	push	r29
    4d34:	00 d0       	rcall	.+0      	; 0x4d36 <Chandelier()+0xe>
    4d36:	00 d0       	rcall	.+0      	; 0x4d38 <Chandelier()+0x10>
    4d38:	00 d0       	rcall	.+0      	; 0x4d3a <Chandelier()+0x12>
    4d3a:	1f 92       	push	r1
    4d3c:	cd b7       	in	r28, 0x3d	; 61
    4d3e:	de b7       	in	r29, 0x3e	; 62
    4d40:	80 91 c5 0a 	lds	r24, 0x0AC5	; 0x800ac5 <prog>
    4d44:	8e 31       	cpi	r24, 0x1E	; 30
    4d46:	09 f4       	brne	.+2      	; 0x4d4a <Chandelier()+0x22>
    4d48:	b0 c0       	rjmp	.+352    	; 0x4eaa <Chandelier()+0x182>
    4d4a:	a0 f5       	brcc	.+104    	; 0x4db4 <Chandelier()+0x8c>
    4d4c:	85 30       	cpi	r24, 0x05	; 5
    4d4e:	09 f4       	brne	.+2      	; 0x4d52 <Chandelier()+0x2a>
    4d50:	93 c0       	rjmp	.+294    	; 0x4e78 <Chandelier()+0x150>
    4d52:	b8 f4       	brcc	.+46     	; 0x4d82 <Chandelier()+0x5a>
    4d54:	81 30       	cpi	r24, 0x01	; 1
    4d56:	09 f4       	brne	.+2      	; 0x4d5a <Chandelier()+0x32>
    4d58:	88 c0       	rjmp	.+272    	; 0x4e6a <Chandelier()+0x142>
    4d5a:	08 f4       	brcc	.+2      	; 0x4d5e <Chandelier()+0x36>
    4d5c:	6e c0       	rjmp	.+220    	; 0x4e3a <Chandelier()+0x112>
    4d5e:	45 e0       	ldi	r20, 0x05	; 5
    4d60:	64 e0       	ldi	r22, 0x04	; 4
    4d62:	82 30       	cpi	r24, 0x02	; 2
    4d64:	09 f4       	brne	.+2      	; 0x4d68 <Chandelier()+0x40>
    4d66:	83 c0       	rjmp	.+262    	; 0x4e6e <Chandelier()+0x146>
    4d68:	27 96       	adiw	r28, 0x07	; 7
    4d6a:	0f b6       	in	r0, 0x3f	; 63
    4d6c:	f8 94       	cli
    4d6e:	de bf       	out	0x3e, r29	; 62
    4d70:	0f be       	out	0x3f, r0	; 63
    4d72:	cd bf       	out	0x3d, r28	; 61
    4d74:	df 91       	pop	r29
    4d76:	cf 91       	pop	r28
    4d78:	1f 91       	pop	r17
    4d7a:	0f 91       	pop	r16
    4d7c:	ff 90       	pop	r15
    4d7e:	ef 90       	pop	r14
    4d80:	08 95       	ret
    4d82:	8f 30       	cpi	r24, 0x0F	; 15
    4d84:	09 f4       	brne	.+2      	; 0x4d88 <Chandelier()+0x60>
    4d86:	7c c0       	rjmp	.+248    	; 0x4e80 <Chandelier()+0x158>
    4d88:	40 f4       	brcc	.+16     	; 0x4d9a <Chandelier()+0x72>
    4d8a:	8a 30       	cpi	r24, 0x0A	; 10
    4d8c:	69 f7       	brne	.-38     	; 0x4d68 <Chandelier()+0x40>
    4d8e:	6f e0       	ldi	r22, 0x0F	; 15
    4d90:	86 e0       	ldi	r24, 0x06	; 6
    4d92:	9f e3       	ldi	r25, 0x3F	; 63
    4d94:	0e 94 7d 0f 	call	0x1efa	; 0x1efa <progMovingLines(unsigned int, unsigned char)>
    4d98:	e7 cf       	rjmp	.-50     	; 0x4d68 <Chandelier()+0x40>
    4d9a:	84 31       	cpi	r24, 0x14	; 20
    4d9c:	09 f4       	brne	.+2      	; 0x4da0 <Chandelier()+0x78>
    4d9e:	74 c0       	rjmp	.+232    	; 0x4e88 <Chandelier()+0x160>
    4da0:	44 ef       	ldi	r20, 0xF4	; 244
    4da2:	51 e0       	ldi	r21, 0x01	; 1
    4da4:	6e e1       	ldi	r22, 0x1E	; 30
    4da6:	89 31       	cpi	r24, 0x19	; 25
    4da8:	f9 f6       	brne	.-66     	; 0x4d68 <Chandelier()+0x40>
    4daa:	86 e0       	ldi	r24, 0x06	; 6
    4dac:	9f e3       	ldi	r25, 0x3F	; 63
    4dae:	0e 94 cf 0e 	call	0x1d9e	; 0x1d9e <progCircles(unsigned int, unsigned char, unsigned int)>
    4db2:	da cf       	rjmp	.-76     	; 0x4d68 <Chandelier()+0x40>
    4db4:	87 33       	cpi	r24, 0x37	; 55
    4db6:	09 f4       	brne	.+2      	; 0x4dba <Chandelier()+0x92>
    4db8:	90 c0       	rjmp	.+288    	; 0x4eda <Chandelier()+0x1b2>
    4dba:	d0 f4       	brcc	.+52     	; 0x4df0 <Chandelier()+0xc8>
    4dbc:	88 32       	cpi	r24, 0x28	; 40
    4dbe:	09 f4       	brne	.+2      	; 0x4dc2 <Chandelier()+0x9a>
    4dc0:	79 c0       	rjmp	.+242    	; 0x4eb4 <Chandelier()+0x18c>
    4dc2:	50 f4       	brcc	.+20     	; 0x4dd8 <Chandelier()+0xb0>
    4dc4:	44 ef       	ldi	r20, 0xF4	; 244
    4dc6:	51 e0       	ldi	r21, 0x01	; 1
    4dc8:	68 e2       	ldi	r22, 0x28	; 40
    4dca:	83 32       	cpi	r24, 0x23	; 35
    4dcc:	69 f6       	brne	.-102    	; 0x4d68 <Chandelier()+0x40>
    4dce:	86 e0       	ldi	r24, 0x06	; 6
    4dd0:	9f e3       	ldi	r25, 0x3F	; 63
    4dd2:	0e 94 38 0b 	call	0x1670	; 0x1670 <progFullColors(unsigned int, unsigned char, unsigned int)>
    4dd6:	c8 cf       	rjmp	.-112    	; 0x4d68 <Chandelier()+0x40>
    4dd8:	8d 32       	cpi	r24, 0x2D	; 45
    4dda:	09 f4       	brne	.+2      	; 0x4dde <Chandelier()+0xb6>
    4ddc:	78 c0       	rjmp	.+240    	; 0x4ece <Chandelier()+0x1a6>
    4dde:	82 33       	cpi	r24, 0x32	; 50
    4de0:	19 f6       	brne	.-122    	; 0x4d68 <Chandelier()+0x40>
    4de2:	47 e3       	ldi	r20, 0x37	; 55
    4de4:	67 e0       	ldi	r22, 0x07	; 7
    4de6:	8d ef       	ldi	r24, 0xFD	; 253
    4de8:	9e e3       	ldi	r25, 0x3E	; 62
    4dea:	0e 94 2c 0b 	call	0x1658	; 0x1658 <progFastBlingBling(unsigned int, unsigned char, unsigned char)>
    4dee:	bc cf       	rjmp	.-136    	; 0x4d68 <Chandelier()+0x40>
    4df0:	81 34       	cpi	r24, 0x41	; 65
    4df2:	09 f4       	brne	.+2      	; 0x4df6 <Chandelier()+0xce>
    4df4:	76 c0       	rjmp	.+236    	; 0x4ee2 <Chandelier()+0x1ba>
    4df6:	90 f4       	brcc	.+36     	; 0x4e1c <Chandelier()+0xf4>
    4df8:	8c 33       	cpi	r24, 0x3C	; 60
    4dfa:	09 f0       	breq	.+2      	; 0x4dfe <Chandelier()+0xd6>
    4dfc:	b5 cf       	rjmp	.-150    	; 0x4d68 <Chandelier()+0x40>
    4dfe:	0e 94 cd 09 	call	0x139a	; 0x139a <getRandomColorValue()>
    4e02:	7c 01       	movw	r14, r24
    4e04:	0e 94 cd 09 	call	0x139a	; 0x139a <getRandomColorValue()>
    4e08:	8c 01       	movw	r16, r24
    4e0a:	0e 94 cd 09 	call	0x139a	; 0x139a <getRandomColorValue()>
    4e0e:	9c 01       	movw	r18, r24
    4e10:	4b e4       	ldi	r20, 0x4B	; 75
    4e12:	50 e0       	ldi	r21, 0x00	; 0
    4e14:	61 e4       	ldi	r22, 0x41	; 65
    4e16:	84 e4       	ldi	r24, 0x44	; 68
    4e18:	9f e2       	ldi	r25, 0x2F	; 47
    4e1a:	44 c0       	rjmp	.+136    	; 0x4ea4 <Chandelier()+0x17c>
    4e1c:	86 34       	cpi	r24, 0x46	; 70
    4e1e:	09 f4       	brne	.+2      	; 0x4e22 <Chandelier()+0xfa>
    4e20:	65 c0       	rjmp	.+202    	; 0x4eec <Chandelier()+0x1c4>
    4e22:	84 36       	cpi	r24, 0x64	; 100
    4e24:	09 f0       	breq	.+2      	; 0x4e28 <Chandelier()+0x100>
    4e26:	a0 cf       	rjmp	.-192    	; 0x4d68 <Chandelier()+0x40>
    4e28:	60 e0       	ldi	r22, 0x00	; 0
    4e2a:	8a ed       	ldi	r24, 0xDA	; 218
    4e2c:	90 e1       	ldi	r25, 0x10	; 16
    4e2e:	0e 94 91 44 	call	0x8922	; 0x8922 <CFastLED::clear(bool)>
    4e32:	80 e0       	ldi	r24, 0x00	; 0
    4e34:	0e 94 1a 1c 	call	0x3834	; 0x3834 <switchToSong(unsigned char)>
    4e38:	97 cf       	rjmp	.-210    	; 0x4d68 <Chandelier()+0x40>
    4e3a:	0e 94 e6 09 	call	0x13cc	; 0x13cc <getRandomColor()>
    4e3e:	7c 01       	movw	r14, r24
    4e40:	67 e3       	ldi	r22, 0x37	; 55
    4e42:	72 e0       	ldi	r23, 0x02	; 2
    4e44:	ce 01       	movw	r24, r28
    4e46:	01 96       	adiw	r24, 0x01	; 1
    4e48:	0e 94 30 51 	call	0xa260	; 0xa260 <String::String(char const*)>
    4e4c:	01 e0       	ldi	r16, 0x01	; 1
    4e4e:	97 01       	movw	r18, r14
    4e50:	4b e4       	ldi	r20, 0x4B	; 75
    4e52:	50 e0       	ldi	r21, 0x00	; 0
    4e54:	6e e0       	ldi	r22, 0x0E	; 14
    4e56:	7d e3       	ldi	r23, 0x3D	; 61
    4e58:	ce 01       	movw	r24, r28
    4e5a:	01 96       	adiw	r24, 0x01	; 1
    4e5c:	0e 94 4b 13 	call	0x2696	; 0x2696 <progScrollText(String, unsigned int, int, int, unsigned char)>
    4e60:	ce 01       	movw	r24, r28
    4e62:	01 96       	adiw	r24, 0x01	; 1
    4e64:	0e 94 c7 50 	call	0xa18e	; 0xa18e <String::~String()>
    4e68:	7f cf       	rjmp	.-258    	; 0x4d68 <Chandelier()+0x40>
    4e6a:	42 e0       	ldi	r20, 0x02	; 2
    4e6c:	63 e0       	ldi	r22, 0x03	; 3
    4e6e:	83 e8       	ldi	r24, 0x83	; 131
    4e70:	9f e1       	ldi	r25, 0x1F	; 31
    4e72:	0e 94 83 16 	call	0x2d06	; 0x2d06 <progPalette(unsigned int, unsigned char, unsigned char)>
    4e76:	78 cf       	rjmp	.-272    	; 0x4d68 <Chandelier()+0x40>
    4e78:	44 ef       	ldi	r20, 0xF4	; 244
    4e7a:	51 e0       	ldi	r21, 0x01	; 1
    4e7c:	6a e0       	ldi	r22, 0x0A	; 10
    4e7e:	95 cf       	rjmp	.-214    	; 0x4daa <Chandelier()+0x82>
    4e80:	44 ef       	ldi	r20, 0xF4	; 244
    4e82:	51 e0       	ldi	r21, 0x01	; 1
    4e84:	64 e1       	ldi	r22, 0x14	; 20
    4e86:	a3 cf       	rjmp	.-186    	; 0x4dce <Chandelier()+0xa6>
    4e88:	0e 94 cd 09 	call	0x139a	; 0x139a <getRandomColorValue()>
    4e8c:	7c 01       	movw	r14, r24
    4e8e:	0e 94 cd 09 	call	0x139a	; 0x139a <getRandomColorValue()>
    4e92:	8c 01       	movw	r16, r24
    4e94:	0e 94 cd 09 	call	0x139a	; 0x139a <getRandomColorValue()>
    4e98:	9c 01       	movw	r18, r24
    4e9a:	4b e4       	ldi	r20, 0x4B	; 75
    4e9c:	50 e0       	ldi	r21, 0x00	; 0
    4e9e:	69 e1       	ldi	r22, 0x19	; 25
    4ea0:	86 e0       	ldi	r24, 0x06	; 6
    4ea2:	9f e3       	ldi	r25, 0x3F	; 63
    4ea4:	0e 94 9d 0b 	call	0x173a	; 0x173a <progStrobo(unsigned int, unsigned char, unsigned int, int, int, int)>
    4ea8:	5f cf       	rjmp	.-322    	; 0x4d68 <Chandelier()+0x40>
    4eaa:	43 e2       	ldi	r20, 0x23	; 35
    4eac:	64 e0       	ldi	r22, 0x04	; 4
    4eae:	86 e0       	ldi	r24, 0x06	; 6
    4eb0:	9f e3       	ldi	r25, 0x3F	; 63
    4eb2:	df cf       	rjmp	.-66     	; 0x4e72 <Chandelier()+0x14a>
    4eb4:	0e 94 cd 09 	call	0x139a	; 0x139a <getRandomColorValue()>
    4eb8:	7c 01       	movw	r14, r24
    4eba:	0e 94 cd 09 	call	0x139a	; 0x139a <getRandomColorValue()>
    4ebe:	8c 01       	movw	r16, r24
    4ec0:	0e 94 cd 09 	call	0x139a	; 0x139a <getRandomColorValue()>
    4ec4:	9c 01       	movw	r18, r24
    4ec6:	4b e4       	ldi	r20, 0x4B	; 75
    4ec8:	50 e0       	ldi	r21, 0x00	; 0
    4eca:	6d e2       	ldi	r22, 0x2D	; 45
    4ecc:	e9 cf       	rjmp	.-46     	; 0x4ea0 <Chandelier()+0x178>
    4ece:	62 e3       	ldi	r22, 0x32	; 50
    4ed0:	82 e7       	ldi	r24, 0x72	; 114
    4ed2:	9f e1       	ldi	r25, 0x1F	; 31
    4ed4:	0e 94 d1 0c 	call	0x19a2	; 0x19a2 <progMatrixScanner(unsigned int, unsigned char)>
    4ed8:	47 cf       	rjmp	.-370    	; 0x4d68 <Chandelier()+0x40>
    4eda:	44 ef       	ldi	r20, 0xF4	; 244
    4edc:	51 e0       	ldi	r21, 0x01	; 1
    4ede:	6c e3       	ldi	r22, 0x3C	; 60
    4ee0:	76 cf       	rjmp	.-276    	; 0x4dce <Chandelier()+0xa6>
    4ee2:	46 e4       	ldi	r20, 0x46	; 70
    4ee4:	6c e0       	ldi	r22, 0x0C	; 12
    4ee6:	89 eb       	ldi	r24, 0xB9	; 185
    4ee8:	9f e0       	ldi	r25, 0x0F	; 15
    4eea:	7f cf       	rjmp	.-258    	; 0x4dea <Chandelier()+0xc2>
    4eec:	64 e6       	ldi	r22, 0x64	; 100
    4eee:	80 e1       	ldi	r24, 0x10	; 16
    4ef0:	97 e2       	ldi	r25, 0x27	; 39
    4ef2:	0e 94 25 0e 	call	0x1c4a	; 0x1c4a <progBlack(unsigned int, unsigned char)>
    4ef6:	38 cf       	rjmp	.-400    	; 0x4d68 <Chandelier()+0x40>

00004ef8 <Titanium()>:
    4ef8:	ef 92       	push	r14
    4efa:	ff 92       	push	r15
    4efc:	0f 93       	push	r16
    4efe:	1f 93       	push	r17
    4f00:	cf 93       	push	r28
    4f02:	df 93       	push	r29
    4f04:	00 d0       	rcall	.+0      	; 0x4f06 <Titanium()+0xe>
    4f06:	00 d0       	rcall	.+0      	; 0x4f08 <Titanium()+0x10>
    4f08:	00 d0       	rcall	.+0      	; 0x4f0a <Titanium()+0x12>
    4f0a:	1f 92       	push	r1
    4f0c:	cd b7       	in	r28, 0x3d	; 61
    4f0e:	de b7       	in	r29, 0x3e	; 62
    4f10:	80 91 c5 0a 	lds	r24, 0x0AC5	; 0x800ac5 <prog>
    4f14:	88 32       	cpi	r24, 0x28	; 40
    4f16:	09 f4       	brne	.+2      	; 0x4f1a <Titanium()+0x22>
    4f18:	a8 c0       	rjmp	.+336    	; 0x506a <Titanium()+0x172>
    4f1a:	08 f0       	brcs	.+2      	; 0x4f1e <Titanium()+0x26>
    4f1c:	44 c0       	rjmp	.+136    	; 0x4fa6 <Titanium()+0xae>
    4f1e:	8f 30       	cpi	r24, 0x0F	; 15
    4f20:	09 f4       	brne	.+2      	; 0x4f24 <Titanium()+0x2c>
    4f22:	8b c0       	rjmp	.+278    	; 0x503a <Titanium()+0x142>
    4f24:	00 f5       	brcc	.+64     	; 0x4f66 <Titanium()+0x6e>
    4f26:	85 30       	cpi	r24, 0x05	; 5
    4f28:	09 f4       	brne	.+2      	; 0x4f2c <Titanium()+0x34>
    4f2a:	7a c0       	rjmp	.+244    	; 0x5020 <Titanium()+0x128>
    4f2c:	8a 30       	cpi	r24, 0x0A	; 10
    4f2e:	09 f4       	brne	.+2      	; 0x4f32 <Titanium()+0x3a>
    4f30:	7f c0       	rjmp	.+254    	; 0x5030 <Titanium()+0x138>
    4f32:	81 11       	cpse	r24, r1
    4f34:	1f c0       	rjmp	.+62     	; 0x4f74 <Titanium()+0x7c>
    4f36:	0e 94 e6 09 	call	0x13cc	; 0x13cc <getRandomColor()>
    4f3a:	7c 01       	movw	r14, r24
    4f3c:	69 e4       	ldi	r22, 0x49	; 73
    4f3e:	72 e0       	ldi	r23, 0x02	; 2
    4f40:	ce 01       	movw	r24, r28
    4f42:	01 96       	adiw	r24, 0x01	; 1
    4f44:	0e 94 30 51 	call	0xa260	; 0xa260 <String::String(char const*)>
    4f48:	05 e0       	ldi	r16, 0x05	; 5
    4f4a:	97 01       	movw	r18, r14
    4f4c:	4b e4       	ldi	r20, 0x4B	; 75
    4f4e:	50 e0       	ldi	r21, 0x00	; 0
    4f50:	6c e7       	ldi	r22, 0x7C	; 124
    4f52:	7e e2       	ldi	r23, 0x2E	; 46
    4f54:	ce 01       	movw	r24, r28
    4f56:	01 96       	adiw	r24, 0x01	; 1
    4f58:	0e 94 4b 13 	call	0x2696	; 0x2696 <progScrollText(String, unsigned int, int, int, unsigned char)>
    4f5c:	ce 01       	movw	r24, r28
    4f5e:	01 96       	adiw	r24, 0x01	; 1
    4f60:	0e 94 c7 50 	call	0xa18e	; 0xa18e <String::~String()>
    4f64:	07 c0       	rjmp	.+14     	; 0x4f74 <Titanium()+0x7c>
    4f66:	89 31       	cpi	r24, 0x19	; 25
    4f68:	09 f4       	brne	.+2      	; 0x4f6c <Titanium()+0x74>
    4f6a:	70 c0       	rjmp	.+224    	; 0x504c <Titanium()+0x154>
    4f6c:	80 f4       	brcc	.+32     	; 0x4f8e <Titanium()+0x96>
    4f6e:	84 31       	cpi	r24, 0x14	; 20
    4f70:	09 f4       	brne	.+2      	; 0x4f74 <Titanium()+0x7c>
    4f72:	66 c0       	rjmp	.+204    	; 0x5040 <Titanium()+0x148>
    4f74:	27 96       	adiw	r28, 0x07	; 7
    4f76:	0f b6       	in	r0, 0x3f	; 63
    4f78:	f8 94       	cli
    4f7a:	de bf       	out	0x3e, r29	; 62
    4f7c:	0f be       	out	0x3f, r0	; 63
    4f7e:	cd bf       	out	0x3d, r28	; 61
    4f80:	df 91       	pop	r29
    4f82:	cf 91       	pop	r28
    4f84:	1f 91       	pop	r17
    4f86:	0f 91       	pop	r16
    4f88:	ff 90       	pop	r15
    4f8a:	ef 90       	pop	r14
    4f8c:	08 95       	ret
    4f8e:	8e 31       	cpi	r24, 0x1E	; 30
    4f90:	09 f4       	brne	.+2      	; 0x4f94 <Titanium()+0x9c>
    4f92:	64 c0       	rjmp	.+200    	; 0x505c <Titanium()+0x164>
    4f94:	48 e2       	ldi	r20, 0x28	; 40
    4f96:	69 e0       	ldi	r22, 0x09	; 9
    4f98:	83 32       	cpi	r24, 0x23	; 35
    4f9a:	61 f7       	brne	.-40     	; 0x4f74 <Titanium()+0x7c>
    4f9c:	89 e7       	ldi	r24, 0x79	; 121
    4f9e:	9b e3       	ldi	r25, 0x3B	; 59
    4fa0:	0e 94 83 16 	call	0x2d06	; 0x2d06 <progPalette(unsigned int, unsigned char, unsigned char)>
    4fa4:	e7 cf       	rjmp	.-50     	; 0x4f74 <Titanium()+0x7c>
    4fa6:	81 34       	cpi	r24, 0x41	; 65
    4fa8:	09 f4       	brne	.+2      	; 0x4fac <Titanium()+0xb4>
    4faa:	6d c0       	rjmp	.+218    	; 0x5086 <Titanium()+0x18e>
    4fac:	a8 f4       	brcc	.+42     	; 0x4fd8 <Titanium()+0xe0>
    4fae:	82 33       	cpi	r24, 0x32	; 50
    4fb0:	09 f4       	brne	.+2      	; 0x4fb4 <Titanium()+0xbc>
    4fb2:	5e c0       	rjmp	.+188    	; 0x5070 <Titanium()+0x178>
    4fb4:	30 f4       	brcc	.+12     	; 0x4fc2 <Titanium()+0xca>
    4fb6:	8d 32       	cpi	r24, 0x2D	; 45
    4fb8:	e9 f6       	brne	.-70     	; 0x4f74 <Titanium()+0x7c>
    4fba:	62 e3       	ldi	r22, 0x32	; 50
    4fbc:	89 e7       	ldi	r24, 0x79	; 121
    4fbe:	9b e3       	ldi	r25, 0x3B	; 59
    4fc0:	42 c0       	rjmp	.+132    	; 0x5046 <Titanium()+0x14e>
    4fc2:	87 33       	cpi	r24, 0x37	; 55
    4fc4:	09 f4       	brne	.+2      	; 0x4fc8 <Titanium()+0xd0>
    4fc6:	5a c0       	rjmp	.+180    	; 0x507c <Titanium()+0x184>
    4fc8:	8c 33       	cpi	r24, 0x3C	; 60
    4fca:	a1 f6       	brne	.-88     	; 0x4f74 <Titanium()+0x7c>
    4fcc:	61 e4       	ldi	r22, 0x41	; 65
    4fce:	8d e6       	ldi	r24, 0x6D	; 109
    4fd0:	9d e3       	ldi	r25, 0x3D	; 61
    4fd2:	0e 94 25 0e 	call	0x1c4a	; 0x1c4a <progBlack(unsigned int, unsigned char)>
    4fd6:	ce cf       	rjmp	.-100    	; 0x4f74 <Titanium()+0x7c>
    4fd8:	80 35       	cpi	r24, 0x50	; 80
    4fda:	09 f4       	brne	.+2      	; 0x4fde <Titanium()+0xe6>
    4fdc:	61 c0       	rjmp	.+194    	; 0x50a0 <Titanium()+0x1a8>
    4fde:	88 f4       	brcc	.+34     	; 0x5002 <Titanium()+0x10a>
    4fe0:	8b 34       	cpi	r24, 0x4B	; 75
    4fe2:	41 f6       	brne	.-112    	; 0x4f74 <Titanium()+0x7c>
    4fe4:	ee 24       	eor	r14, r14
    4fe6:	ea 94       	dec	r14
    4fe8:	f1 2c       	mov	r15, r1
    4fea:	0f ef       	ldi	r16, 0xFF	; 255
    4fec:	10 e0       	ldi	r17, 0x00	; 0
    4fee:	2f ef       	ldi	r18, 0xFF	; 255
    4ff0:	30 e0       	ldi	r19, 0x00	; 0
    4ff2:	4f ea       	ldi	r20, 0xAF	; 175
    4ff4:	50 e0       	ldi	r21, 0x00	; 0
    4ff6:	60 e5       	ldi	r22, 0x50	; 80
    4ff8:	8d e0       	ldi	r24, 0x0D	; 13
    4ffa:	94 e3       	ldi	r25, 0x34	; 52
    4ffc:	0e 94 9d 0b 	call	0x173a	; 0x173a <progStrobo(unsigned int, unsigned char, unsigned int, int, int, int)>
    5000:	b9 cf       	rjmp	.-142    	; 0x4f74 <Titanium()+0x7c>
    5002:	85 35       	cpi	r24, 0x55	; 85
    5004:	09 f4       	brne	.+2      	; 0x5008 <Titanium()+0x110>
    5006:	52 c0       	rjmp	.+164    	; 0x50ac <Titanium()+0x1b4>
    5008:	84 36       	cpi	r24, 0x64	; 100
    500a:	09 f0       	breq	.+2      	; 0x500e <Titanium()+0x116>
    500c:	b3 cf       	rjmp	.-154    	; 0x4f74 <Titanium()+0x7c>
    500e:	60 e0       	ldi	r22, 0x00	; 0
    5010:	8a ed       	ldi	r24, 0xDA	; 218
    5012:	90 e1       	ldi	r25, 0x10	; 16
    5014:	0e 94 91 44 	call	0x8922	; 0x8922 <CFastLED::clear(bool)>
    5018:	80 e0       	ldi	r24, 0x00	; 0
    501a:	0e 94 1a 1c 	call	0x3834	; 0x3834 <switchToSong(unsigned char)>
    501e:	aa cf       	rjmp	.-172    	; 0x4f74 <Titanium()+0x7c>
    5020:	4b ed       	ldi	r20, 0xDB	; 219
    5022:	51 e0       	ldi	r21, 0x01	; 1
    5024:	6a e0       	ldi	r22, 0x0A	; 10
    5026:	8a e5       	ldi	r24, 0x5A	; 90
    5028:	93 e2       	ldi	r25, 0x23	; 35
    502a:	0e 94 cf 0e 	call	0x1d9e	; 0x1d9e <progCircles(unsigned int, unsigned char, unsigned int)>
    502e:	a2 cf       	rjmp	.-188    	; 0x4f74 <Titanium()+0x7c>
    5030:	4f e0       	ldi	r20, 0x0F	; 15
    5032:	66 e0       	ldi	r22, 0x06	; 6
    5034:	82 e9       	ldi	r24, 0x92	; 146
    5036:	9b e3       	ldi	r25, 0x3B	; 59
    5038:	b3 cf       	rjmp	.-154    	; 0x4fa0 <Titanium()+0xa8>
    503a:	44 e1       	ldi	r20, 0x14	; 20
    503c:	63 e0       	ldi	r22, 0x03	; 3
    503e:	ae cf       	rjmp	.-164    	; 0x4f9c <Titanium()+0xa4>
    5040:	69 e1       	ldi	r22, 0x19	; 25
    5042:	82 e9       	ldi	r24, 0x92	; 146
    5044:	9b e3       	ldi	r25, 0x3B	; 59
    5046:	0e 94 d1 0c 	call	0x19a2	; 0x19a2 <progMatrixScanner(unsigned int, unsigned char)>
    504a:	94 cf       	rjmp	.-216    	; 0x4f74 <Titanium()+0x7c>
    504c:	4b ed       	ldi	r20, 0xDB	; 219
    504e:	51 e0       	ldi	r21, 0x01	; 1
    5050:	6e e1       	ldi	r22, 0x1E	; 30
    5052:	89 e7       	ldi	r24, 0x79	; 121
    5054:	9b e3       	ldi	r25, 0x3B	; 59
    5056:	0e 94 38 0b 	call	0x1670	; 0x1670 <progFullColors(unsigned int, unsigned char, unsigned int)>
    505a:	8c cf       	rjmp	.-232    	; 0x4f74 <Titanium()+0x7c>
    505c:	43 e2       	ldi	r20, 0x23	; 35
    505e:	64 e0       	ldi	r22, 0x04	; 4
    5060:	82 e9       	ldi	r24, 0x92	; 146
    5062:	9b e3       	ldi	r25, 0x3B	; 59
    5064:	0e 94 2c 0b 	call	0x1658	; 0x1658 <progFastBlingBling(unsigned int, unsigned char, unsigned char)>
    5068:	85 cf       	rjmp	.-246    	; 0x4f74 <Titanium()+0x7c>
    506a:	4d e2       	ldi	r20, 0x2D	; 45
    506c:	63 e0       	ldi	r22, 0x03	; 3
    506e:	e2 cf       	rjmp	.-60     	; 0x5034 <Titanium()+0x13c>
    5070:	4b ed       	ldi	r20, 0xDB	; 219
    5072:	51 e0       	ldi	r21, 0x01	; 1
    5074:	67 e3       	ldi	r22, 0x37	; 55
    5076:	82 e9       	ldi	r24, 0x92	; 146
    5078:	9b e3       	ldi	r25, 0x3B	; 59
    507a:	ed cf       	rjmp	.-38     	; 0x5056 <Titanium()+0x15e>
    507c:	4c e3       	ldi	r20, 0x3C	; 60
    507e:	68 e0       	ldi	r22, 0x08	; 8
    5080:	8e e9       	ldi	r24, 0x9E	; 158
    5082:	99 e3       	ldi	r25, 0x39	; 57
    5084:	ef cf       	rjmp	.-34     	; 0x5064 <Titanium()+0x16c>
    5086:	90 ed       	ldi	r25, 0xD0	; 208
    5088:	e9 2e       	mov	r14, r25
    508a:	97 e0       	ldi	r25, 0x07	; 7
    508c:	f9 2e       	mov	r15, r25
    508e:	04 e6       	ldi	r16, 0x64	; 100
    5090:	21 e0       	ldi	r18, 0x01	; 1
    5092:	4b e4       	ldi	r20, 0x4B	; 75
    5094:	61 e0       	ldi	r22, 0x01	; 1
    5096:	8b e0       	ldi	r24, 0x0B	; 11
    5098:	97 e7       	ldi	r25, 0x77	; 119
    509a:	0e 94 bd 0a 	call	0x157a	; 0x157a <progFastBlingBling(unsigned int, unsigned char, unsigned char, unsigned char, unsigned char, unsigned int)>
    509e:	6a cf       	rjmp	.-300    	; 0x4f74 <Titanium()+0x7c>
    50a0:	65 e5       	ldi	r22, 0x55	; 85
    50a2:	89 ec       	ldi	r24, 0xC9	; 201
    50a4:	9d e1       	ldi	r25, 0x1D	; 29
    50a6:	0e 94 5e 17 	call	0x2ebc	; 0x2ebc <progMatrixHorizontal(unsigned int, unsigned char)>
    50aa:	64 cf       	rjmp	.-312    	; 0x4f74 <Titanium()+0x7c>
    50ac:	64 e6       	ldi	r22, 0x64	; 100
    50ae:	80 e1       	ldi	r24, 0x10	; 16
    50b0:	97 e2       	ldi	r25, 0x27	; 39
    50b2:	8f cf       	rjmp	.-226    	; 0x4fd2 <Titanium()+0xda>

000050b4 <SomeoneYouLoved()>:
    50b4:	ef 92       	push	r14
    50b6:	ff 92       	push	r15
    50b8:	0f 93       	push	r16
    50ba:	1f 93       	push	r17
    50bc:	cf 93       	push	r28
    50be:	df 93       	push	r29
    50c0:	00 d0       	rcall	.+0      	; 0x50c2 <SomeoneYouLoved()+0xe>
    50c2:	00 d0       	rcall	.+0      	; 0x50c4 <SomeoneYouLoved()+0x10>
    50c4:	00 d0       	rcall	.+0      	; 0x50c6 <SomeoneYouLoved()+0x12>
    50c6:	1f 92       	push	r1
    50c8:	cd b7       	in	r28, 0x3d	; 61
    50ca:	de b7       	in	r29, 0x3e	; 62
    50cc:	80 91 c5 0a 	lds	r24, 0x0AC5	; 0x800ac5 <prog>
    50d0:	8e 31       	cpi	r24, 0x1E	; 30
    50d2:	09 f4       	brne	.+2      	; 0x50d6 <SomeoneYouLoved()+0x22>
    50d4:	b0 c0       	rjmp	.+352    	; 0x5236 <SomeoneYouLoved()+0x182>
    50d6:	a0 f5       	brcc	.+104    	; 0x5140 <SomeoneYouLoved()+0x8c>
    50d8:	85 30       	cpi	r24, 0x05	; 5
    50da:	09 f4       	brne	.+2      	; 0x50de <SomeoneYouLoved()+0x2a>
    50dc:	93 c0       	rjmp	.+294    	; 0x5204 <SomeoneYouLoved()+0x150>
    50de:	b8 f4       	brcc	.+46     	; 0x510e <SomeoneYouLoved()+0x5a>
    50e0:	81 30       	cpi	r24, 0x01	; 1
    50e2:	09 f4       	brne	.+2      	; 0x50e6 <SomeoneYouLoved()+0x32>
    50e4:	88 c0       	rjmp	.+272    	; 0x51f6 <SomeoneYouLoved()+0x142>
    50e6:	08 f4       	brcc	.+2      	; 0x50ea <SomeoneYouLoved()+0x36>
    50e8:	6e c0       	rjmp	.+220    	; 0x51c6 <SomeoneYouLoved()+0x112>
    50ea:	45 e0       	ldi	r20, 0x05	; 5
    50ec:	64 e0       	ldi	r22, 0x04	; 4
    50ee:	82 30       	cpi	r24, 0x02	; 2
    50f0:	09 f4       	brne	.+2      	; 0x50f4 <SomeoneYouLoved()+0x40>
    50f2:	83 c0       	rjmp	.+262    	; 0x51fa <SomeoneYouLoved()+0x146>
    50f4:	27 96       	adiw	r28, 0x07	; 7
    50f6:	0f b6       	in	r0, 0x3f	; 63
    50f8:	f8 94       	cli
    50fa:	de bf       	out	0x3e, r29	; 62
    50fc:	0f be       	out	0x3f, r0	; 63
    50fe:	cd bf       	out	0x3d, r28	; 61
    5100:	df 91       	pop	r29
    5102:	cf 91       	pop	r28
    5104:	1f 91       	pop	r17
    5106:	0f 91       	pop	r16
    5108:	ff 90       	pop	r15
    510a:	ef 90       	pop	r14
    510c:	08 95       	ret
    510e:	8f 30       	cpi	r24, 0x0F	; 15
    5110:	09 f4       	brne	.+2      	; 0x5114 <SomeoneYouLoved()+0x60>
    5112:	7c c0       	rjmp	.+248    	; 0x520c <SomeoneYouLoved()+0x158>
    5114:	40 f4       	brcc	.+16     	; 0x5126 <SomeoneYouLoved()+0x72>
    5116:	8a 30       	cpi	r24, 0x0A	; 10
    5118:	69 f7       	brne	.-38     	; 0x50f4 <SomeoneYouLoved()+0x40>
    511a:	6f e0       	ldi	r22, 0x0F	; 15
    511c:	86 e0       	ldi	r24, 0x06	; 6
    511e:	9f e3       	ldi	r25, 0x3F	; 63
    5120:	0e 94 7d 0f 	call	0x1efa	; 0x1efa <progMovingLines(unsigned int, unsigned char)>
    5124:	e7 cf       	rjmp	.-50     	; 0x50f4 <SomeoneYouLoved()+0x40>
    5126:	84 31       	cpi	r24, 0x14	; 20
    5128:	09 f4       	brne	.+2      	; 0x512c <SomeoneYouLoved()+0x78>
    512a:	74 c0       	rjmp	.+232    	; 0x5214 <SomeoneYouLoved()+0x160>
    512c:	44 ef       	ldi	r20, 0xF4	; 244
    512e:	51 e0       	ldi	r21, 0x01	; 1
    5130:	6e e1       	ldi	r22, 0x1E	; 30
    5132:	89 31       	cpi	r24, 0x19	; 25
    5134:	f9 f6       	brne	.-66     	; 0x50f4 <SomeoneYouLoved()+0x40>
    5136:	86 e0       	ldi	r24, 0x06	; 6
    5138:	9f e3       	ldi	r25, 0x3F	; 63
    513a:	0e 94 cf 0e 	call	0x1d9e	; 0x1d9e <progCircles(unsigned int, unsigned char, unsigned int)>
    513e:	da cf       	rjmp	.-76     	; 0x50f4 <SomeoneYouLoved()+0x40>
    5140:	87 33       	cpi	r24, 0x37	; 55
    5142:	09 f4       	brne	.+2      	; 0x5146 <SomeoneYouLoved()+0x92>
    5144:	90 c0       	rjmp	.+288    	; 0x5266 <SomeoneYouLoved()+0x1b2>
    5146:	d0 f4       	brcc	.+52     	; 0x517c <SomeoneYouLoved()+0xc8>
    5148:	88 32       	cpi	r24, 0x28	; 40
    514a:	09 f4       	brne	.+2      	; 0x514e <SomeoneYouLoved()+0x9a>
    514c:	79 c0       	rjmp	.+242    	; 0x5240 <SomeoneYouLoved()+0x18c>
    514e:	50 f4       	brcc	.+20     	; 0x5164 <SomeoneYouLoved()+0xb0>
    5150:	44 ef       	ldi	r20, 0xF4	; 244
    5152:	51 e0       	ldi	r21, 0x01	; 1
    5154:	68 e2       	ldi	r22, 0x28	; 40
    5156:	83 32       	cpi	r24, 0x23	; 35
    5158:	69 f6       	brne	.-102    	; 0x50f4 <SomeoneYouLoved()+0x40>
    515a:	86 e0       	ldi	r24, 0x06	; 6
    515c:	9f e3       	ldi	r25, 0x3F	; 63
    515e:	0e 94 38 0b 	call	0x1670	; 0x1670 <progFullColors(unsigned int, unsigned char, unsigned int)>
    5162:	c8 cf       	rjmp	.-112    	; 0x50f4 <SomeoneYouLoved()+0x40>
    5164:	8d 32       	cpi	r24, 0x2D	; 45
    5166:	09 f4       	brne	.+2      	; 0x516a <SomeoneYouLoved()+0xb6>
    5168:	78 c0       	rjmp	.+240    	; 0x525a <SomeoneYouLoved()+0x1a6>
    516a:	82 33       	cpi	r24, 0x32	; 50
    516c:	19 f6       	brne	.-122    	; 0x50f4 <SomeoneYouLoved()+0x40>
    516e:	47 e3       	ldi	r20, 0x37	; 55
    5170:	67 e0       	ldi	r22, 0x07	; 7
    5172:	8d ef       	ldi	r24, 0xFD	; 253
    5174:	9e e3       	ldi	r25, 0x3E	; 62
    5176:	0e 94 2c 0b 	call	0x1658	; 0x1658 <progFastBlingBling(unsigned int, unsigned char, unsigned char)>
    517a:	bc cf       	rjmp	.-136    	; 0x50f4 <SomeoneYouLoved()+0x40>
    517c:	81 34       	cpi	r24, 0x41	; 65
    517e:	09 f4       	brne	.+2      	; 0x5182 <SomeoneYouLoved()+0xce>
    5180:	76 c0       	rjmp	.+236    	; 0x526e <SomeoneYouLoved()+0x1ba>
    5182:	90 f4       	brcc	.+36     	; 0x51a8 <SomeoneYouLoved()+0xf4>
    5184:	8c 33       	cpi	r24, 0x3C	; 60
    5186:	09 f0       	breq	.+2      	; 0x518a <SomeoneYouLoved()+0xd6>
    5188:	b5 cf       	rjmp	.-150    	; 0x50f4 <SomeoneYouLoved()+0x40>
    518a:	0e 94 cd 09 	call	0x139a	; 0x139a <getRandomColorValue()>
    518e:	7c 01       	movw	r14, r24
    5190:	0e 94 cd 09 	call	0x139a	; 0x139a <getRandomColorValue()>
    5194:	8c 01       	movw	r16, r24
    5196:	0e 94 cd 09 	call	0x139a	; 0x139a <getRandomColorValue()>
    519a:	9c 01       	movw	r18, r24
    519c:	4b e4       	ldi	r20, 0x4B	; 75
    519e:	50 e0       	ldi	r21, 0x00	; 0
    51a0:	61 e4       	ldi	r22, 0x41	; 65
    51a2:	84 e4       	ldi	r24, 0x44	; 68
    51a4:	9f e2       	ldi	r25, 0x2F	; 47
    51a6:	44 c0       	rjmp	.+136    	; 0x5230 <SomeoneYouLoved()+0x17c>
    51a8:	86 34       	cpi	r24, 0x46	; 70
    51aa:	09 f4       	brne	.+2      	; 0x51ae <SomeoneYouLoved()+0xfa>
    51ac:	65 c0       	rjmp	.+202    	; 0x5278 <SomeoneYouLoved()+0x1c4>
    51ae:	84 36       	cpi	r24, 0x64	; 100
    51b0:	09 f0       	breq	.+2      	; 0x51b4 <SomeoneYouLoved()+0x100>
    51b2:	a0 cf       	rjmp	.-192    	; 0x50f4 <SomeoneYouLoved()+0x40>
    51b4:	60 e0       	ldi	r22, 0x00	; 0
    51b6:	8a ed       	ldi	r24, 0xDA	; 218
    51b8:	90 e1       	ldi	r25, 0x10	; 16
    51ba:	0e 94 91 44 	call	0x8922	; 0x8922 <CFastLED::clear(bool)>
    51be:	80 e0       	ldi	r24, 0x00	; 0
    51c0:	0e 94 1a 1c 	call	0x3834	; 0x3834 <switchToSong(unsigned char)>
    51c4:	97 cf       	rjmp	.-210    	; 0x50f4 <SomeoneYouLoved()+0x40>
    51c6:	0e 94 e6 09 	call	0x13cc	; 0x13cc <getRandomColor()>
    51ca:	7c 01       	movw	r14, r24
    51cc:	62 e6       	ldi	r22, 0x62	; 98
    51ce:	72 e0       	ldi	r23, 0x02	; 2
    51d0:	ce 01       	movw	r24, r28
    51d2:	01 96       	adiw	r24, 0x01	; 1
    51d4:	0e 94 30 51 	call	0xa260	; 0xa260 <String::String(char const*)>
    51d8:	01 e0       	ldi	r16, 0x01	; 1
    51da:	97 01       	movw	r18, r14
    51dc:	4b e4       	ldi	r20, 0x4B	; 75
    51de:	50 e0       	ldi	r21, 0x00	; 0
    51e0:	6e e0       	ldi	r22, 0x0E	; 14
    51e2:	7d e3       	ldi	r23, 0x3D	; 61
    51e4:	ce 01       	movw	r24, r28
    51e6:	01 96       	adiw	r24, 0x01	; 1
    51e8:	0e 94 4b 13 	call	0x2696	; 0x2696 <progScrollText(String, unsigned int, int, int, unsigned char)>
    51ec:	ce 01       	movw	r24, r28
    51ee:	01 96       	adiw	r24, 0x01	; 1
    51f0:	0e 94 c7 50 	call	0xa18e	; 0xa18e <String::~String()>
    51f4:	7f cf       	rjmp	.-258    	; 0x50f4 <SomeoneYouLoved()+0x40>
    51f6:	42 e0       	ldi	r20, 0x02	; 2
    51f8:	63 e0       	ldi	r22, 0x03	; 3
    51fa:	83 e8       	ldi	r24, 0x83	; 131
    51fc:	9f e1       	ldi	r25, 0x1F	; 31
    51fe:	0e 94 83 16 	call	0x2d06	; 0x2d06 <progPalette(unsigned int, unsigned char, unsigned char)>
    5202:	78 cf       	rjmp	.-272    	; 0x50f4 <SomeoneYouLoved()+0x40>
    5204:	44 ef       	ldi	r20, 0xF4	; 244
    5206:	51 e0       	ldi	r21, 0x01	; 1
    5208:	6a e0       	ldi	r22, 0x0A	; 10
    520a:	95 cf       	rjmp	.-214    	; 0x5136 <SomeoneYouLoved()+0x82>
    520c:	44 ef       	ldi	r20, 0xF4	; 244
    520e:	51 e0       	ldi	r21, 0x01	; 1
    5210:	64 e1       	ldi	r22, 0x14	; 20
    5212:	a3 cf       	rjmp	.-186    	; 0x515a <SomeoneYouLoved()+0xa6>
    5214:	0e 94 cd 09 	call	0x139a	; 0x139a <getRandomColorValue()>
    5218:	7c 01       	movw	r14, r24
    521a:	0e 94 cd 09 	call	0x139a	; 0x139a <getRandomColorValue()>
    521e:	8c 01       	movw	r16, r24
    5220:	0e 94 cd 09 	call	0x139a	; 0x139a <getRandomColorValue()>
    5224:	9c 01       	movw	r18, r24
    5226:	4b e4       	ldi	r20, 0x4B	; 75
    5228:	50 e0       	ldi	r21, 0x00	; 0
    522a:	69 e1       	ldi	r22, 0x19	; 25
    522c:	86 e0       	ldi	r24, 0x06	; 6
    522e:	9f e3       	ldi	r25, 0x3F	; 63
    5230:	0e 94 9d 0b 	call	0x173a	; 0x173a <progStrobo(unsigned int, unsigned char, unsigned int, int, int, int)>
    5234:	5f cf       	rjmp	.-322    	; 0x50f4 <SomeoneYouLoved()+0x40>
    5236:	43 e2       	ldi	r20, 0x23	; 35
    5238:	64 e0       	ldi	r22, 0x04	; 4
    523a:	86 e0       	ldi	r24, 0x06	; 6
    523c:	9f e3       	ldi	r25, 0x3F	; 63
    523e:	df cf       	rjmp	.-66     	; 0x51fe <SomeoneYouLoved()+0x14a>
    5240:	0e 94 cd 09 	call	0x139a	; 0x139a <getRandomColorValue()>
    5244:	7c 01       	movw	r14, r24
    5246:	0e 94 cd 09 	call	0x139a	; 0x139a <getRandomColorValue()>
    524a:	8c 01       	movw	r16, r24
    524c:	0e 94 cd 09 	call	0x139a	; 0x139a <getRandomColorValue()>
    5250:	9c 01       	movw	r18, r24
    5252:	4b e4       	ldi	r20, 0x4B	; 75
    5254:	50 e0       	ldi	r21, 0x00	; 0
    5256:	6d e2       	ldi	r22, 0x2D	; 45
    5258:	e9 cf       	rjmp	.-46     	; 0x522c <SomeoneYouLoved()+0x178>
    525a:	62 e3       	ldi	r22, 0x32	; 50
    525c:	82 e7       	ldi	r24, 0x72	; 114
    525e:	9f e1       	ldi	r25, 0x1F	; 31
    5260:	0e 94 d1 0c 	call	0x19a2	; 0x19a2 <progMatrixScanner(unsigned int, unsigned char)>
    5264:	47 cf       	rjmp	.-370    	; 0x50f4 <SomeoneYouLoved()+0x40>
    5266:	44 ef       	ldi	r20, 0xF4	; 244
    5268:	51 e0       	ldi	r21, 0x01	; 1
    526a:	6c e3       	ldi	r22, 0x3C	; 60
    526c:	76 cf       	rjmp	.-276    	; 0x515a <SomeoneYouLoved()+0xa6>
    526e:	46 e4       	ldi	r20, 0x46	; 70
    5270:	6c e0       	ldi	r22, 0x0C	; 12
    5272:	89 eb       	ldi	r24, 0xB9	; 185
    5274:	9f e0       	ldi	r25, 0x0F	; 15
    5276:	7f cf       	rjmp	.-258    	; 0x5176 <SomeoneYouLoved()+0xc2>
    5278:	64 e6       	ldi	r22, 0x64	; 100
    527a:	80 e1       	ldi	r24, 0x10	; 16
    527c:	97 e2       	ldi	r25, 0x27	; 39
    527e:	0e 94 25 0e 	call	0x1c4a	; 0x1c4a <progBlack(unsigned int, unsigned char)>
    5282:	38 cf       	rjmp	.-400    	; 0x50f4 <SomeoneYouLoved()+0x40>

00005284 <ShouldntStop()>:
    5284:	ef 92       	push	r14
    5286:	ff 92       	push	r15
    5288:	0f 93       	push	r16
    528a:	1f 93       	push	r17
    528c:	cf 93       	push	r28
    528e:	df 93       	push	r29
    5290:	00 d0       	rcall	.+0      	; 0x5292 <ShouldntStop()+0xe>
    5292:	00 d0       	rcall	.+0      	; 0x5294 <ShouldntStop()+0x10>
    5294:	00 d0       	rcall	.+0      	; 0x5296 <ShouldntStop()+0x12>
    5296:	1f 92       	push	r1
    5298:	cd b7       	in	r28, 0x3d	; 61
    529a:	de b7       	in	r29, 0x3e	; 62
    529c:	80 91 c5 0a 	lds	r24, 0x0AC5	; 0x800ac5 <prog>
    52a0:	8e 31       	cpi	r24, 0x1E	; 30
    52a2:	09 f4       	brne	.+2      	; 0x52a6 <ShouldntStop()+0x22>
    52a4:	b0 c0       	rjmp	.+352    	; 0x5406 <ShouldntStop()+0x182>
    52a6:	a0 f5       	brcc	.+104    	; 0x5310 <ShouldntStop()+0x8c>
    52a8:	85 30       	cpi	r24, 0x05	; 5
    52aa:	09 f4       	brne	.+2      	; 0x52ae <ShouldntStop()+0x2a>
    52ac:	93 c0       	rjmp	.+294    	; 0x53d4 <ShouldntStop()+0x150>
    52ae:	b8 f4       	brcc	.+46     	; 0x52de <ShouldntStop()+0x5a>
    52b0:	81 30       	cpi	r24, 0x01	; 1
    52b2:	09 f4       	brne	.+2      	; 0x52b6 <ShouldntStop()+0x32>
    52b4:	88 c0       	rjmp	.+272    	; 0x53c6 <ShouldntStop()+0x142>
    52b6:	08 f4       	brcc	.+2      	; 0x52ba <ShouldntStop()+0x36>
    52b8:	6e c0       	rjmp	.+220    	; 0x5396 <ShouldntStop()+0x112>
    52ba:	45 e0       	ldi	r20, 0x05	; 5
    52bc:	64 e0       	ldi	r22, 0x04	; 4
    52be:	82 30       	cpi	r24, 0x02	; 2
    52c0:	09 f4       	brne	.+2      	; 0x52c4 <ShouldntStop()+0x40>
    52c2:	83 c0       	rjmp	.+262    	; 0x53ca <ShouldntStop()+0x146>
    52c4:	27 96       	adiw	r28, 0x07	; 7
    52c6:	0f b6       	in	r0, 0x3f	; 63
    52c8:	f8 94       	cli
    52ca:	de bf       	out	0x3e, r29	; 62
    52cc:	0f be       	out	0x3f, r0	; 63
    52ce:	cd bf       	out	0x3d, r28	; 61
    52d0:	df 91       	pop	r29
    52d2:	cf 91       	pop	r28
    52d4:	1f 91       	pop	r17
    52d6:	0f 91       	pop	r16
    52d8:	ff 90       	pop	r15
    52da:	ef 90       	pop	r14
    52dc:	08 95       	ret
    52de:	8f 30       	cpi	r24, 0x0F	; 15
    52e0:	09 f4       	brne	.+2      	; 0x52e4 <ShouldntStop()+0x60>
    52e2:	7c c0       	rjmp	.+248    	; 0x53dc <ShouldntStop()+0x158>
    52e4:	40 f4       	brcc	.+16     	; 0x52f6 <ShouldntStop()+0x72>
    52e6:	8a 30       	cpi	r24, 0x0A	; 10
    52e8:	69 f7       	brne	.-38     	; 0x52c4 <ShouldntStop()+0x40>
    52ea:	6f e0       	ldi	r22, 0x0F	; 15
    52ec:	86 e0       	ldi	r24, 0x06	; 6
    52ee:	9f e3       	ldi	r25, 0x3F	; 63
    52f0:	0e 94 7d 0f 	call	0x1efa	; 0x1efa <progMovingLines(unsigned int, unsigned char)>
    52f4:	e7 cf       	rjmp	.-50     	; 0x52c4 <ShouldntStop()+0x40>
    52f6:	84 31       	cpi	r24, 0x14	; 20
    52f8:	09 f4       	brne	.+2      	; 0x52fc <ShouldntStop()+0x78>
    52fa:	74 c0       	rjmp	.+232    	; 0x53e4 <ShouldntStop()+0x160>
    52fc:	44 ef       	ldi	r20, 0xF4	; 244
    52fe:	51 e0       	ldi	r21, 0x01	; 1
    5300:	6e e1       	ldi	r22, 0x1E	; 30
    5302:	89 31       	cpi	r24, 0x19	; 25
    5304:	f9 f6       	brne	.-66     	; 0x52c4 <ShouldntStop()+0x40>
    5306:	86 e0       	ldi	r24, 0x06	; 6
    5308:	9f e3       	ldi	r25, 0x3F	; 63
    530a:	0e 94 cf 0e 	call	0x1d9e	; 0x1d9e <progCircles(unsigned int, unsigned char, unsigned int)>
    530e:	da cf       	rjmp	.-76     	; 0x52c4 <ShouldntStop()+0x40>
    5310:	87 33       	cpi	r24, 0x37	; 55
    5312:	09 f4       	brne	.+2      	; 0x5316 <ShouldntStop()+0x92>
    5314:	90 c0       	rjmp	.+288    	; 0x5436 <ShouldntStop()+0x1b2>
    5316:	d0 f4       	brcc	.+52     	; 0x534c <ShouldntStop()+0xc8>
    5318:	88 32       	cpi	r24, 0x28	; 40
    531a:	09 f4       	brne	.+2      	; 0x531e <ShouldntStop()+0x9a>
    531c:	79 c0       	rjmp	.+242    	; 0x5410 <ShouldntStop()+0x18c>
    531e:	50 f4       	brcc	.+20     	; 0x5334 <ShouldntStop()+0xb0>
    5320:	44 ef       	ldi	r20, 0xF4	; 244
    5322:	51 e0       	ldi	r21, 0x01	; 1
    5324:	68 e2       	ldi	r22, 0x28	; 40
    5326:	83 32       	cpi	r24, 0x23	; 35
    5328:	69 f6       	brne	.-102    	; 0x52c4 <ShouldntStop()+0x40>
    532a:	86 e0       	ldi	r24, 0x06	; 6
    532c:	9f e3       	ldi	r25, 0x3F	; 63
    532e:	0e 94 38 0b 	call	0x1670	; 0x1670 <progFullColors(unsigned int, unsigned char, unsigned int)>
    5332:	c8 cf       	rjmp	.-112    	; 0x52c4 <ShouldntStop()+0x40>
    5334:	8d 32       	cpi	r24, 0x2D	; 45
    5336:	09 f4       	brne	.+2      	; 0x533a <ShouldntStop()+0xb6>
    5338:	78 c0       	rjmp	.+240    	; 0x542a <ShouldntStop()+0x1a6>
    533a:	82 33       	cpi	r24, 0x32	; 50
    533c:	19 f6       	brne	.-122    	; 0x52c4 <ShouldntStop()+0x40>
    533e:	47 e3       	ldi	r20, 0x37	; 55
    5340:	67 e0       	ldi	r22, 0x07	; 7
    5342:	8d ef       	ldi	r24, 0xFD	; 253
    5344:	9e e3       	ldi	r25, 0x3E	; 62
    5346:	0e 94 2c 0b 	call	0x1658	; 0x1658 <progFastBlingBling(unsigned int, unsigned char, unsigned char)>
    534a:	bc cf       	rjmp	.-136    	; 0x52c4 <ShouldntStop()+0x40>
    534c:	81 34       	cpi	r24, 0x41	; 65
    534e:	09 f4       	brne	.+2      	; 0x5352 <ShouldntStop()+0xce>
    5350:	76 c0       	rjmp	.+236    	; 0x543e <ShouldntStop()+0x1ba>
    5352:	90 f4       	brcc	.+36     	; 0x5378 <ShouldntStop()+0xf4>
    5354:	8c 33       	cpi	r24, 0x3C	; 60
    5356:	09 f0       	breq	.+2      	; 0x535a <ShouldntStop()+0xd6>
    5358:	b5 cf       	rjmp	.-150    	; 0x52c4 <ShouldntStop()+0x40>
    535a:	0e 94 cd 09 	call	0x139a	; 0x139a <getRandomColorValue()>
    535e:	7c 01       	movw	r14, r24
    5360:	0e 94 cd 09 	call	0x139a	; 0x139a <getRandomColorValue()>
    5364:	8c 01       	movw	r16, r24
    5366:	0e 94 cd 09 	call	0x139a	; 0x139a <getRandomColorValue()>
    536a:	9c 01       	movw	r18, r24
    536c:	4b e4       	ldi	r20, 0x4B	; 75
    536e:	50 e0       	ldi	r21, 0x00	; 0
    5370:	61 e4       	ldi	r22, 0x41	; 65
    5372:	84 e4       	ldi	r24, 0x44	; 68
    5374:	9f e2       	ldi	r25, 0x2F	; 47
    5376:	44 c0       	rjmp	.+136    	; 0x5400 <ShouldntStop()+0x17c>
    5378:	86 34       	cpi	r24, 0x46	; 70
    537a:	09 f4       	brne	.+2      	; 0x537e <ShouldntStop()+0xfa>
    537c:	65 c0       	rjmp	.+202    	; 0x5448 <ShouldntStop()+0x1c4>
    537e:	84 36       	cpi	r24, 0x64	; 100
    5380:	09 f0       	breq	.+2      	; 0x5384 <ShouldntStop()+0x100>
    5382:	a0 cf       	rjmp	.-192    	; 0x52c4 <ShouldntStop()+0x40>
    5384:	60 e0       	ldi	r22, 0x00	; 0
    5386:	8a ed       	ldi	r24, 0xDA	; 218
    5388:	90 e1       	ldi	r25, 0x10	; 16
    538a:	0e 94 91 44 	call	0x8922	; 0x8922 <CFastLED::clear(bool)>
    538e:	80 e0       	ldi	r24, 0x00	; 0
    5390:	0e 94 1a 1c 	call	0x3834	; 0x3834 <switchToSong(unsigned char)>
    5394:	97 cf       	rjmp	.-210    	; 0x52c4 <ShouldntStop()+0x40>
    5396:	0e 94 e6 09 	call	0x13cc	; 0x13cc <getRandomColor()>
    539a:	7c 01       	movw	r14, r24
    539c:	65 e8       	ldi	r22, 0x85	; 133
    539e:	72 e0       	ldi	r23, 0x02	; 2
    53a0:	ce 01       	movw	r24, r28
    53a2:	01 96       	adiw	r24, 0x01	; 1
    53a4:	0e 94 30 51 	call	0xa260	; 0xa260 <String::String(char const*)>
    53a8:	01 e0       	ldi	r16, 0x01	; 1
    53aa:	97 01       	movw	r18, r14
    53ac:	4b e4       	ldi	r20, 0x4B	; 75
    53ae:	50 e0       	ldi	r21, 0x00	; 0
    53b0:	6e e0       	ldi	r22, 0x0E	; 14
    53b2:	7d e3       	ldi	r23, 0x3D	; 61
    53b4:	ce 01       	movw	r24, r28
    53b6:	01 96       	adiw	r24, 0x01	; 1
    53b8:	0e 94 4b 13 	call	0x2696	; 0x2696 <progScrollText(String, unsigned int, int, int, unsigned char)>
    53bc:	ce 01       	movw	r24, r28
    53be:	01 96       	adiw	r24, 0x01	; 1
    53c0:	0e 94 c7 50 	call	0xa18e	; 0xa18e <String::~String()>
    53c4:	7f cf       	rjmp	.-258    	; 0x52c4 <ShouldntStop()+0x40>
    53c6:	42 e0       	ldi	r20, 0x02	; 2
    53c8:	63 e0       	ldi	r22, 0x03	; 3
    53ca:	83 e8       	ldi	r24, 0x83	; 131
    53cc:	9f e1       	ldi	r25, 0x1F	; 31
    53ce:	0e 94 83 16 	call	0x2d06	; 0x2d06 <progPalette(unsigned int, unsigned char, unsigned char)>
    53d2:	78 cf       	rjmp	.-272    	; 0x52c4 <ShouldntStop()+0x40>
    53d4:	44 ef       	ldi	r20, 0xF4	; 244
    53d6:	51 e0       	ldi	r21, 0x01	; 1
    53d8:	6a e0       	ldi	r22, 0x0A	; 10
    53da:	95 cf       	rjmp	.-214    	; 0x5306 <ShouldntStop()+0x82>
    53dc:	44 ef       	ldi	r20, 0xF4	; 244
    53de:	51 e0       	ldi	r21, 0x01	; 1
    53e0:	64 e1       	ldi	r22, 0x14	; 20
    53e2:	a3 cf       	rjmp	.-186    	; 0x532a <ShouldntStop()+0xa6>
    53e4:	0e 94 cd 09 	call	0x139a	; 0x139a <getRandomColorValue()>
    53e8:	7c 01       	movw	r14, r24
    53ea:	0e 94 cd 09 	call	0x139a	; 0x139a <getRandomColorValue()>
    53ee:	8c 01       	movw	r16, r24
    53f0:	0e 94 cd 09 	call	0x139a	; 0x139a <getRandomColorValue()>
    53f4:	9c 01       	movw	r18, r24
    53f6:	4b e4       	ldi	r20, 0x4B	; 75
    53f8:	50 e0       	ldi	r21, 0x00	; 0
    53fa:	69 e1       	ldi	r22, 0x19	; 25
    53fc:	86 e0       	ldi	r24, 0x06	; 6
    53fe:	9f e3       	ldi	r25, 0x3F	; 63
    5400:	0e 94 9d 0b 	call	0x173a	; 0x173a <progStrobo(unsigned int, unsigned char, unsigned int, int, int, int)>
    5404:	5f cf       	rjmp	.-322    	; 0x52c4 <ShouldntStop()+0x40>
    5406:	43 e2       	ldi	r20, 0x23	; 35
    5408:	64 e0       	ldi	r22, 0x04	; 4
    540a:	86 e0       	ldi	r24, 0x06	; 6
    540c:	9f e3       	ldi	r25, 0x3F	; 63
    540e:	df cf       	rjmp	.-66     	; 0x53ce <ShouldntStop()+0x14a>
    5410:	0e 94 cd 09 	call	0x139a	; 0x139a <getRandomColorValue()>
    5414:	7c 01       	movw	r14, r24
    5416:	0e 94 cd 09 	call	0x139a	; 0x139a <getRandomColorValue()>
    541a:	8c 01       	movw	r16, r24
    541c:	0e 94 cd 09 	call	0x139a	; 0x139a <getRandomColorValue()>
    5420:	9c 01       	movw	r18, r24
    5422:	4b e4       	ldi	r20, 0x4B	; 75
    5424:	50 e0       	ldi	r21, 0x00	; 0
    5426:	6d e2       	ldi	r22, 0x2D	; 45
    5428:	e9 cf       	rjmp	.-46     	; 0x53fc <ShouldntStop()+0x178>
    542a:	62 e3       	ldi	r22, 0x32	; 50
    542c:	82 e7       	ldi	r24, 0x72	; 114
    542e:	9f e1       	ldi	r25, 0x1F	; 31
    5430:	0e 94 d1 0c 	call	0x19a2	; 0x19a2 <progMatrixScanner(unsigned int, unsigned char)>
    5434:	47 cf       	rjmp	.-370    	; 0x52c4 <ShouldntStop()+0x40>
    5436:	44 ef       	ldi	r20, 0xF4	; 244
    5438:	51 e0       	ldi	r21, 0x01	; 1
    543a:	6c e3       	ldi	r22, 0x3C	; 60
    543c:	76 cf       	rjmp	.-276    	; 0x532a <ShouldntStop()+0xa6>
    543e:	46 e4       	ldi	r20, 0x46	; 70
    5440:	6c e0       	ldi	r22, 0x0C	; 12
    5442:	89 eb       	ldi	r24, 0xB9	; 185
    5444:	9f e0       	ldi	r25, 0x0F	; 15
    5446:	7f cf       	rjmp	.-258    	; 0x5346 <ShouldntStop()+0xc2>
    5448:	64 e6       	ldi	r22, 0x64	; 100
    544a:	80 e1       	ldi	r24, 0x10	; 16
    544c:	97 e2       	ldi	r25, 0x27	; 39
    544e:	0e 94 25 0e 	call	0x1c4a	; 0x1c4a <progBlack(unsigned int, unsigned char)>
    5452:	38 cf       	rjmp	.-400    	; 0x52c4 <ShouldntStop()+0x40>

00005454 <SunAlwaysShinesOnTV()>:
    5454:	ef 92       	push	r14
    5456:	ff 92       	push	r15
    5458:	0f 93       	push	r16
    545a:	1f 93       	push	r17
    545c:	cf 93       	push	r28
    545e:	df 93       	push	r29
    5460:	00 d0       	rcall	.+0      	; 0x5462 <SunAlwaysShinesOnTV()+0xe>
    5462:	00 d0       	rcall	.+0      	; 0x5464 <SunAlwaysShinesOnTV()+0x10>
    5464:	00 d0       	rcall	.+0      	; 0x5466 <SunAlwaysShinesOnTV()+0x12>
    5466:	1f 92       	push	r1
    5468:	cd b7       	in	r28, 0x3d	; 61
    546a:	de b7       	in	r29, 0x3e	; 62
    546c:	e0 91 c5 0a 	lds	r30, 0x0AC5	; 0x800ac5 <prog>
    5470:	e5 36       	cpi	r30, 0x65	; 101
    5472:	08 f0       	brcs	.+2      	; 0x5476 <SunAlwaysShinesOnTV()+0x22>
    5474:	81 c0       	rjmp	.+258    	; 0x5578 <SunAlwaysShinesOnTV()+0x124>
    5476:	f0 e0       	ldi	r31, 0x00	; 0
    5478:	e0 5c       	subi	r30, 0xC0	; 192
    547a:	f5 4d       	sbci	r31, 0xD5	; 213
    547c:	0c 94 68 53 	jmp	0xa6d0	; 0xa6d0 <__tablejump2__>
    5480:	a5 2a       	or	r10, r21
    5482:	bc 2a       	or	r11, r28
    5484:	c9 2a       	or	r12, r25
    5486:	bc 2a       	or	r11, r28
    5488:	cf 2a       	or	r12, r31
    548a:	bc 2a       	or	r11, r28
    548c:	e5 2a       	or	r14, r21
    548e:	bc 2a       	or	r11, r28
    5490:	f5 2a       	or	r15, r21
    5492:	bc 2a       	or	r11, r28
    5494:	fe 2a       	or	r15, r30
    5496:	bc 2a       	or	r11, r28
    5498:	10 2b       	or	r17, r16
    549a:	bc 2a       	or	r11, r28
    549c:	22 2b       	or	r18, r18
    549e:	bc 2a       	or	r11, r28
    54a0:	27 2b       	or	r18, r23
    54a2:	bc 2a       	or	r11, r28
    54a4:	34 2b       	or	r19, r20
    54a6:	bc 2a       	or	r11, r28
    54a8:	3c 2b       	or	r19, r28
    54aa:	bc 2a       	or	r11, r28
    54ac:	45 2b       	or	r20, r21
    54ae:	bc 2a       	or	r11, r28
    54b0:	4d 2b       	or	r20, r29
    54b2:	bc 2a       	or	r11, r28
    54b4:	59 2b       	or	r21, r25
    54b6:	bc 2a       	or	r11, r28
    54b8:	65 2b       	or	r22, r21
    54ba:	bc 2a       	or	r11, r28
    54bc:	76 2b       	or	r23, r22
    54be:	bc 2a       	or	r11, r28
    54c0:	7a 2b       	or	r23, r26
    54c2:	bc 2a       	or	r11, r28
    54c4:	82 2b       	or	r24, r18
    54c6:	bc 2a       	or	r11, r28
    54c8:	8f 2b       	or	r24, r31
    54ca:	bc 2a       	or	r11, r28
    54cc:	95 2b       	or	r25, r21
    54ce:	bc 2a       	or	r11, r28
    54d0:	9c 2b       	or	r25, r28
    54d2:	bc 2a       	or	r11, r28
    54d4:	a0 2b       	or	r26, r16
    54d6:	bc 2a       	or	r11, r28
    54d8:	ac 2b       	or	r26, r28
    54da:	bc 2a       	or	r11, r28
    54dc:	b8 2b       	or	r27, r24
    54de:	bc 2a       	or	r11, r28
    54e0:	c7 2b       	or	r28, r23
    54e2:	bc 2a       	or	r11, r28
    54e4:	cb 2b       	or	r28, r27
    54e6:	bc 2a       	or	r11, r28
    54e8:	cd 2b       	or	r28, r29
    54ea:	bc 2a       	or	r11, r28
    54ec:	d8 2b       	or	r29, r24
    54ee:	bc 2a       	or	r11, r28
    54f0:	dc 2b       	or	r29, r28
    54f2:	bc 2a       	or	r11, r28
    54f4:	e2 2b       	or	r30, r18
    54f6:	bc 2a       	or	r11, r28
    54f8:	ed 2b       	or	r30, r29
    54fa:	bc 2a       	or	r11, r28
    54fc:	fa 2b       	or	r31, r26
    54fe:	bc 2a       	or	r11, r28
    5500:	fe 2b       	or	r31, r30
    5502:	bc 2a       	or	r11, r28
    5504:	04 2c       	mov	r0, r4
    5506:	bc 2a       	or	r11, r28
    5508:	11 2c       	mov	r1, r1
    550a:	bc 2a       	or	r11, r28
    550c:	17 2c       	mov	r1, r7
    550e:	bc 2a       	or	r11, r28
    5510:	22 2c       	mov	r2, r2
    5512:	bc 2a       	or	r11, r28
    5514:	28 2c       	mov	r2, r8
    5516:	bc 2a       	or	r11, r28
    5518:	33 2c       	mov	r3, r3
    551a:	bc 2a       	or	r11, r28
    551c:	bc 2a       	or	r11, r28
    551e:	bc 2a       	or	r11, r28
    5520:	bc 2a       	or	r11, r28
    5522:	bc 2a       	or	r11, r28
    5524:	bc 2a       	or	r11, r28
    5526:	bc 2a       	or	r11, r28
    5528:	bc 2a       	or	r11, r28
    552a:	bc 2a       	or	r11, r28
    552c:	bc 2a       	or	r11, r28
    552e:	bc 2a       	or	r11, r28
    5530:	bc 2a       	or	r11, r28
    5532:	bc 2a       	or	r11, r28
    5534:	bc 2a       	or	r11, r28
    5536:	bc 2a       	or	r11, r28
    5538:	bc 2a       	or	r11, r28
    553a:	bc 2a       	or	r11, r28
    553c:	bc 2a       	or	r11, r28
    553e:	bc 2a       	or	r11, r28
    5540:	bc 2a       	or	r11, r28
    5542:	bc 2a       	or	r11, r28
    5544:	bc 2a       	or	r11, r28
    5546:	bc 2a       	or	r11, r28
    5548:	37 2c       	mov	r3, r7
    554a:	0e 94 e6 09 	call	0x13cc	; 0x13cc <getRandomColor()>
    554e:	7c 01       	movw	r14, r24
    5550:	6c ea       	ldi	r22, 0xAC	; 172
    5552:	72 e0       	ldi	r23, 0x02	; 2
    5554:	ce 01       	movw	r24, r28
    5556:	01 96       	adiw	r24, 0x01	; 1
    5558:	0e 94 30 51 	call	0xa260	; 0xa260 <String::String(char const*)>
    555c:	02 e0       	ldi	r16, 0x02	; 2
    555e:	97 01       	movw	r18, r14
    5560:	4b e4       	ldi	r20, 0x4B	; 75
    5562:	50 e0       	ldi	r21, 0x00	; 0
    5564:	64 e0       	ldi	r22, 0x04	; 4
    5566:	72 e4       	ldi	r23, 0x42	; 66
    5568:	ce 01       	movw	r24, r28
    556a:	01 96       	adiw	r24, 0x01	; 1
    556c:	0e 94 4b 13 	call	0x2696	; 0x2696 <progScrollText(String, unsigned int, int, int, unsigned char)>
    5570:	ce 01       	movw	r24, r28
    5572:	01 96       	adiw	r24, 0x01	; 1
    5574:	0e 94 c7 50 	call	0xa18e	; 0xa18e <String::~String()>
    5578:	27 96       	adiw	r28, 0x07	; 7
    557a:	0f b6       	in	r0, 0x3f	; 63
    557c:	f8 94       	cli
    557e:	de bf       	out	0x3e, r29	; 62
    5580:	0f be       	out	0x3f, r0	; 63
    5582:	cd bf       	out	0x3d, r28	; 61
    5584:	df 91       	pop	r29
    5586:	cf 91       	pop	r28
    5588:	1f 91       	pop	r17
    558a:	0f 91       	pop	r16
    558c:	ff 90       	pop	r15
    558e:	ef 90       	pop	r14
    5590:	08 95       	ret
    5592:	64 e0       	ldi	r22, 0x04	; 4
    5594:	82 e8       	ldi	r24, 0x82	; 130
    5596:	94 e1       	ldi	r25, 0x14	; 20
    5598:	0e 94 25 0e 	call	0x1c4a	; 0x1c4a <progBlack(unsigned int, unsigned char)>
    559c:	ed cf       	rjmp	.-38     	; 0x5578 <SunAlwaysShinesOnTV()+0x124>
    559e:	0e 94 e6 09 	call	0x13cc	; 0x13cc <getRandomColor()>
    55a2:	8c 01       	movw	r16, r24
    55a4:	60 ed       	ldi	r22, 0xD0	; 208
    55a6:	72 e0       	ldi	r23, 0x02	; 2
    55a8:	ce 01       	movw	r24, r28
    55aa:	01 96       	adiw	r24, 0x01	; 1
    55ac:	0e 94 30 51 	call	0xa260	; 0xa260 <String::String(char const*)>
    55b0:	36 e0       	ldi	r19, 0x06	; 6
    55b2:	e3 2e       	mov	r14, r19
    55b4:	2d e0       	ldi	r18, 0x0D	; 13
    55b6:	30 e0       	ldi	r19, 0x00	; 0
    55b8:	50 e0       	ldi	r21, 0x00	; 0
    55ba:	40 e0       	ldi	r20, 0x00	; 0
    55bc:	66 eb       	ldi	r22, 0xB6	; 182
    55be:	73 e0       	ldi	r23, 0x03	; 3
    55c0:	ce 01       	movw	r24, r28
    55c2:	01 96       	adiw	r24, 0x01	; 1
    55c4:	0e 94 c4 12 	call	0x2588	; 0x2588 <progShowText(String, unsigned int, int, int, int, unsigned char)>
    55c8:	d3 cf       	rjmp	.-90     	; 0x5570 <SunAlwaysShinesOnTV()+0x11c>
    55ca:	0e 94 e6 09 	call	0x13cc	; 0x13cc <getRandomColor()>
    55ce:	8c 01       	movw	r16, r24
    55d0:	66 ed       	ldi	r22, 0xD6	; 214
    55d2:	72 e0       	ldi	r23, 0x02	; 2
    55d4:	ce 01       	movw	r24, r28
    55d6:	01 96       	adiw	r24, 0x01	; 1
    55d8:	0e 94 30 51 	call	0xa260	; 0xa260 <String::String(char const*)>
    55dc:	28 e0       	ldi	r18, 0x08	; 8
    55de:	e2 2e       	mov	r14, r18
    55e0:	2d e0       	ldi	r18, 0x0D	; 13
    55e2:	30 e0       	ldi	r19, 0x00	; 0
    55e4:	46 e0       	ldi	r20, 0x06	; 6
    55e6:	50 e0       	ldi	r21, 0x00	; 0
    55e8:	e9 cf       	rjmp	.-46     	; 0x55bc <SunAlwaysShinesOnTV()+0x168>
    55ea:	21 e0       	ldi	r18, 0x01	; 1
    55ec:	4c e6       	ldi	r20, 0x6C	; 108
    55ee:	57 e0       	ldi	r21, 0x07	; 7
    55f0:	6a e0       	ldi	r22, 0x0A	; 10
    55f2:	8d e0       	ldi	r24, 0x0D	; 13
    55f4:	94 e3       	ldi	r25, 0x34	; 52
    55f6:	0e 94 47 0e 	call	0x1c8e	; 0x1c8e <progCircles(unsigned int, unsigned char, unsigned int, bool)>
    55fa:	be cf       	rjmp	.-132    	; 0x5578 <SunAlwaysShinesOnTV()+0x124>
    55fc:	0e 94 e6 09 	call	0x13cc	; 0x13cc <getRandomColor()>
    5600:	8c 01       	movw	r16, r24
    5602:	69 ed       	ldi	r22, 0xD9	; 217
    5604:	72 e0       	ldi	r23, 0x02	; 2
    5606:	ce 01       	movw	r24, r28
    5608:	01 96       	adiw	r24, 0x01	; 1
    560a:	0e 94 30 51 	call	0xa260	; 0xa260 <String::String(char const*)>
    560e:	9c e0       	ldi	r25, 0x0C	; 12
    5610:	e9 2e       	mov	r14, r25
    5612:	2d e0       	ldi	r18, 0x0D	; 13
    5614:	30 e0       	ldi	r19, 0x00	; 0
    5616:	50 e0       	ldi	r21, 0x00	; 0
    5618:	40 e0       	ldi	r20, 0x00	; 0
    561a:	6c e6       	ldi	r22, 0x6C	; 108
    561c:	77 e0       	ldi	r23, 0x07	; 7
    561e:	d0 cf       	rjmp	.-96     	; 0x55c0 <SunAlwaysShinesOnTV()+0x16c>
    5620:	0e 94 e6 09 	call	0x13cc	; 0x13cc <getRandomColor()>
    5624:	8c 01       	movw	r16, r24
    5626:	66 ed       	ldi	r22, 0xD6	; 214
    5628:	72 e0       	ldi	r23, 0x02	; 2
    562a:	ce 01       	movw	r24, r28
    562c:	01 96       	adiw	r24, 0x01	; 1
    562e:	0e 94 30 51 	call	0xa260	; 0xa260 <String::String(char const*)>
    5632:	8e e0       	ldi	r24, 0x0E	; 14
    5634:	e8 2e       	mov	r14, r24
    5636:	2d e0       	ldi	r18, 0x0D	; 13
    5638:	30 e0       	ldi	r19, 0x00	; 0
    563a:	46 e0       	ldi	r20, 0x06	; 6
    563c:	50 e0       	ldi	r21, 0x00	; 0
    563e:	65 e8       	ldi	r22, 0x85	; 133
    5640:	77 e0       	ldi	r23, 0x07	; 7
    5642:	be cf       	rjmp	.-132    	; 0x55c0 <SunAlwaysShinesOnTV()+0x16c>
    5644:	20 e0       	ldi	r18, 0x00	; 0
    5646:	4c e6       	ldi	r20, 0x6C	; 108
    5648:	57 e0       	ldi	r21, 0x07	; 7
    564a:	60 e1       	ldi	r22, 0x10	; 16
    564c:	d2 cf       	rjmp	.-92     	; 0x55f2 <SunAlwaysShinesOnTV()+0x19e>
    564e:	b0 ed       	ldi	r27, 0xD0	; 208
    5650:	eb 2e       	mov	r14, r27
    5652:	b7 e0       	ldi	r27, 0x07	; 7
    5654:	fb 2e       	mov	r15, r27
    5656:	04 e6       	ldi	r16, 0x64	; 100
    5658:	21 e0       	ldi	r18, 0x01	; 1
    565a:	42 e1       	ldi	r20, 0x12	; 18
    565c:	61 e0       	ldi	r22, 0x01	; 1
    565e:	89 e7       	ldi	r24, 0x79	; 121
    5660:	9b e3       	ldi	r25, 0x3B	; 59
    5662:	0e 94 bd 0a 	call	0x157a	; 0x157a <progFastBlingBling(unsigned int, unsigned char, unsigned char, unsigned char, unsigned char, unsigned int)>
    5666:	88 cf       	rjmp	.-240    	; 0x5578 <SunAlwaysShinesOnTV()+0x124>
    5668:	4b ed       	ldi	r20, 0xDB	; 219
    566a:	51 e0       	ldi	r21, 0x01	; 1
    566c:	64 e1       	ldi	r22, 0x14	; 20
    566e:	89 ec       	ldi	r24, 0xC9	; 201
    5670:	9d e1       	ldi	r25, 0x1D	; 29
    5672:	0e 94 38 0b 	call	0x1670	; 0x1670 <progFullColors(unsigned int, unsigned char, unsigned int)>
    5676:	80 cf       	rjmp	.-256    	; 0x5578 <SunAlwaysShinesOnTV()+0x124>
    5678:	20 e0       	ldi	r18, 0x00	; 0
    567a:	4b ed       	ldi	r20, 0xDB	; 219
    567c:	51 e0       	ldi	r21, 0x01	; 1
    567e:	66 e1       	ldi	r22, 0x16	; 22
    5680:	82 e9       	ldi	r24, 0x92	; 146
    5682:	9b e3       	ldi	r25, 0x3B	; 59
    5684:	0e 94 d1 0e 	call	0x1da2	; 0x1da2 <progRandomLines(unsigned int, unsigned char, unsigned int, bool)>
    5688:	77 cf       	rjmp	.-274    	; 0x5578 <SunAlwaysShinesOnTV()+0x124>
    568a:	48 e8       	ldi	r20, 0x88	; 136
    568c:	53 e1       	ldi	r21, 0x13	; 19
    568e:	68 e1       	ldi	r22, 0x18	; 24
    5690:	8b e0       	ldi	r24, 0x0B	; 11
    5692:	97 e7       	ldi	r25, 0x77	; 119
    5694:	0e 94 1a 0a 	call	0x1434	; 0x1434 <progBlingBlingColoring(unsigned int, unsigned char, unsigned int)>
    5698:	6f cf       	rjmp	.-290    	; 0x5578 <SunAlwaysShinesOnTV()+0x124>
    569a:	0e 94 e6 09 	call	0x13cc	; 0x13cc <getRandomColor()>
    569e:	8c 01       	movw	r16, r24
    56a0:	60 ed       	ldi	r22, 0xD0	; 208
    56a2:	72 e0       	ldi	r23, 0x02	; 2
    56a4:	ce 01       	movw	r24, r28
    56a6:	01 96       	adiw	r24, 0x01	; 1
    56a8:	0e 94 30 51 	call	0xa260	; 0xa260 <String::String(char const*)>
    56ac:	aa e1       	ldi	r26, 0x1A	; 26
    56ae:	ea 2e       	mov	r14, r26
    56b0:	81 cf       	rjmp	.-254    	; 0x55b4 <SunAlwaysShinesOnTV()+0x160>
    56b2:	0e 94 e6 09 	call	0x13cc	; 0x13cc <getRandomColor()>
    56b6:	8c 01       	movw	r16, r24
    56b8:	66 ed       	ldi	r22, 0xD6	; 214
    56ba:	72 e0       	ldi	r23, 0x02	; 2
    56bc:	ce 01       	movw	r24, r28
    56be:	01 96       	adiw	r24, 0x01	; 1
    56c0:	0e 94 30 51 	call	0xa260	; 0xa260 <String::String(char const*)>
    56c4:	fc e1       	ldi	r31, 0x1C	; 28
    56c6:	ef 2e       	mov	r14, r31
    56c8:	8b cf       	rjmp	.-234    	; 0x55e0 <SunAlwaysShinesOnTV()+0x18c>
    56ca:	0e 94 cd 09 	call	0x139a	; 0x139a <getRandomColorValue()>
    56ce:	7c 01       	movw	r14, r24
    56d0:	0e 94 cd 09 	call	0x139a	; 0x139a <getRandomColorValue()>
    56d4:	8c 01       	movw	r16, r24
    56d6:	0e 94 cd 09 	call	0x139a	; 0x139a <getRandomColorValue()>
    56da:	9c 01       	movw	r18, r24
    56dc:	4a ef       	ldi	r20, 0xFA	; 250
    56de:	50 e0       	ldi	r21, 0x00	; 0
    56e0:	6e e1       	ldi	r22, 0x1E	; 30
    56e2:	82 e8       	ldi	r24, 0x82	; 130
    56e4:	94 e1       	ldi	r25, 0x14	; 20
    56e6:	0e 94 9d 0b 	call	0x173a	; 0x173a <progStrobo(unsigned int, unsigned char, unsigned int, int, int, int)>
    56ea:	46 cf       	rjmp	.-372    	; 0x5578 <SunAlwaysShinesOnTV()+0x124>
    56ec:	60 e2       	ldi	r22, 0x20	; 32
    56ee:	87 e4       	ldi	r24, 0x47	; 71
    56f0:	99 e0       	ldi	r25, 0x09	; 9
    56f2:	52 cf       	rjmp	.-348    	; 0x5598 <SunAlwaysShinesOnTV()+0x144>
    56f4:	42 e2       	ldi	r20, 0x22	; 34
    56f6:	6b ed       	ldi	r22, 0xDB	; 219
    56f8:	71 e0       	ldi	r23, 0x01	; 1
    56fa:	8d e0       	ldi	r24, 0x0D	; 13
    56fc:	94 e3       	ldi	r25, 0x34	; 52
    56fe:	0e 94 d4 0c 	call	0x19a8	; 0x19a8 <progStern(unsigned int, int, unsigned char)>
    5702:	3a cf       	rjmp	.-396    	; 0x5578 <SunAlwaysShinesOnTV()+0x124>
    5704:	ee 24       	eor	r14, r14
    5706:	ea 94       	dec	r14
    5708:	f1 2c       	mov	r15, r1
    570a:	0f ef       	ldi	r16, 0xFF	; 255
    570c:	10 e0       	ldi	r17, 0x00	; 0
    570e:	2f ef       	ldi	r18, 0xFF	; 255
    5710:	30 e0       	ldi	r19, 0x00	; 0
    5712:	4b e4       	ldi	r20, 0x4B	; 75
    5714:	50 e0       	ldi	r21, 0x00	; 0
    5716:	64 e2       	ldi	r22, 0x24	; 36
    5718:	88 ed       	ldi	r24, 0xD8	; 216
    571a:	9e e0       	ldi	r25, 0x0E	; 14
    571c:	e4 cf       	rjmp	.-56     	; 0x56e6 <SunAlwaysShinesOnTV()+0x292>
    571e:	4b ed       	ldi	r20, 0xDB	; 219
    5720:	51 e0       	ldi	r21, 0x01	; 1
    5722:	66 e2       	ldi	r22, 0x26	; 38
    5724:	81 ef       	ldi	r24, 0xF1	; 241
    5726:	9e e0       	ldi	r25, 0x0E	; 14
    5728:	a4 cf       	rjmp	.-184    	; 0x5672 <SunAlwaysShinesOnTV()+0x21e>
    572a:	20 e0       	ldi	r18, 0x00	; 0
    572c:	4b ed       	ldi	r20, 0xDB	; 219
    572e:	51 e0       	ldi	r21, 0x01	; 1
    5730:	68 e2       	ldi	r22, 0x28	; 40
    5732:	89 ec       	ldi	r24, 0xC9	; 201
    5734:	9d e1       	ldi	r25, 0x1D	; 29
    5736:	a6 cf       	rjmp	.-180    	; 0x5684 <SunAlwaysShinesOnTV()+0x230>
    5738:	48 e8       	ldi	r20, 0x88	; 136
    573a:	53 e1       	ldi	r21, 0x13	; 19
    573c:	6a e2       	ldi	r22, 0x2A	; 42
    573e:	a8 cf       	rjmp	.-176    	; 0x5690 <SunAlwaysShinesOnTV()+0x23c>
    5740:	0e 94 e6 09 	call	0x13cc	; 0x13cc <getRandomColor()>
    5744:	8c 01       	movw	r16, r24
    5746:	60 ed       	ldi	r22, 0xD0	; 208
    5748:	72 e0       	ldi	r23, 0x02	; 2
    574a:	ce 01       	movw	r24, r28
    574c:	01 96       	adiw	r24, 0x01	; 1
    574e:	0e 94 30 51 	call	0xa260	; 0xa260 <String::String(char const*)>
    5752:	7c e2       	ldi	r23, 0x2C	; 44
    5754:	e7 2e       	mov	r14, r23
    5756:	2e cf       	rjmp	.-420    	; 0x55b4 <SunAlwaysShinesOnTV()+0x160>
    5758:	0e 94 e6 09 	call	0x13cc	; 0x13cc <getRandomColor()>
    575c:	8c 01       	movw	r16, r24
    575e:	66 ed       	ldi	r22, 0xD6	; 214
    5760:	72 e0       	ldi	r23, 0x02	; 2
    5762:	ce 01       	movw	r24, r28
    5764:	01 96       	adiw	r24, 0x01	; 1
    5766:	0e 94 30 51 	call	0xa260	; 0xa260 <String::String(char const*)>
    576a:	6e e2       	ldi	r22, 0x2E	; 46
    576c:	e6 2e       	mov	r14, r22
    576e:	38 cf       	rjmp	.-400    	; 0x55e0 <SunAlwaysShinesOnTV()+0x18c>
    5770:	0e 94 cd 09 	call	0x139a	; 0x139a <getRandomColorValue()>
    5774:	7c 01       	movw	r14, r24
    5776:	0e 94 cd 09 	call	0x139a	; 0x139a <getRandomColorValue()>
    577a:	8c 01       	movw	r16, r24
    577c:	0e 94 cd 09 	call	0x139a	; 0x139a <getRandomColorValue()>
    5780:	9c 01       	movw	r18, r24
    5782:	4a ef       	ldi	r20, 0xFA	; 250
    5784:	50 e0       	ldi	r21, 0x00	; 0
    5786:	60 e3       	ldi	r22, 0x30	; 48
    5788:	89 e6       	ldi	r24, 0x69	; 105
    578a:	94 e1       	ldi	r25, 0x14	; 20
    578c:	ac cf       	rjmp	.-168    	; 0x56e6 <SunAlwaysShinesOnTV()+0x292>
    578e:	62 e3       	ldi	r22, 0x32	; 50
    5790:	80 e6       	ldi	r24, 0x60	; 96
    5792:	99 e0       	ldi	r25, 0x09	; 9
    5794:	01 cf       	rjmp	.-510    	; 0x5598 <SunAlwaysShinesOnTV()+0x144>
    5796:	44 e3       	ldi	r20, 0x34	; 52
    5798:	ae cf       	rjmp	.-164    	; 0x56f6 <SunAlwaysShinesOnTV()+0x2a2>
    579a:	ee 24       	eor	r14, r14
    579c:	ea 94       	dec	r14
    579e:	f1 2c       	mov	r15, r1
    57a0:	0f ef       	ldi	r16, 0xFF	; 255
    57a2:	10 e0       	ldi	r17, 0x00	; 0
    57a4:	2f ef       	ldi	r18, 0xFF	; 255
    57a6:	30 e0       	ldi	r19, 0x00	; 0
    57a8:	4b e4       	ldi	r20, 0x4B	; 75
    57aa:	50 e0       	ldi	r21, 0x00	; 0
    57ac:	66 e3       	ldi	r22, 0x36	; 54
    57ae:	b4 cf       	rjmp	.-152    	; 0x5718 <SunAlwaysShinesOnTV()+0x2c4>
    57b0:	4b ed       	ldi	r20, 0xDB	; 219
    57b2:	51 e0       	ldi	r21, 0x01	; 1
    57b4:	68 e3       	ldi	r22, 0x38	; 56
    57b6:	b6 cf       	rjmp	.-148    	; 0x5724 <SunAlwaysShinesOnTV()+0x2d0>
    57b8:	6a e3       	ldi	r22, 0x3A	; 58
    57ba:	81 ea       	ldi	r24, 0xA1	; 161
    57bc:	9c e2       	ldi	r25, 0x2C	; 44
    57be:	0e 94 d1 0c 	call	0x19a2	; 0x19a2 <progMatrixScanner(unsigned int, unsigned char)>
    57c2:	da ce       	rjmp	.-588    	; 0x5578 <SunAlwaysShinesOnTV()+0x124>
    57c4:	40 ed       	ldi	r20, 0xD0	; 208
    57c6:	e4 2e       	mov	r14, r20
    57c8:	47 e0       	ldi	r20, 0x07	; 7
    57ca:	f4 2e       	mov	r15, r20
    57cc:	04 e6       	ldi	r16, 0x64	; 100
    57ce:	21 e0       	ldi	r18, 0x01	; 1
    57d0:	4c e3       	ldi	r20, 0x3C	; 60
    57d2:	61 e0       	ldi	r22, 0x01	; 1
    57d4:	8d e0       	ldi	r24, 0x0D	; 13
    57d6:	94 e3       	ldi	r25, 0x34	; 52
    57d8:	44 cf       	rjmp	.-376    	; 0x5662 <SunAlwaysShinesOnTV()+0x20e>
    57da:	ee 24       	eor	r14, r14
    57dc:	ea 94       	dec	r14
    57de:	f1 2c       	mov	r15, r1
    57e0:	0f ef       	ldi	r16, 0xFF	; 255
    57e2:	10 e0       	ldi	r17, 0x00	; 0
    57e4:	2f ef       	ldi	r18, 0xFF	; 255
    57e6:	30 e0       	ldi	r19, 0x00	; 0
    57e8:	42 e3       	ldi	r20, 0x32	; 50
    57ea:	50 e0       	ldi	r21, 0x00	; 0
    57ec:	6e e3       	ldi	r22, 0x3E	; 62
    57ee:	8c e6       	ldi	r24, 0x6C	; 108
    57f0:	97 e0       	ldi	r25, 0x07	; 7
    57f2:	79 cf       	rjmp	.-270    	; 0x56e6 <SunAlwaysShinesOnTV()+0x292>
    57f4:	46 eb       	ldi	r20, 0xB6	; 182
    57f6:	53 e0       	ldi	r21, 0x03	; 3
    57f8:	60 e4       	ldi	r22, 0x40	; 64
    57fa:	94 cf       	rjmp	.-216    	; 0x5724 <SunAlwaysShinesOnTV()+0x2d0>
    57fc:	42 e4       	ldi	r20, 0x42	; 66
    57fe:	6b ed       	ldi	r22, 0xDB	; 219
    5800:	71 e0       	ldi	r23, 0x01	; 1
    5802:	82 e2       	ldi	r24, 0x22	; 34
    5804:	9b e0       	ldi	r25, 0x0B	; 11
    5806:	7b cf       	rjmp	.-266    	; 0x56fe <SunAlwaysShinesOnTV()+0x2aa>
    5808:	ee 24       	eor	r14, r14
    580a:	ea 94       	dec	r14
    580c:	f1 2c       	mov	r15, r1
    580e:	0f ef       	ldi	r16, 0xFF	; 255
    5810:	10 e0       	ldi	r17, 0x00	; 0
    5812:	2f ef       	ldi	r18, 0xFF	; 255
    5814:	30 e0       	ldi	r19, 0x00	; 0
    5816:	42 e3       	ldi	r20, 0x32	; 50
    5818:	50 e0       	ldi	r21, 0x00	; 0
    581a:	64 e4       	ldi	r22, 0x44	; 68
    581c:	86 eb       	ldi	r24, 0xB6	; 182
    581e:	93 e0       	ldi	r25, 0x03	; 3
    5820:	62 cf       	rjmp	.-316    	; 0x56e6 <SunAlwaysShinesOnTV()+0x292>
    5822:	46 e4       	ldi	r20, 0x46	; 70
    5824:	6b ed       	ldi	r22, 0xDB	; 219
    5826:	71 e0       	ldi	r23, 0x01	; 1
    5828:	8b ee       	ldi	r24, 0xEB	; 235
    582a:	98 e2       	ldi	r25, 0x28	; 40
    582c:	68 cf       	rjmp	.-304    	; 0x56fe <SunAlwaysShinesOnTV()+0x2aa>
    582e:	ee 24       	eor	r14, r14
    5830:	ea 94       	dec	r14
    5832:	f1 2c       	mov	r15, r1
    5834:	0f ef       	ldi	r16, 0xFF	; 255
    5836:	10 e0       	ldi	r17, 0x00	; 0
    5838:	2f ef       	ldi	r18, 0xFF	; 255
    583a:	30 e0       	ldi	r19, 0x00	; 0
    583c:	42 e3       	ldi	r20, 0x32	; 50
    583e:	50 e0       	ldi	r21, 0x00	; 0
    5840:	68 e4       	ldi	r22, 0x48	; 72
    5842:	ec cf       	rjmp	.-40     	; 0x581c <SunAlwaysShinesOnTV()+0x3c8>
    5844:	4a e4       	ldi	r20, 0x4A	; 74
    5846:	6b ed       	ldi	r22, 0xDB	; 219
    5848:	71 e0       	ldi	r23, 0x01	; 1
    584a:	8c ed       	ldi	r24, 0xDC	; 220
    584c:	97 e3       	ldi	r25, 0x37	; 55
    584e:	57 cf       	rjmp	.-338    	; 0x56fe <SunAlwaysShinesOnTV()+0x2aa>
    5850:	ee 24       	eor	r14, r14
    5852:	ea 94       	dec	r14
    5854:	f1 2c       	mov	r15, r1
    5856:	0f ef       	ldi	r16, 0xFF	; 255
    5858:	10 e0       	ldi	r17, 0x00	; 0
    585a:	2f ef       	ldi	r18, 0xFF	; 255
    585c:	30 e0       	ldi	r19, 0x00	; 0
    585e:	42 e3       	ldi	r20, 0x32	; 50
    5860:	50 e0       	ldi	r21, 0x00	; 0
    5862:	6c e4       	ldi	r22, 0x4C	; 76
    5864:	db cf       	rjmp	.-74     	; 0x581c <SunAlwaysShinesOnTV()+0x3c8>
    5866:	64 e6       	ldi	r22, 0x64	; 100
    5868:	8c e4       	ldi	r24, 0x4C	; 76
    586a:	9d e1       	ldi	r25, 0x1D	; 29
    586c:	95 ce       	rjmp	.-726    	; 0x5598 <SunAlwaysShinesOnTV()+0x144>
    586e:	60 e0       	ldi	r22, 0x00	; 0
    5870:	8a ed       	ldi	r24, 0xDA	; 218
    5872:	90 e1       	ldi	r25, 0x10	; 16
    5874:	0e 94 91 44 	call	0x8922	; 0x8922 <CFastLED::clear(bool)>
    5878:	80 e0       	ldi	r24, 0x00	; 0
    587a:	0e 94 1a 1c 	call	0x3834	; 0x3834 <switchToSong(unsigned char)>
    587e:	7c ce       	rjmp	.-776    	; 0x5578 <SunAlwaysShinesOnTV()+0x124>

00005880 <peopleArePeople()>:
    5880:	ef 92       	push	r14
    5882:	ff 92       	push	r15
    5884:	0f 93       	push	r16
    5886:	1f 93       	push	r17
    5888:	cf 93       	push	r28
    588a:	df 93       	push	r29
    588c:	00 d0       	rcall	.+0      	; 0x588e <peopleArePeople()+0xe>
    588e:	00 d0       	rcall	.+0      	; 0x5890 <peopleArePeople()+0x10>
    5890:	00 d0       	rcall	.+0      	; 0x5892 <peopleArePeople()+0x12>
    5892:	1f 92       	push	r1
    5894:	cd b7       	in	r28, 0x3d	; 61
    5896:	de b7       	in	r29, 0x3e	; 62
    5898:	e0 91 c5 0a 	lds	r30, 0x0AC5	; 0x800ac5 <prog>
    589c:	e5 36       	cpi	r30, 0x65	; 101
    589e:	08 f0       	brcs	.+2      	; 0x58a2 <peopleArePeople()+0x22>
    58a0:	81 c0       	rjmp	.+258    	; 0x59a4 <peopleArePeople()+0x124>
    58a2:	f0 e0       	ldi	r31, 0x00	; 0
    58a4:	ea 5a       	subi	r30, 0xAA	; 170
    58a6:	f3 4d       	sbci	r31, 0xD3	; 211
    58a8:	0c 94 68 53 	jmp	0xa6d0	; 0xa6d0 <__tablejump2__>
    58ac:	bb 2c       	mov	r11, r11
    58ae:	d2 2c       	mov	r13, r2
    58b0:	df 2c       	mov	r13, r15
    58b2:	d2 2c       	mov	r13, r2
    58b4:	e5 2c       	mov	r14, r5
    58b6:	ed 2c       	mov	r14, r13
    58b8:	fc 2c       	mov	r15, r12
    58ba:	04 2d       	mov	r16, r4
    58bc:	0f 2d       	mov	r16, r15
    58be:	15 2d       	mov	r17, r5
    58c0:	1d 2d       	mov	r17, r13
    58c2:	d2 2c       	mov	r13, r2
    58c4:	24 2d       	mov	r18, r4
    58c6:	d2 2c       	mov	r13, r2
    58c8:	31 2d       	mov	r19, r1
    58ca:	d2 2c       	mov	r13, r2
    58cc:	37 2d       	mov	r19, r7
    58ce:	d2 2c       	mov	r13, r2
    58d0:	3d 2d       	mov	r19, r13
    58d2:	d2 2c       	mov	r13, r2
    58d4:	41 2d       	mov	r20, r1
    58d6:	d2 2c       	mov	r13, r2
    58d8:	4f 2d       	mov	r20, r15
    58da:	d2 2c       	mov	r13, r2
    58dc:	d2 2c       	mov	r13, r2
    58de:	d2 2c       	mov	r13, r2
    58e0:	57 2d       	mov	r21, r7
    58e2:	d2 2c       	mov	r13, r2
    58e4:	5f 2d       	mov	r21, r15
    58e6:	d2 2c       	mov	r13, r2
    58e8:	62 2d       	mov	r22, r2
    58ea:	d2 2c       	mov	r13, r2
    58ec:	6f 2d       	mov	r22, r15
    58ee:	d2 2c       	mov	r13, r2
    58f0:	71 2d       	mov	r23, r1
    58f2:	d2 2c       	mov	r13, r2
    58f4:	7e 2d       	mov	r23, r14
    58f6:	d2 2c       	mov	r13, r2
    58f8:	84 2d       	mov	r24, r4
    58fa:	d2 2c       	mov	r13, r2
    58fc:	88 2d       	mov	r24, r8
    58fe:	d2 2c       	mov	r13, r2
    5900:	95 2d       	mov	r25, r5
    5902:	d2 2c       	mov	r13, r2
    5904:	9b 2d       	mov	r25, r11
    5906:	d2 2c       	mov	r13, r2
    5908:	a8 2d       	mov	r26, r8
    590a:	d2 2c       	mov	r13, r2
    590c:	ac 2d       	mov	r26, r12
    590e:	d2 2c       	mov	r13, r2
    5910:	b9 2d       	mov	r27, r9
    5912:	d2 2c       	mov	r13, r2
    5914:	bb 2d       	mov	r27, r11
    5916:	d2 2c       	mov	r13, r2
    5918:	bf 2d       	mov	r27, r15
    591a:	c5 2d       	mov	r28, r5
    591c:	d0 2d       	mov	r29, r0
    591e:	d2 2c       	mov	r13, r2
    5920:	dd 2d       	mov	r29, r13
    5922:	d2 2c       	mov	r13, r2
    5924:	e8 2d       	mov	r30, r8
    5926:	d2 2c       	mov	r13, r2
    5928:	d2 2c       	mov	r13, r2
    592a:	d2 2c       	mov	r13, r2
    592c:	d2 2c       	mov	r13, r2
    592e:	d2 2c       	mov	r13, r2
    5930:	d2 2c       	mov	r13, r2
    5932:	d2 2c       	mov	r13, r2
    5934:	d2 2c       	mov	r13, r2
    5936:	d2 2c       	mov	r13, r2
    5938:	d2 2c       	mov	r13, r2
    593a:	d2 2c       	mov	r13, r2
    593c:	d2 2c       	mov	r13, r2
    593e:	d2 2c       	mov	r13, r2
    5940:	d2 2c       	mov	r13, r2
    5942:	d2 2c       	mov	r13, r2
    5944:	d2 2c       	mov	r13, r2
    5946:	d2 2c       	mov	r13, r2
    5948:	d2 2c       	mov	r13, r2
    594a:	d2 2c       	mov	r13, r2
    594c:	d2 2c       	mov	r13, r2
    594e:	d2 2c       	mov	r13, r2
    5950:	d2 2c       	mov	r13, r2
    5952:	d2 2c       	mov	r13, r2
    5954:	d2 2c       	mov	r13, r2
    5956:	d2 2c       	mov	r13, r2
    5958:	d2 2c       	mov	r13, r2
    595a:	d2 2c       	mov	r13, r2
    595c:	d2 2c       	mov	r13, r2
    595e:	d2 2c       	mov	r13, r2
    5960:	d2 2c       	mov	r13, r2
    5962:	d2 2c       	mov	r13, r2
    5964:	d2 2c       	mov	r13, r2
    5966:	d2 2c       	mov	r13, r2
    5968:	d2 2c       	mov	r13, r2
    596a:	d2 2c       	mov	r13, r2
    596c:	d2 2c       	mov	r13, r2
    596e:	d2 2c       	mov	r13, r2
    5970:	d2 2c       	mov	r13, r2
    5972:	d2 2c       	mov	r13, r2
    5974:	ec 2d       	mov	r30, r12
    5976:	0e 94 e6 09 	call	0x13cc	; 0x13cc <getRandomColor()>
    597a:	7c 01       	movw	r14, r24
    597c:	6e ed       	ldi	r22, 0xDE	; 222
    597e:	72 e0       	ldi	r23, 0x02	; 2
    5980:	ce 01       	movw	r24, r28
    5982:	01 96       	adiw	r24, 0x01	; 1
    5984:	0e 94 30 51 	call	0xa260	; 0xa260 <String::String(char const*)>
    5988:	02 e0       	ldi	r16, 0x02	; 2
    598a:	97 01       	movw	r18, r14
    598c:	4a e5       	ldi	r20, 0x5A	; 90
    598e:	50 e0       	ldi	r21, 0x00	; 0
    5990:	6c ef       	ldi	r22, 0xFC	; 252
    5992:	73 e5       	ldi	r23, 0x53	; 83
    5994:	ce 01       	movw	r24, r28
    5996:	01 96       	adiw	r24, 0x01	; 1
    5998:	0e 94 4b 13 	call	0x2696	; 0x2696 <progScrollText(String, unsigned int, int, int, unsigned char)>
    599c:	ce 01       	movw	r24, r28
    599e:	01 96       	adiw	r24, 0x01	; 1
    59a0:	0e 94 c7 50 	call	0xa18e	; 0xa18e <String::~String()>
    59a4:	27 96       	adiw	r28, 0x07	; 7
    59a6:	0f b6       	in	r0, 0x3f	; 63
    59a8:	f8 94       	cli
    59aa:	de bf       	out	0x3e, r29	; 62
    59ac:	0f be       	out	0x3f, r0	; 63
    59ae:	cd bf       	out	0x3d, r28	; 61
    59b0:	df 91       	pop	r29
    59b2:	cf 91       	pop	r28
    59b4:	1f 91       	pop	r17
    59b6:	0f 91       	pop	r16
    59b8:	ff 90       	pop	r15
    59ba:	ef 90       	pop	r14
    59bc:	08 95       	ret
    59be:	64 e0       	ldi	r22, 0x04	; 4
    59c0:	86 e5       	ldi	r24, 0x56	; 86
    59c2:	95 e4       	ldi	r25, 0x45	; 69
    59c4:	0e 94 d1 0c 	call	0x19a2	; 0x19a2 <progMatrixScanner(unsigned int, unsigned char)>
    59c8:	ed cf       	rjmp	.-38     	; 0x59a4 <peopleArePeople()+0x124>
    59ca:	4a ef       	ldi	r20, 0xFA	; 250
    59cc:	50 e0       	ldi	r21, 0x00	; 0
    59ce:	65 e0       	ldi	r22, 0x05	; 5
    59d0:	82 e9       	ldi	r24, 0x92	; 146
    59d2:	9b e3       	ldi	r25, 0x3B	; 59
    59d4:	0e 94 38 0b 	call	0x1670	; 0x1670 <progFullColors(unsigned int, unsigned char, unsigned int)>
    59d8:	e5 cf       	rjmp	.-54     	; 0x59a4 <peopleArePeople()+0x124>
    59da:	ee 24       	eor	r14, r14
    59dc:	ea 94       	dec	r14
    59de:	f1 2c       	mov	r15, r1
    59e0:	0f ef       	ldi	r16, 0xFF	; 255
    59e2:	10 e0       	ldi	r17, 0x00	; 0
    59e4:	2f ef       	ldi	r18, 0xFF	; 255
    59e6:	30 e0       	ldi	r19, 0x00	; 0
    59e8:	4d e7       	ldi	r20, 0x7D	; 125
    59ea:	50 e0       	ldi	r21, 0x00	; 0
    59ec:	66 e0       	ldi	r22, 0x06	; 6
    59ee:	8b e6       	ldi	r24, 0x6B	; 107
    59f0:	93 e0       	ldi	r25, 0x03	; 3
    59f2:	0e 94 9d 0b 	call	0x173a	; 0x173a <progStrobo(unsigned int, unsigned char, unsigned int, int, int, int)>
    59f6:	d6 cf       	rjmp	.-84     	; 0x59a4 <peopleArePeople()+0x124>
    59f8:	47 e0       	ldi	r20, 0x07	; 7
    59fa:	68 ee       	ldi	r22, 0xE8	; 232
    59fc:	73 e0       	ldi	r23, 0x03	; 3
    59fe:	85 e3       	ldi	r24, 0x35	; 53
    5a00:	9c e0       	ldi	r25, 0x0C	; 12
    5a02:	0e 94 d4 0c 	call	0x19a8	; 0x19a8 <progStern(unsigned int, int, unsigned char)>
    5a06:	ce cf       	rjmp	.-100    	; 0x59a4 <peopleArePeople()+0x124>
    5a08:	ee 24       	eor	r14, r14
    5a0a:	ea 94       	dec	r14
    5a0c:	f1 2c       	mov	r15, r1
    5a0e:	0f ef       	ldi	r16, 0xFF	; 255
    5a10:	10 e0       	ldi	r17, 0x00	; 0
    5a12:	2f ef       	ldi	r18, 0xFF	; 255
    5a14:	30 e0       	ldi	r19, 0x00	; 0
    5a16:	4d e7       	ldi	r20, 0x7D	; 125
    5a18:	50 e0       	ldi	r21, 0x00	; 0
    5a1a:	68 e0       	ldi	r22, 0x08	; 8
    5a1c:	e8 cf       	rjmp	.-48     	; 0x59ee <peopleArePeople()+0x16e>
    5a1e:	49 e0       	ldi	r20, 0x09	; 9
    5a20:	68 ee       	ldi	r22, 0xE8	; 232
    5a22:	73 e0       	ldi	r23, 0x03	; 3
    5a24:	83 e5       	ldi	r24, 0x53	; 83
    5a26:	97 e0       	ldi	r25, 0x07	; 7
    5a28:	ec cf       	rjmp	.-40     	; 0x5a02 <peopleArePeople()+0x182>
    5a2a:	44 ef       	ldi	r20, 0xF4	; 244
    5a2c:	51 e0       	ldi	r21, 0x01	; 1
    5a2e:	6a e0       	ldi	r22, 0x0A	; 10
    5a30:	80 e8       	ldi	r24, 0x80	; 128
    5a32:	9e e3       	ldi	r25, 0x3E	; 62
    5a34:	0e 94 cf 0e 	call	0x1d9e	; 0x1d9e <progCircles(unsigned int, unsigned char, unsigned int)>
    5a38:	b5 cf       	rjmp	.-150    	; 0x59a4 <peopleArePeople()+0x124>
    5a3a:	4c e0       	ldi	r20, 0x0C	; 12
    5a3c:	67 e0       	ldi	r22, 0x07	; 7
    5a3e:	80 e7       	ldi	r24, 0x70	; 112
    5a40:	97 e1       	ldi	r25, 0x17	; 23
    5a42:	0e 94 83 16 	call	0x2d06	; 0x2d06 <progPalette(unsigned int, unsigned char, unsigned char)>
    5a46:	ae cf       	rjmp	.-164    	; 0x59a4 <peopleArePeople()+0x124>
    5a48:	ee 24       	eor	r14, r14
    5a4a:	ea 94       	dec	r14
    5a4c:	f1 2c       	mov	r15, r1
    5a4e:	0f ef       	ldi	r16, 0xFF	; 255
    5a50:	10 e0       	ldi	r17, 0x00	; 0
    5a52:	2f ef       	ldi	r18, 0xFF	; 255
    5a54:	30 e0       	ldi	r19, 0x00	; 0
    5a56:	4d e7       	ldi	r20, 0x7D	; 125
    5a58:	50 e0       	ldi	r21, 0x00	; 0
    5a5a:	6e e0       	ldi	r22, 0x0E	; 14
    5a5c:	84 ef       	ldi	r24, 0xF4	; 244
    5a5e:	91 e0       	ldi	r25, 0x01	; 1
    5a60:	c8 cf       	rjmp	.-112    	; 0x59f2 <peopleArePeople()+0x172>
    5a62:	60 e1       	ldi	r22, 0x10	; 16
    5a64:	84 ef       	ldi	r24, 0xF4	; 244
    5a66:	91 e0       	ldi	r25, 0x01	; 1
    5a68:	0e 94 25 0e 	call	0x1c4a	; 0x1c4a <progBlack(unsigned int, unsigned char)>
    5a6c:	9b cf       	rjmp	.-202    	; 0x59a4 <peopleArePeople()+0x124>
    5a6e:	42 e3       	ldi	r20, 0x32	; 50
    5a70:	50 e0       	ldi	r21, 0x00	; 0
    5a72:	62 e1       	ldi	r22, 0x12	; 18
    5a74:	88 ee       	ldi	r24, 0xE8	; 232
    5a76:	93 e0       	ldi	r25, 0x03	; 3
    5a78:	dd cf       	rjmp	.-70     	; 0x5a34 <peopleArePeople()+0x1b4>
    5a7a:	4a ef       	ldi	r20, 0xFA	; 250
    5a7c:	50 e0       	ldi	r21, 0x00	; 0
    5a7e:	64 e1       	ldi	r22, 0x14	; 20
    5a80:	a7 cf       	rjmp	.-178    	; 0x59d0 <peopleArePeople()+0x150>
    5a82:	0e 94 cd 09 	call	0x139a	; 0x139a <getRandomColorValue()>
    5a86:	7c 01       	movw	r14, r24
    5a88:	0e 94 cd 09 	call	0x139a	; 0x139a <getRandomColorValue()>
    5a8c:	0f ef       	ldi	r16, 0xFF	; 255
    5a8e:	10 e0       	ldi	r17, 0x00	; 0
    5a90:	9c 01       	movw	r18, r24
    5a92:	4d e7       	ldi	r20, 0x7D	; 125
    5a94:	50 e0       	ldi	r21, 0x00	; 0
    5a96:	66 e1       	ldi	r22, 0x16	; 22
    5a98:	8e ee       	ldi	r24, 0xEE	; 238
    5a9a:	92 e0       	ldi	r25, 0x02	; 2
    5a9c:	aa cf       	rjmp	.-172    	; 0x59f2 <peopleArePeople()+0x172>
    5a9e:	40 ed       	ldi	r20, 0xD0	; 208
    5aa0:	57 e0       	ldi	r21, 0x07	; 7
    5aa2:	6a e1       	ldi	r22, 0x1A	; 26
    5aa4:	80 e6       	ldi	r24, 0x60	; 96
    5aa6:	9d e6       	ldi	r25, 0x6D	; 109
    5aa8:	0e 94 1a 0a 	call	0x1434	; 0x1434 <progBlingBlingColoring(unsigned int, unsigned char, unsigned int)>
    5aac:	7b cf       	rjmp	.-266    	; 0x59a4 <peopleArePeople()+0x124>
    5aae:	44 ef       	ldi	r20, 0xF4	; 244
    5ab0:	51 e0       	ldi	r21, 0x01	; 1
    5ab2:	6c e1       	ldi	r22, 0x1C	; 28
    5ab4:	80 e8       	ldi	r24, 0x80	; 128
    5ab6:	9e e3       	ldi	r25, 0x3E	; 62
    5ab8:	0e 94 7b 0f 	call	0x1ef6	; 0x1ef6 <progRandomLines(unsigned int, unsigned char, unsigned int)>
    5abc:	73 cf       	rjmp	.-282    	; 0x59a4 <peopleArePeople()+0x124>
    5abe:	4e e1       	ldi	r20, 0x1E	; 30
    5ac0:	68 e0       	ldi	r22, 0x08	; 8
    5ac2:	bd cf       	rjmp	.-134    	; 0x5a3e <peopleArePeople()+0x1be>
    5ac4:	0e 94 cd 09 	call	0x139a	; 0x139a <getRandomColorValue()>
    5ac8:	8c 01       	movw	r16, r24
    5aca:	0e 94 cd 09 	call	0x139a	; 0x139a <getRandomColorValue()>
    5ace:	ee 24       	eor	r14, r14
    5ad0:	ea 94       	dec	r14
    5ad2:	f1 2c       	mov	r15, r1
    5ad4:	9c 01       	movw	r18, r24
    5ad6:	4d e7       	ldi	r20, 0x7D	; 125
    5ad8:	50 e0       	ldi	r21, 0x00	; 0
    5ada:	60 e2       	ldi	r22, 0x20	; 32
    5adc:	bf cf       	rjmp	.-130    	; 0x5a5c <peopleArePeople()+0x1dc>
    5ade:	62 e2       	ldi	r22, 0x22	; 34
    5ae0:	c1 cf       	rjmp	.-126    	; 0x5a64 <peopleArePeople()+0x1e4>
    5ae2:	ee 24       	eor	r14, r14
    5ae4:	ea 94       	dec	r14
    5ae6:	f1 2c       	mov	r15, r1
    5ae8:	0f ef       	ldi	r16, 0xFF	; 255
    5aea:	10 e0       	ldi	r17, 0x00	; 0
    5aec:	2f ef       	ldi	r18, 0xFF	; 255
    5aee:	30 e0       	ldi	r19, 0x00	; 0
    5af0:	42 e3       	ldi	r20, 0x32	; 50
    5af2:	50 e0       	ldi	r21, 0x00	; 0
    5af4:	64 e2       	ldi	r22, 0x24	; 36
    5af6:	88 ee       	ldi	r24, 0xE8	; 232
    5af8:	93 e0       	ldi	r25, 0x03	; 3
    5afa:	7b cf       	rjmp	.-266    	; 0x59f2 <peopleArePeople()+0x172>
    5afc:	46 e2       	ldi	r20, 0x26	; 38
    5afe:	64 ef       	ldi	r22, 0xF4	; 244
    5b00:	71 e0       	ldi	r23, 0x01	; 1
    5b02:	80 e8       	ldi	r24, 0x80	; 128
    5b04:	9e e3       	ldi	r25, 0x3E	; 62
    5b06:	7d cf       	rjmp	.-262    	; 0x5a02 <peopleArePeople()+0x182>
    5b08:	68 e2       	ldi	r22, 0x28	; 40
    5b0a:	82 eb       	ldi	r24, 0xB2	; 178
    5b0c:	9c e0       	ldi	r25, 0x0C	; 12
    5b0e:	5a cf       	rjmp	.-332    	; 0x59c4 <peopleArePeople()+0x144>
    5b10:	0e 94 cd 09 	call	0x139a	; 0x139a <getRandomColorValue()>
    5b14:	8c 01       	movw	r16, r24
    5b16:	0e 94 cd 09 	call	0x139a	; 0x139a <getRandomColorValue()>
    5b1a:	ee 24       	eor	r14, r14
    5b1c:	ea 94       	dec	r14
    5b1e:	f1 2c       	mov	r15, r1
    5b20:	9c 01       	movw	r18, r24
    5b22:	4d e7       	ldi	r20, 0x7D	; 125
    5b24:	50 e0       	ldi	r21, 0x00	; 0
    5b26:	6a e2       	ldi	r22, 0x2A	; 42
    5b28:	b7 cf       	rjmp	.-146    	; 0x5a98 <peopleArePeople()+0x218>
    5b2a:	6c e2       	ldi	r22, 0x2C	; 44
    5b2c:	80 e4       	ldi	r24, 0x40	; 64
    5b2e:	9f e1       	ldi	r25, 0x1F	; 31
    5b30:	0e 94 5e 17 	call	0x2ebc	; 0x2ebc <progMatrixHorizontal(unsigned int, unsigned char)>
    5b34:	37 cf       	rjmp	.-402    	; 0x59a4 <peopleArePeople()+0x124>
    5b36:	0e 94 cd 09 	call	0x139a	; 0x139a <getRandomColorValue()>
    5b3a:	8c 01       	movw	r16, r24
    5b3c:	0e 94 cd 09 	call	0x139a	; 0x139a <getRandomColorValue()>
    5b40:	ee 24       	eor	r14, r14
    5b42:	ea 94       	dec	r14
    5b44:	f1 2c       	mov	r15, r1
    5b46:	9c 01       	movw	r18, r24
    5b48:	4d e7       	ldi	r20, 0x7D	; 125
    5b4a:	50 e0       	ldi	r21, 0x00	; 0
    5b4c:	6e e2       	ldi	r22, 0x2E	; 46
    5b4e:	86 cf       	rjmp	.-244    	; 0x5a5c <peopleArePeople()+0x1dc>
    5b50:	60 e3       	ldi	r22, 0x30	; 48
    5b52:	8c e4       	ldi	r24, 0x4C	; 76
    5b54:	9d e1       	ldi	r25, 0x1D	; 29
    5b56:	ec cf       	rjmp	.-40     	; 0x5b30 <peopleArePeople()+0x2b0>
    5b58:	0e 94 cd 09 	call	0x139a	; 0x139a <getRandomColorValue()>
    5b5c:	8c 01       	movw	r16, r24
    5b5e:	0e 94 cd 09 	call	0x139a	; 0x139a <getRandomColorValue()>
    5b62:	ee 24       	eor	r14, r14
    5b64:	ea 94       	dec	r14
    5b66:	f1 2c       	mov	r15, r1
    5b68:	9c 01       	movw	r18, r24
    5b6a:	4d e7       	ldi	r20, 0x7D	; 125
    5b6c:	50 e0       	ldi	r21, 0x00	; 0
    5b6e:	62 e3       	ldi	r22, 0x32	; 50
    5b70:	75 cf       	rjmp	.-278    	; 0x5a5c <peopleArePeople()+0x1dc>
    5b72:	64 e3       	ldi	r22, 0x34	; 52
    5b74:	77 cf       	rjmp	.-274    	; 0x5a64 <peopleArePeople()+0x1e4>
    5b76:	42 e3       	ldi	r20, 0x32	; 50
    5b78:	50 e0       	ldi	r21, 0x00	; 0
    5b7a:	66 e3       	ldi	r22, 0x36	; 54
    5b7c:	7b cf       	rjmp	.-266    	; 0x5a74 <peopleArePeople()+0x1f4>
    5b7e:	4a ef       	ldi	r20, 0xFA	; 250
    5b80:	50 e0       	ldi	r21, 0x00	; 0
    5b82:	67 e3       	ldi	r22, 0x37	; 55
    5b84:	8c e8       	ldi	r24, 0x8C	; 140
    5b86:	9c e3       	ldi	r25, 0x3C	; 60
    5b88:	25 cf       	rjmp	.-438    	; 0x59d4 <peopleArePeople()+0x154>
    5b8a:	ee 24       	eor	r14, r14
    5b8c:	ea 94       	dec	r14
    5b8e:	f1 2c       	mov	r15, r1
    5b90:	0f ef       	ldi	r16, 0xFF	; 255
    5b92:	10 e0       	ldi	r17, 0x00	; 0
    5b94:	2f ef       	ldi	r18, 0xFF	; 255
    5b96:	30 e0       	ldi	r19, 0x00	; 0
    5b98:	44 e6       	ldi	r20, 0x64	; 100
    5b9a:	50 e0       	ldi	r21, 0x00	; 0
    5b9c:	68 e3       	ldi	r22, 0x38	; 56
    5b9e:	5e cf       	rjmp	.-324    	; 0x5a5c <peopleArePeople()+0x1dc>
    5ba0:	9c ed       	ldi	r25, 0xDC	; 220
    5ba2:	e9 2e       	mov	r14, r25
    5ba4:	95 e0       	ldi	r25, 0x05	; 5
    5ba6:	f9 2e       	mov	r15, r25
    5ba8:	04 e6       	ldi	r16, 0x64	; 100
    5baa:	21 e0       	ldi	r18, 0x01	; 1
    5bac:	4a e3       	ldi	r20, 0x3A	; 58
    5bae:	61 e0       	ldi	r22, 0x01	; 1
    5bb0:	88 e9       	ldi	r24, 0x98	; 152
    5bb2:	9a e3       	ldi	r25, 0x3A	; 58
    5bb4:	0e 94 bd 0a 	call	0x157a	; 0x157a <progFastBlingBling(unsigned int, unsigned char, unsigned char, unsigned char, unsigned char, unsigned int)>
    5bb8:	f5 ce       	rjmp	.-534    	; 0x59a4 <peopleArePeople()+0x124>
    5bba:	ee 24       	eor	r14, r14
    5bbc:	ea 94       	dec	r14
    5bbe:	f1 2c       	mov	r15, r1
    5bc0:	0f ef       	ldi	r16, 0xFF	; 255
    5bc2:	10 e0       	ldi	r17, 0x00	; 0
    5bc4:	2f ef       	ldi	r18, 0xFF	; 255
    5bc6:	30 e0       	ldi	r19, 0x00	; 0
    5bc8:	42 e3       	ldi	r20, 0x32	; 50
    5bca:	50 e0       	ldi	r21, 0x00	; 0
    5bcc:	6c e3       	ldi	r22, 0x3C	; 60
    5bce:	93 cf       	rjmp	.-218    	; 0x5af6 <peopleArePeople()+0x276>
    5bd0:	64 e6       	ldi	r22, 0x64	; 100
    5bd2:	80 e1       	ldi	r24, 0x10	; 16
    5bd4:	97 e2       	ldi	r25, 0x27	; 39
    5bd6:	48 cf       	rjmp	.-368    	; 0x5a68 <peopleArePeople()+0x1e8>
    5bd8:	60 e0       	ldi	r22, 0x00	; 0
    5bda:	8a ed       	ldi	r24, 0xDA	; 218
    5bdc:	90 e1       	ldi	r25, 0x10	; 16
    5bde:	0e 94 91 44 	call	0x8922	; 0x8922 <CFastLED::clear(bool)>
    5be2:	80 e0       	ldi	r24, 0x00	; 0
    5be4:	0e 94 1a 1c 	call	0x3834	; 0x3834 <switchToSong(unsigned char)>
    5be8:	dd ce       	rjmp	.-582    	; 0x59a4 <peopleArePeople()+0x124>

00005bea <enjoyTheSilence()>:
    5bea:	ef 92       	push	r14
    5bec:	ff 92       	push	r15
    5bee:	0f 93       	push	r16
    5bf0:	1f 93       	push	r17
    5bf2:	cf 93       	push	r28
    5bf4:	df 93       	push	r29
    5bf6:	00 d0       	rcall	.+0      	; 0x5bf8 <enjoyTheSilence()+0xe>
    5bf8:	00 d0       	rcall	.+0      	; 0x5bfa <enjoyTheSilence()+0x10>
    5bfa:	00 d0       	rcall	.+0      	; 0x5bfc <enjoyTheSilence()+0x12>
    5bfc:	1f 92       	push	r1
    5bfe:	cd b7       	in	r28, 0x3d	; 61
    5c00:	de b7       	in	r29, 0x3e	; 62
    5c02:	80 91 c5 0a 	lds	r24, 0x0AC5	; 0x800ac5 <prog>
    5c06:	86 34       	cpi	r24, 0x46	; 70
    5c08:	09 f4       	brne	.+2      	; 0x5c0c <enjoyTheSilence()+0x22>
    5c0a:	f0 c0       	rjmp	.+480    	; 0x5dec <enjoyTheSilence()+0x202>
    5c0c:	08 f0       	brcs	.+2      	; 0x5c10 <enjoyTheSilence()+0x26>
    5c0e:	51 c0       	rjmp	.+162    	; 0x5cb2 <enjoyTheSilence()+0xc8>
    5c10:	8e 31       	cpi	r24, 0x1E	; 30
    5c12:	09 f4       	brne	.+2      	; 0x5c16 <enjoyTheSilence()+0x2c>
    5c14:	c9 c0       	rjmp	.+402    	; 0x5da8 <enjoyTheSilence()+0x1be>
    5c16:	18 f5       	brcc	.+70     	; 0x5c5e <enjoyTheSilence()+0x74>
    5c18:	8a 30       	cpi	r24, 0x0A	; 10
    5c1a:	09 f4       	brne	.+2      	; 0x5c1e <enjoyTheSilence()+0x34>
    5c1c:	a9 c0       	rjmp	.+338    	; 0x5d70 <enjoyTheSilence()+0x186>
    5c1e:	98 f4       	brcc	.+38     	; 0x5c46 <enjoyTheSilence()+0x5c>
    5c20:	88 23       	and	r24, r24
    5c22:	09 f4       	brne	.+2      	; 0x5c26 <enjoyTheSilence()+0x3c>
    5c24:	86 c0       	rjmp	.+268    	; 0x5d32 <enjoyTheSilence()+0x148>
    5c26:	85 30       	cpi	r24, 0x05	; 5
    5c28:	09 f4       	brne	.+2      	; 0x5c2c <enjoyTheSilence()+0x42>
    5c2a:	9b c0       	rjmp	.+310    	; 0x5d62 <enjoyTheSilence()+0x178>
    5c2c:	27 96       	adiw	r28, 0x07	; 7
    5c2e:	0f b6       	in	r0, 0x3f	; 63
    5c30:	f8 94       	cli
    5c32:	de bf       	out	0x3e, r29	; 62
    5c34:	0f be       	out	0x3f, r0	; 63
    5c36:	cd bf       	out	0x3d, r28	; 61
    5c38:	df 91       	pop	r29
    5c3a:	cf 91       	pop	r28
    5c3c:	1f 91       	pop	r17
    5c3e:	0f 91       	pop	r16
    5c40:	ff 90       	pop	r15
    5c42:	ef 90       	pop	r14
    5c44:	08 95       	ret
    5c46:	84 31       	cpi	r24, 0x14	; 20
    5c48:	09 f4       	brne	.+2      	; 0x5c4c <enjoyTheSilence()+0x62>
    5c4a:	97 c0       	rjmp	.+302    	; 0x5d7a <enjoyTheSilence()+0x190>
    5c4c:	89 31       	cpi	r24, 0x19	; 25
    5c4e:	09 f4       	brne	.+2      	; 0x5c52 <enjoyTheSilence()+0x68>
    5c50:	a5 c0       	rjmp	.+330    	; 0x5d9c <enjoyTheSilence()+0x1b2>
    5c52:	8f 30       	cpi	r24, 0x0F	; 15
    5c54:	59 f7       	brne	.-42     	; 0x5c2c <enjoyTheSilence()+0x42>
    5c56:	4a e1       	ldi	r20, 0x1A	; 26
    5c58:	54 e0       	ldi	r21, 0x04	; 4
    5c5a:	64 e1       	ldi	r22, 0x14	; 20
    5c5c:	3b c0       	rjmp	.+118    	; 0x5cd4 <enjoyTheSilence()+0xea>
    5c5e:	82 33       	cpi	r24, 0x32	; 50
    5c60:	09 f4       	brne	.+2      	; 0x5c64 <enjoyTheSilence()+0x7a>
    5c62:	ad c0       	rjmp	.+346    	; 0x5dbe <enjoyTheSilence()+0x1d4>
    5c64:	78 f4       	brcc	.+30     	; 0x5c84 <enjoyTheSilence()+0x9a>
    5c66:	88 32       	cpi	r24, 0x28	; 40
    5c68:	09 f4       	brne	.+2      	; 0x5c6c <enjoyTheSilence()+0x82>
    5c6a:	a4 c0       	rjmp	.+328    	; 0x5db4 <enjoyTheSilence()+0x1ca>
    5c6c:	8d 32       	cpi	r24, 0x2D	; 45
    5c6e:	09 f4       	brne	.+2      	; 0x5c72 <enjoyTheSilence()+0x88>
    5c70:	a4 c0       	rjmp	.+328    	; 0x5dba <enjoyTheSilence()+0x1d0>
    5c72:	83 32       	cpi	r24, 0x23	; 35
    5c74:	d9 f6       	brne	.-74     	; 0x5c2c <enjoyTheSilence()+0x42>
    5c76:	48 e2       	ldi	r20, 0x28	; 40
    5c78:	65 e0       	ldi	r22, 0x05	; 5
    5c7a:	8f e4       	ldi	r24, 0x4F	; 79
    5c7c:	92 e4       	ldi	r25, 0x42	; 66
    5c7e:	0e 94 2c 0b 	call	0x1658	; 0x1658 <progFastBlingBling(unsigned int, unsigned char, unsigned char)>
    5c82:	d4 cf       	rjmp	.-88     	; 0x5c2c <enjoyTheSilence()+0x42>
    5c84:	8c 33       	cpi	r24, 0x3C	; 60
    5c86:	09 f4       	brne	.+2      	; 0x5c8a <enjoyTheSilence()+0xa0>
    5c88:	9e c0       	rjmp	.+316    	; 0x5dc6 <enjoyTheSilence()+0x1dc>
    5c8a:	81 34       	cpi	r24, 0x41	; 65
    5c8c:	09 f4       	brne	.+2      	; 0x5c90 <enjoyTheSilence()+0xa6>
    5c8e:	ab c0       	rjmp	.+342    	; 0x5de6 <enjoyTheSilence()+0x1fc>
    5c90:	87 33       	cpi	r24, 0x37	; 55
    5c92:	61 f6       	brne	.-104    	; 0x5c2c <enjoyTheSilence()+0x42>
    5c94:	0e 94 cd 09 	call	0x139a	; 0x139a <getRandomColorValue()>
    5c98:	7c 01       	movw	r14, r24
    5c9a:	0e 94 cd 09 	call	0x139a	; 0x139a <getRandomColorValue()>
    5c9e:	8c 01       	movw	r16, r24
    5ca0:	0e 94 cd 09 	call	0x139a	; 0x139a <getRandomColorValue()>
    5ca4:	9c 01       	movw	r18, r24
    5ca6:	42 e3       	ldi	r20, 0x32	; 50
    5ca8:	50 e0       	ldi	r21, 0x00	; 0
    5caa:	6c e3       	ldi	r22, 0x3C	; 60
    5cac:	84 e3       	ldi	r24, 0x34	; 52
    5cae:	91 e2       	ldi	r25, 0x21	; 33
    5cb0:	72 c0       	rjmp	.+228    	; 0x5d96 <enjoyTheSilence()+0x1ac>
    5cb2:	89 36       	cpi	r24, 0x69	; 105
    5cb4:	09 f4       	brne	.+2      	; 0x5cb8 <enjoyTheSilence()+0xce>
    5cb6:	c9 c0       	rjmp	.+402    	; 0x5e4a <enjoyTheSilence()+0x260>
    5cb8:	08 f5       	brcc	.+66     	; 0x5cfc <enjoyTheSilence()+0x112>
    5cba:	85 35       	cpi	r24, 0x55	; 85
    5cbc:	09 f4       	brne	.+2      	; 0x5cc0 <enjoyTheSilence()+0xd6>
    5cbe:	a0 c0       	rjmp	.+320    	; 0x5e00 <enjoyTheSilence()+0x216>
    5cc0:	70 f4       	brcc	.+28     	; 0x5cde <enjoyTheSilence()+0xf4>
    5cc2:	8b 34       	cpi	r24, 0x4B	; 75
    5cc4:	09 f4       	brne	.+2      	; 0x5cc8 <enjoyTheSilence()+0xde>
    5cc6:	97 c0       	rjmp	.+302    	; 0x5df6 <enjoyTheSilence()+0x20c>
    5cc8:	4a e1       	ldi	r20, 0x1A	; 26
    5cca:	54 e0       	ldi	r21, 0x04	; 4
    5ccc:	65 e5       	ldi	r22, 0x55	; 85
    5cce:	80 35       	cpi	r24, 0x50	; 80
    5cd0:	09 f0       	breq	.+2      	; 0x5cd4 <enjoyTheSilence()+0xea>
    5cd2:	ac cf       	rjmp	.-168    	; 0x5c2c <enjoyTheSilence()+0x42>
    5cd4:	84 e3       	ldi	r24, 0x34	; 52
    5cd6:	91 e2       	ldi	r25, 0x21	; 33
    5cd8:	0e 94 38 0b 	call	0x1670	; 0x1670 <progFullColors(unsigned int, unsigned char, unsigned int)>
    5cdc:	a7 cf       	rjmp	.-178    	; 0x5c2c <enjoyTheSilence()+0x42>
    5cde:	8f 35       	cpi	r24, 0x5F	; 95
    5ce0:	09 f4       	brne	.+2      	; 0x5ce4 <enjoyTheSilence()+0xfa>
    5ce2:	9b c0       	rjmp	.+310    	; 0x5e1a <enjoyTheSilence()+0x230>
    5ce4:	84 36       	cpi	r24, 0x64	; 100
    5ce6:	09 f4       	brne	.+2      	; 0x5cea <enjoyTheSilence()+0x100>
    5ce8:	a5 c0       	rjmp	.+330    	; 0x5e34 <enjoyTheSilence()+0x24a>
    5cea:	8a 35       	cpi	r24, 0x5A	; 90
    5cec:	09 f0       	breq	.+2      	; 0x5cf0 <enjoyTheSilence()+0x106>
    5cee:	9e cf       	rjmp	.-196    	; 0x5c2c <enjoyTheSilence()+0x42>
    5cf0:	4a e1       	ldi	r20, 0x1A	; 26
    5cf2:	54 e0       	ldi	r21, 0x04	; 4
    5cf4:	6f e5       	ldi	r22, 0x5F	; 95
    5cf6:	8b e1       	ldi	r24, 0x1B	; 27
    5cf8:	91 e2       	ldi	r25, 0x21	; 33
    5cfa:	ee cf       	rjmp	.-36     	; 0x5cd8 <enjoyTheSilence()+0xee>
    5cfc:	8d 37       	cpi	r24, 0x7D	; 125
    5cfe:	09 f4       	brne	.+2      	; 0x5d02 <enjoyTheSilence()+0x118>
    5d00:	af c0       	rjmp	.+350    	; 0x5e60 <enjoyTheSilence()+0x276>
    5d02:	58 f4       	brcc	.+22     	; 0x5d1a <enjoyTheSilence()+0x130>
    5d04:	83 37       	cpi	r24, 0x73	; 115
    5d06:	09 f4       	brne	.+2      	; 0x5d0a <enjoyTheSilence()+0x120>
    5d08:	a5 c0       	rjmp	.+330    	; 0x5e54 <enjoyTheSilence()+0x26a>
    5d0a:	88 37       	cpi	r24, 0x78	; 120
    5d0c:	09 f4       	brne	.+2      	; 0x5d10 <enjoyTheSilence()+0x126>
    5d0e:	a5 c0       	rjmp	.+330    	; 0x5e5a <enjoyTheSilence()+0x270>
    5d10:	8e 36       	cpi	r24, 0x6E	; 110
    5d12:	09 f0       	breq	.+2      	; 0x5d16 <enjoyTheSilence()+0x12c>
    5d14:	8b cf       	rjmp	.-234    	; 0x5c2c <enjoyTheSilence()+0x42>
    5d16:	43 e7       	ldi	r20, 0x73	; 115
    5d18:	67 c0       	rjmp	.+206    	; 0x5de8 <enjoyTheSilence()+0x1fe>
    5d1a:	87 38       	cpi	r24, 0x87	; 135
    5d1c:	09 f4       	brne	.+2      	; 0x5d20 <enjoyTheSilence()+0x136>
    5d1e:	a3 c0       	rjmp	.+326    	; 0x5e66 <enjoyTheSilence()+0x27c>
    5d20:	88 3c       	cpi	r24, 0xC8	; 200
    5d22:	09 f4       	brne	.+2      	; 0x5d26 <enjoyTheSilence()+0x13c>
    5d24:	a4 c0       	rjmp	.+328    	; 0x5e6e <enjoyTheSilence()+0x284>
    5d26:	82 38       	cpi	r24, 0x82	; 130
    5d28:	09 f0       	breq	.+2      	; 0x5d2c <enjoyTheSilence()+0x142>
    5d2a:	80 cf       	rjmp	.-256    	; 0x5c2c <enjoyTheSilence()+0x42>
    5d2c:	47 e8       	ldi	r20, 0x87	; 135
    5d2e:	66 e0       	ldi	r22, 0x06	; 6
    5d30:	8e c0       	rjmp	.+284    	; 0x5e4e <enjoyTheSilence()+0x264>
    5d32:	0e 94 e6 09 	call	0x13cc	; 0x13cc <getRandomColor()>
    5d36:	7c 01       	movw	r14, r24
    5d38:	60 e0       	ldi	r22, 0x00	; 0
    5d3a:	73 e0       	ldi	r23, 0x03	; 3
    5d3c:	ce 01       	movw	r24, r28
    5d3e:	01 96       	adiw	r24, 0x01	; 1
    5d40:	0e 94 30 51 	call	0xa260	; 0xa260 <String::String(char const*)>
    5d44:	05 e0       	ldi	r16, 0x05	; 5
    5d46:	97 01       	movw	r18, r14
    5d48:	4a e5       	ldi	r20, 0x5A	; 90
    5d4a:	50 e0       	ldi	r21, 0x00	; 0
    5d4c:	6c ef       	ldi	r22, 0xFC	; 252
    5d4e:	73 e5       	ldi	r23, 0x53	; 83
    5d50:	ce 01       	movw	r24, r28
    5d52:	01 96       	adiw	r24, 0x01	; 1
    5d54:	0e 94 4b 13 	call	0x2696	; 0x2696 <progScrollText(String, unsigned int, int, int, unsigned char)>
    5d58:	ce 01       	movw	r24, r28
    5d5a:	01 96       	adiw	r24, 0x01	; 1
    5d5c:	0e 94 c7 50 	call	0xa18e	; 0xa18e <String::~String()>
    5d60:	65 cf       	rjmp	.-310    	; 0x5c2c <enjoyTheSilence()+0x42>
    5d62:	4a e0       	ldi	r20, 0x0A	; 10
    5d64:	6b e0       	ldi	r22, 0x0B	; 11
    5d66:	8b e9       	ldi	r24, 0x9B	; 155
    5d68:	9d e2       	ldi	r25, 0x2D	; 45
    5d6a:	0e 94 83 16 	call	0x2d06	; 0x2d06 <progPalette(unsigned int, unsigned char, unsigned char)>
    5d6e:	5e cf       	rjmp	.-324    	; 0x5c2c <enjoyTheSilence()+0x42>
    5d70:	4f e0       	ldi	r20, 0x0F	; 15
    5d72:	63 e0       	ldi	r22, 0x03	; 3
    5d74:	84 e3       	ldi	r24, 0x34	; 52
    5d76:	91 e2       	ldi	r25, 0x21	; 33
    5d78:	f8 cf       	rjmp	.-16     	; 0x5d6a <enjoyTheSilence()+0x180>
    5d7a:	0e 94 cd 09 	call	0x139a	; 0x139a <getRandomColorValue()>
    5d7e:	7c 01       	movw	r14, r24
    5d80:	0e 94 cd 09 	call	0x139a	; 0x139a <getRandomColorValue()>
    5d84:	8c 01       	movw	r16, r24
    5d86:	0e 94 cd 09 	call	0x139a	; 0x139a <getRandomColorValue()>
    5d8a:	9c 01       	movw	r18, r24
    5d8c:	42 e3       	ldi	r20, 0x32	; 50
    5d8e:	50 e0       	ldi	r21, 0x00	; 0
    5d90:	69 e1       	ldi	r22, 0x19	; 25
    5d92:	87 e2       	ldi	r24, 0x27	; 39
    5d94:	9f e1       	ldi	r25, 0x1F	; 31
    5d96:	0e 94 9d 0b 	call	0x173a	; 0x173a <progStrobo(unsigned int, unsigned char, unsigned int, int, int, int)>
    5d9a:	48 cf       	rjmp	.-368    	; 0x5c2c <enjoyTheSilence()+0x42>
    5d9c:	6e e1       	ldi	r22, 0x1E	; 30
    5d9e:	8d e0       	ldi	r24, 0x0D	; 13
    5da0:	92 e0       	ldi	r25, 0x02	; 2
    5da2:	0e 94 25 0e 	call	0x1c4a	; 0x1c4a <progBlack(unsigned int, unsigned char)>
    5da6:	42 cf       	rjmp	.-380    	; 0x5c2c <enjoyTheSilence()+0x42>
    5da8:	63 e2       	ldi	r22, 0x23	; 35
    5daa:	8d e4       	ldi	r24, 0x4D	; 77
    5dac:	98 e0       	ldi	r25, 0x08	; 8
    5dae:	0e 94 7d 0f 	call	0x1efa	; 0x1efa <progMovingLines(unsigned int, unsigned char)>
    5db2:	3c cf       	rjmp	.-392    	; 0x5c2c <enjoyTheSilence()+0x42>
    5db4:	4d e2       	ldi	r20, 0x2D	; 45
    5db6:	62 e0       	ldi	r22, 0x02	; 2
    5db8:	dd cf       	rjmp	.-70     	; 0x5d74 <enjoyTheSilence()+0x18a>
    5dba:	42 e3       	ldi	r20, 0x32	; 50
    5dbc:	da cf       	rjmp	.-76     	; 0x5d72 <enjoyTheSilence()+0x188>
    5dbe:	4a e1       	ldi	r20, 0x1A	; 26
    5dc0:	54 e0       	ldi	r21, 0x04	; 4
    5dc2:	67 e3       	ldi	r22, 0x37	; 55
    5dc4:	87 cf       	rjmp	.-242    	; 0x5cd4 <enjoyTheSilence()+0xea>
    5dc6:	0e 94 e6 09 	call	0x13cc	; 0x13cc <getRandomColor()>
    5dca:	7c 01       	movw	r14, r24
    5dcc:	62 e2       	ldi	r22, 0x22	; 34
    5dce:	73 e0       	ldi	r23, 0x03	; 3
    5dd0:	ce 01       	movw	r24, r28
    5dd2:	01 96       	adiw	r24, 0x01	; 1
    5dd4:	0e 94 30 51 	call	0xa260	; 0xa260 <String::String(char const*)>
    5dd8:	01 e4       	ldi	r16, 0x41	; 65
    5dda:	97 01       	movw	r18, r14
    5ddc:	49 e1       	ldi	r20, 0x19	; 25
    5dde:	50 e0       	ldi	r21, 0x00	; 0
    5de0:	6d e4       	ldi	r22, 0x4D	; 77
    5de2:	78 e0       	ldi	r23, 0x08	; 8
    5de4:	b5 cf       	rjmp	.-150    	; 0x5d50 <enjoyTheSilence()+0x166>
    5de6:	46 e4       	ldi	r20, 0x46	; 70
    5de8:	62 e0       	ldi	r22, 0x02	; 2
    5dea:	31 c0       	rjmp	.+98     	; 0x5e4e <enjoyTheSilence()+0x264>
    5dec:	4b e4       	ldi	r20, 0x4B	; 75
    5dee:	64 e0       	ldi	r22, 0x04	; 4
    5df0:	8b e1       	ldi	r24, 0x1B	; 27
    5df2:	91 e2       	ldi	r25, 0x21	; 33
    5df4:	44 cf       	rjmp	.-376    	; 0x5c7e <enjoyTheSilence()+0x94>
    5df6:	40 e5       	ldi	r20, 0x50	; 80
    5df8:	69 e0       	ldi	r22, 0x09	; 9
    5dfa:	88 e6       	ldi	r24, 0x68	; 104
    5dfc:	92 e4       	ldi	r25, 0x42	; 66
    5dfe:	b5 cf       	rjmp	.-150    	; 0x5d6a <enjoyTheSilence()+0x180>
    5e00:	0e 94 cd 09 	call	0x139a	; 0x139a <getRandomColorValue()>
    5e04:	7c 01       	movw	r14, r24
    5e06:	0e 94 cd 09 	call	0x139a	; 0x139a <getRandomColorValue()>
    5e0a:	8c 01       	movw	r16, r24
    5e0c:	0e 94 cd 09 	call	0x139a	; 0x139a <getRandomColorValue()>
    5e10:	9c 01       	movw	r18, r24
    5e12:	42 e3       	ldi	r20, 0x32	; 50
    5e14:	50 e0       	ldi	r21, 0x00	; 0
    5e16:	6a e5       	ldi	r22, 0x5A	; 90
    5e18:	49 cf       	rjmp	.-366    	; 0x5cac <enjoyTheSilence()+0xc2>
    5e1a:	0e 94 cd 09 	call	0x139a	; 0x139a <getRandomColorValue()>
    5e1e:	7c 01       	movw	r14, r24
    5e20:	0e 94 cd 09 	call	0x139a	; 0x139a <getRandomColorValue()>
    5e24:	8c 01       	movw	r16, r24
    5e26:	0e 94 cd 09 	call	0x139a	; 0x139a <getRandomColorValue()>
    5e2a:	9c 01       	movw	r18, r24
    5e2c:	42 e3       	ldi	r20, 0x32	; 50
    5e2e:	50 e0       	ldi	r21, 0x00	; 0
    5e30:	64 e6       	ldi	r22, 0x64	; 100
    5e32:	3c cf       	rjmp	.-392    	; 0x5cac <enjoyTheSilence()+0xc2>
    5e34:	0e 94 e6 09 	call	0x13cc	; 0x13cc <getRandomColor()>
    5e38:	7c 01       	movw	r14, r24
    5e3a:	62 e2       	ldi	r22, 0x22	; 34
    5e3c:	73 e0       	ldi	r23, 0x03	; 3
    5e3e:	ce 01       	movw	r24, r28
    5e40:	01 96       	adiw	r24, 0x01	; 1
    5e42:	0e 94 30 51 	call	0xa260	; 0xa260 <String::String(char const*)>
    5e46:	09 e6       	ldi	r16, 0x69	; 105
    5e48:	c8 cf       	rjmp	.-112    	; 0x5dda <enjoyTheSilence()+0x1f0>
    5e4a:	4e e6       	ldi	r20, 0x6E	; 110
    5e4c:	61 e0       	ldi	r22, 0x01	; 1
    5e4e:	84 e3       	ldi	r24, 0x34	; 52
    5e50:	91 e2       	ldi	r25, 0x21	; 33
    5e52:	15 cf       	rjmp	.-470    	; 0x5c7e <enjoyTheSilence()+0x94>
    5e54:	48 e7       	ldi	r20, 0x78	; 120
    5e56:	63 e0       	ldi	r22, 0x03	; 3
    5e58:	fa cf       	rjmp	.-12     	; 0x5e4e <enjoyTheSilence()+0x264>
    5e5a:	4d e7       	ldi	r20, 0x7D	; 125
    5e5c:	64 e0       	ldi	r22, 0x04	; 4
    5e5e:	f7 cf       	rjmp	.-18     	; 0x5e4e <enjoyTheSilence()+0x264>
    5e60:	42 e8       	ldi	r20, 0x82	; 130
    5e62:	65 e0       	ldi	r22, 0x05	; 5
    5e64:	c5 cf       	rjmp	.-118    	; 0x5df0 <enjoyTheSilence()+0x206>
    5e66:	68 ec       	ldi	r22, 0xC8	; 200
    5e68:	80 e1       	ldi	r24, 0x10	; 16
    5e6a:	97 e2       	ldi	r25, 0x27	; 39
    5e6c:	9a cf       	rjmp	.-204    	; 0x5da2 <enjoyTheSilence()+0x1b8>
    5e6e:	60 e0       	ldi	r22, 0x00	; 0
    5e70:	8a ed       	ldi	r24, 0xDA	; 218
    5e72:	90 e1       	ldi	r25, 0x10	; 16
    5e74:	0e 94 91 44 	call	0x8922	; 0x8922 <CFastLED::clear(bool)>
    5e78:	80 e0       	ldi	r24, 0x00	; 0
    5e7a:	0e 94 1a 1c 	call	0x3834	; 0x3834 <switchToSong(unsigned char)>
    5e7e:	d6 ce       	rjmp	.-596    	; 0x5c2c <enjoyTheSilence()+0x42>

00005e80 <sober()>:
    5e80:	ef 92       	push	r14
    5e82:	ff 92       	push	r15
    5e84:	0f 93       	push	r16
    5e86:	1f 93       	push	r17
    5e88:	cf 93       	push	r28
    5e8a:	df 93       	push	r29
    5e8c:	00 d0       	rcall	.+0      	; 0x5e8e <sober()+0xe>
    5e8e:	00 d0       	rcall	.+0      	; 0x5e90 <sober()+0x10>
    5e90:	00 d0       	rcall	.+0      	; 0x5e92 <sober()+0x12>
    5e92:	1f 92       	push	r1
    5e94:	cd b7       	in	r28, 0x3d	; 61
    5e96:	de b7       	in	r29, 0x3e	; 62
    5e98:	e0 91 c5 0a 	lds	r30, 0x0AC5	; 0x800ac5 <prog>
    5e9c:	e5 36       	cpi	r30, 0x65	; 101
    5e9e:	08 f0       	brcs	.+2      	; 0x5ea2 <sober()+0x22>
    5ea0:	87 c0       	rjmp	.+270    	; 0x5fb0 <sober()+0x130>
    5ea2:	f0 e0       	ldi	r31, 0x00	; 0
    5ea4:	ea 5a       	subi	r30, 0xAA	; 170
    5ea6:	f0 4d       	sbci	r31, 0xD0	; 208
    5ea8:	0c 94 68 53 	jmp	0xa6d0	; 0xa6d0 <__tablejump2__>
    5eac:	bb 2f       	mov	r27, r27
    5eae:	d8 2f       	mov	r29, r24
    5eb0:	c1 2f       	mov	r28, r17
    5eb2:	d8 2f       	mov	r29, r24
    5eb4:	e5 2f       	mov	r30, r21
    5eb6:	d8 2f       	mov	r29, r24
    5eb8:	ec 2f       	mov	r30, r28
    5eba:	d8 2f       	mov	r29, r24
    5ebc:	f1 2f       	mov	r31, r17
    5ebe:	d8 2f       	mov	r29, r24
    5ec0:	fa 2f       	mov	r31, r26
    5ec2:	03 30       	cpi	r16, 0x03	; 3
    5ec4:	12 30       	cpi	r17, 0x02	; 2
    5ec6:	d8 2f       	mov	r29, r24
    5ec8:	1a 30       	cpi	r17, 0x0A	; 10
    5eca:	d8 2f       	mov	r29, r24
    5ecc:	22 30       	cpi	r18, 0x02	; 2
    5ece:	d8 2f       	mov	r29, r24
    5ed0:	27 30       	cpi	r18, 0x07	; 7
    5ed2:	d8 2f       	mov	r29, r24
    5ed4:	2b 30       	cpi	r18, 0x0B	; 11
    5ed6:	d8 2f       	mov	r29, r24
    5ed8:	30 30       	cpi	r19, 0x00	; 0
    5eda:	d8 2f       	mov	r29, r24
    5edc:	38 30       	cpi	r19, 0x08	; 8
    5ede:	d8 2f       	mov	r29, r24
    5ee0:	3d 30       	cpi	r19, 0x0D	; 13
    5ee2:	d8 2f       	mov	r29, r24
    5ee4:	44 30       	cpi	r20, 0x04	; 4
    5ee6:	d8 2f       	mov	r29, r24
    5ee8:	49 30       	cpi	r20, 0x09	; 9
    5eea:	d8 2f       	mov	r29, r24
    5eec:	54 30       	cpi	r21, 0x04	; 4
    5eee:	d8 2f       	mov	r29, r24
    5ef0:	5a 30       	cpi	r21, 0x0A	; 10
    5ef2:	d8 2f       	mov	r29, r24
    5ef4:	67 30       	cpi	r22, 0x07	; 7
    5ef6:	d8 2f       	mov	r29, r24
    5ef8:	6d 30       	cpi	r22, 0x0D	; 13
    5efa:	d8 2f       	mov	r29, r24
    5efc:	73 30       	cpi	r23, 0x03	; 3
    5efe:	d8 2f       	mov	r29, r24
    5f00:	7e 30       	cpi	r23, 0x0E	; 14
    5f02:	d8 2f       	mov	r29, r24
    5f04:	84 30       	cpi	r24, 0x04	; 4
    5f06:	d8 2f       	mov	r29, r24
    5f08:	8a 30       	cpi	r24, 0x0A	; 10
    5f0a:	d8 2f       	mov	r29, r24
    5f0c:	97 30       	cpi	r25, 0x07	; 7
    5f0e:	d8 2f       	mov	r29, r24
    5f10:	9d 30       	cpi	r25, 0x0D	; 13
    5f12:	d8 2f       	mov	r29, r24
    5f14:	ae 30       	cpi	r26, 0x0E	; 14
    5f16:	d8 2f       	mov	r29, r24
    5f18:	b5 30       	cpi	r27, 0x05	; 5
    5f1a:	d8 2f       	mov	r29, r24
    5f1c:	bd 30       	cpi	r27, 0x0D	; 13
    5f1e:	d8 2f       	mov	r29, r24
    5f20:	c3 30       	cpi	r28, 0x03	; 3
    5f22:	d8 2f       	mov	r29, r24
    5f24:	ce 30       	cpi	r28, 0x0E	; 14
    5f26:	d8 2f       	mov	r29, r24
    5f28:	d4 30       	cpi	r29, 0x04	; 4
    5f2a:	d8 2f       	mov	r29, r24
    5f2c:	df 30       	cpi	r29, 0x0F	; 15
    5f2e:	d8 2f       	mov	r29, r24
    5f30:	e3 30       	cpi	r30, 0x03	; 3
    5f32:	d8 2f       	mov	r29, r24
    5f34:	e7 30       	cpi	r30, 0x07	; 7
    5f36:	d8 2f       	mov	r29, r24
    5f38:	f2 30       	cpi	r31, 0x02	; 2
    5f3a:	d8 2f       	mov	r29, r24
    5f3c:	f8 30       	cpi	r31, 0x08	; 8
    5f3e:	d8 2f       	mov	r29, r24
    5f40:	05 31       	cpi	r16, 0x15	; 21
    5f42:	d8 2f       	mov	r29, r24
    5f44:	0b 31       	cpi	r16, 0x1B	; 27
    5f46:	d8 2f       	mov	r29, r24
    5f48:	16 31       	cpi	r17, 0x16	; 22
    5f4a:	d8 2f       	mov	r29, r24
    5f4c:	23 31       	cpi	r18, 0x13	; 19
    5f4e:	d8 2f       	mov	r29, r24
    5f50:	29 31       	cpi	r18, 0x19	; 25
    5f52:	d8 2f       	mov	r29, r24
    5f54:	d8 2f       	mov	r29, r24
    5f56:	d8 2f       	mov	r29, r24
    5f58:	d8 2f       	mov	r29, r24
    5f5a:	d8 2f       	mov	r29, r24
    5f5c:	d8 2f       	mov	r29, r24
    5f5e:	d8 2f       	mov	r29, r24
    5f60:	d8 2f       	mov	r29, r24
    5f62:	d8 2f       	mov	r29, r24
    5f64:	d8 2f       	mov	r29, r24
    5f66:	d8 2f       	mov	r29, r24
    5f68:	d8 2f       	mov	r29, r24
    5f6a:	d8 2f       	mov	r29, r24
    5f6c:	d8 2f       	mov	r29, r24
    5f6e:	d8 2f       	mov	r29, r24
    5f70:	d8 2f       	mov	r29, r24
    5f72:	d8 2f       	mov	r29, r24
    5f74:	2d 31       	cpi	r18, 0x1D	; 29
    5f76:	62 e0       	ldi	r22, 0x02	; 2
    5f78:	8b e3       	ldi	r24, 0x3B	; 59
    5f7a:	9b e0       	ldi	r25, 0x0B	; 11
    5f7c:	0e 94 25 0e 	call	0x1c4a	; 0x1c4a <progBlack(unsigned int, unsigned char)>
    5f80:	17 c0       	rjmp	.+46     	; 0x5fb0 <sober()+0x130>
    5f82:	0e 94 e6 09 	call	0x13cc	; 0x13cc <getRandomColor()>
    5f86:	7c 01       	movw	r14, r24
    5f88:	6d e2       	ldi	r22, 0x2D	; 45
    5f8a:	73 e0       	ldi	r23, 0x03	; 3
    5f8c:	ce 01       	movw	r24, r28
    5f8e:	01 96       	adiw	r24, 0x01	; 1
    5f90:	0e 94 30 51 	call	0xa260	; 0xa260 <String::String(char const*)>
    5f94:	04 e0       	ldi	r16, 0x04	; 4
    5f96:	97 01       	movw	r18, r14
    5f98:	4a e5       	ldi	r20, 0x5A	; 90
    5f9a:	50 e0       	ldi	r21, 0x00	; 0
    5f9c:	67 e6       	ldi	r22, 0x67	; 103
    5f9e:	75 e2       	ldi	r23, 0x25	; 37
    5fa0:	ce 01       	movw	r24, r28
    5fa2:	01 96       	adiw	r24, 0x01	; 1
    5fa4:	0e 94 4b 13 	call	0x2696	; 0x2696 <progScrollText(String, unsigned int, int, int, unsigned char)>
    5fa8:	ce 01       	movw	r24, r28
    5faa:	01 96       	adiw	r24, 0x01	; 1
    5fac:	0e 94 c7 50 	call	0xa18e	; 0xa18e <String::~String()>
    5fb0:	27 96       	adiw	r28, 0x07	; 7
    5fb2:	0f b6       	in	r0, 0x3f	; 63
    5fb4:	f8 94       	cli
    5fb6:	de bf       	out	0x3e, r29	; 62
    5fb8:	0f be       	out	0x3f, r0	; 63
    5fba:	cd bf       	out	0x3d, r28	; 61
    5fbc:	df 91       	pop	r29
    5fbe:	cf 91       	pop	r28
    5fc0:	1f 91       	pop	r17
    5fc2:	0f 91       	pop	r16
    5fc4:	ff 90       	pop	r15
    5fc6:	ef 90       	pop	r14
    5fc8:	08 95       	ret
    5fca:	46 e0       	ldi	r20, 0x06	; 6
    5fcc:	67 e0       	ldi	r22, 0x07	; 7
    5fce:	88 ed       	ldi	r24, 0xD8	; 216
    5fd0:	97 e2       	ldi	r25, 0x27	; 39
    5fd2:	0e 94 83 16 	call	0x2d06	; 0x2d06 <progPalette(unsigned int, unsigned char, unsigned char)>
    5fd6:	ec cf       	rjmp	.-40     	; 0x5fb0 <sober()+0x130>
    5fd8:	48 e0       	ldi	r20, 0x08	; 8
    5fda:	63 e0       	ldi	r22, 0x03	; 3
    5fdc:	81 ef       	ldi	r24, 0xF1	; 241
    5fde:	97 e2       	ldi	r25, 0x27	; 39
    5fe0:	f8 cf       	rjmp	.-16     	; 0x5fd2 <sober()+0x152>
    5fe2:	20 e0       	ldi	r18, 0x00	; 0
    5fe4:	45 e4       	ldi	r20, 0x45	; 69
    5fe6:	51 e0       	ldi	r21, 0x01	; 1
    5fe8:	6a e0       	ldi	r22, 0x0A	; 10
    5fea:	88 ed       	ldi	r24, 0xD8	; 216
    5fec:	97 e2       	ldi	r25, 0x27	; 39
    5fee:	0e 94 47 0e 	call	0x1c8e	; 0x1c8e <progCircles(unsigned int, unsigned char, unsigned int, bool)>
    5ff2:	de cf       	rjmp	.-68     	; 0x5fb0 <sober()+0x130>
    5ff4:	20 e0       	ldi	r18, 0x00	; 0
    5ff6:	45 e4       	ldi	r20, 0x45	; 69
    5ff8:	51 e0       	ldi	r21, 0x01	; 1
    5ffa:	6b e0       	ldi	r22, 0x0B	; 11
    5ffc:	87 e6       	ldi	r24, 0x67	; 103
    5ffe:	95 e2       	ldi	r25, 0x25	; 37
    6000:	0e 94 d1 0e 	call	0x1da2	; 0x1da2 <progRandomLines(unsigned int, unsigned char, unsigned int, bool)>
    6004:	d5 cf       	rjmp	.-86     	; 0x5fb0 <sober()+0x130>
    6006:	0e 94 cd 09 	call	0x139a	; 0x139a <getRandomColorValue()>
    600a:	7c 01       	movw	r14, r24
    600c:	0e 94 cd 09 	call	0x139a	; 0x139a <getRandomColorValue()>
    6010:	8c 01       	movw	r16, r24
    6012:	0e 94 cd 09 	call	0x139a	; 0x139a <getRandomColorValue()>
    6016:	9c 01       	movw	r18, r24
    6018:	4b e4       	ldi	r20, 0x4B	; 75
    601a:	50 e0       	ldi	r21, 0x00	; 0
    601c:	6c e0       	ldi	r22, 0x0C	; 12
    601e:	8a e8       	ldi	r24, 0x8A	; 138
    6020:	92 e0       	ldi	r25, 0x02	; 2
    6022:	99 c0       	rjmp	.+306    	; 0x6156 <sober()+0x2d6>
    6024:	4a e8       	ldi	r20, 0x8A	; 138
    6026:	52 e0       	ldi	r21, 0x02	; 2
    6028:	6e e0       	ldi	r22, 0x0E	; 14
    602a:	88 ed       	ldi	r24, 0xD8	; 216
    602c:	97 e2       	ldi	r25, 0x27	; 39
    602e:	0e 94 38 0b 	call	0x1670	; 0x1670 <progFullColors(unsigned int, unsigned char, unsigned int)>
    6032:	be cf       	rjmp	.-132    	; 0x5fb0 <sober()+0x130>
    6034:	40 e1       	ldi	r20, 0x10	; 16
    6036:	6a e8       	ldi	r22, 0x8A	; 138
    6038:	72 e0       	ldi	r23, 0x02	; 2
    603a:	81 ef       	ldi	r24, 0xF1	; 241
    603c:	97 e2       	ldi	r25, 0x27	; 39
    603e:	0e 94 d4 0c 	call	0x19a8	; 0x19a8 <progStern(unsigned int, int, unsigned char)>
    6042:	b6 cf       	rjmp	.-148    	; 0x5fb0 <sober()+0x130>
    6044:	42 e1       	ldi	r20, 0x12	; 18
    6046:	67 e0       	ldi	r22, 0x07	; 7
    6048:	86 ef       	ldi	r24, 0xF6	; 246
    604a:	99 e0       	ldi	r25, 0x09	; 9
    604c:	c2 cf       	rjmp	.-124    	; 0x5fd2 <sober()+0x152>
    604e:	64 e1       	ldi	r22, 0x14	; 20
    6050:	86 ef       	ldi	r24, 0xF6	; 246
    6052:	99 e0       	ldi	r25, 0x09	; 9
    6054:	93 cf       	rjmp	.-218    	; 0x5f7c <sober()+0xfc>
    6056:	46 e1       	ldi	r20, 0x16	; 22
    6058:	63 e0       	ldi	r22, 0x03	; 3
    605a:	8c ee       	ldi	r24, 0xEC	; 236
    605c:	93 e1       	ldi	r25, 0x13	; 19
    605e:	b9 cf       	rjmp	.-142    	; 0x5fd2 <sober()+0x152>
    6060:	4a e8       	ldi	r20, 0x8A	; 138
    6062:	52 e0       	ldi	r21, 0x02	; 2
    6064:	68 e1       	ldi	r22, 0x18	; 24
    6066:	81 ef       	ldi	r24, 0xF1	; 241
    6068:	97 e2       	ldi	r25, 0x27	; 39
    606a:	0e 94 cf 0e 	call	0x1d9e	; 0x1d9e <progCircles(unsigned int, unsigned char, unsigned int)>
    606e:	a0 cf       	rjmp	.-192    	; 0x5fb0 <sober()+0x130>
    6070:	20 e0       	ldi	r18, 0x00	; 0
    6072:	4a e8       	ldi	r20, 0x8A	; 138
    6074:	52 e0       	ldi	r21, 0x02	; 2
    6076:	6a e1       	ldi	r22, 0x1A	; 26
    6078:	b8 cf       	rjmp	.-144    	; 0x5fea <sober()+0x16a>
    607a:	20 e0       	ldi	r18, 0x00	; 0
    607c:	45 e4       	ldi	r20, 0x45	; 69
    607e:	51 e0       	ldi	r21, 0x01	; 1
    6080:	6c e1       	ldi	r22, 0x1C	; 28
    6082:	8b ef       	ldi	r24, 0xFB	; 251
    6084:	9d e1       	ldi	r25, 0x1D	; 29
    6086:	bc cf       	rjmp	.-136    	; 0x6000 <sober()+0x180>
    6088:	4e e1       	ldi	r20, 0x1E	; 30
    608a:	69 e0       	ldi	r22, 0x09	; 9
    608c:	8c e6       	ldi	r24, 0x6C	; 108
    608e:	97 e0       	ldi	r25, 0x07	; 7
    6090:	a0 cf       	rjmp	.-192    	; 0x5fd2 <sober()+0x152>
    6092:	ee 24       	eor	r14, r14
    6094:	ea 94       	dec	r14
    6096:	f1 2c       	mov	r15, r1
    6098:	0f ef       	ldi	r16, 0xFF	; 255
    609a:	10 e0       	ldi	r17, 0x00	; 0
    609c:	2f ef       	ldi	r18, 0xFF	; 255
    609e:	30 e0       	ldi	r19, 0x00	; 0
    60a0:	42 e3       	ldi	r20, 0x32	; 50
    60a2:	50 e0       	ldi	r21, 0x00	; 0
    60a4:	60 e2       	ldi	r22, 0x20	; 32
    60a6:	bb cf       	rjmp	.-138    	; 0x601e <sober()+0x19e>
    60a8:	4a e8       	ldi	r20, 0x8A	; 138
    60aa:	52 e0       	ldi	r21, 0x02	; 2
    60ac:	62 e2       	ldi	r22, 0x22	; 34
    60ae:	8b e7       	ldi	r24, 0x7B	; 123
    60b0:	91 e1       	ldi	r25, 0x11	; 17
    60b2:	bd cf       	rjmp	.-134    	; 0x602e <sober()+0x1ae>
    60b4:	ee 24       	eor	r14, r14
    60b6:	ea 94       	dec	r14
    60b8:	f1 2c       	mov	r15, r1
    60ba:	0f ef       	ldi	r16, 0xFF	; 255
    60bc:	10 e0       	ldi	r17, 0x00	; 0
    60be:	2f ef       	ldi	r18, 0xFF	; 255
    60c0:	30 e0       	ldi	r19, 0x00	; 0
    60c2:	4b e4       	ldi	r20, 0x4B	; 75
    60c4:	50 e0       	ldi	r21, 0x00	; 0
    60c6:	64 e2       	ldi	r22, 0x24	; 36
    60c8:	81 e7       	ldi	r24, 0x71	; 113
    60ca:	92 e0       	ldi	r25, 0x02	; 2
    60cc:	44 c0       	rjmp	.+136    	; 0x6156 <sober()+0x2d6>
    60ce:	4a e8       	ldi	r20, 0x8A	; 138
    60d0:	52 e0       	ldi	r21, 0x02	; 2
    60d2:	66 e2       	ldi	r22, 0x26	; 38
    60d4:	8c ee       	ldi	r24, 0xEC	; 236
    60d6:	93 e1       	ldi	r25, 0x13	; 19
    60d8:	aa cf       	rjmp	.-172    	; 0x602e <sober()+0x1ae>
    60da:	48 e2       	ldi	r20, 0x28	; 40
    60dc:	6a e8       	ldi	r22, 0x8A	; 138
    60de:	72 e0       	ldi	r23, 0x02	; 2
    60e0:	8b e7       	ldi	r24, 0x7B	; 123
    60e2:	91 e1       	ldi	r25, 0x11	; 17
    60e4:	ac cf       	rjmp	.-168    	; 0x603e <sober()+0x1be>
    60e6:	ee 24       	eor	r14, r14
    60e8:	ea 94       	dec	r14
    60ea:	f1 2c       	mov	r15, r1
    60ec:	0f ef       	ldi	r16, 0xFF	; 255
    60ee:	10 e0       	ldi	r17, 0x00	; 0
    60f0:	2f ef       	ldi	r18, 0xFF	; 255
    60f2:	30 e0       	ldi	r19, 0x00	; 0
    60f4:	42 e3       	ldi	r20, 0x32	; 50
    60f6:	50 e0       	ldi	r21, 0x00	; 0
    60f8:	6a e2       	ldi	r22, 0x2A	; 42
    60fa:	91 cf       	rjmp	.-222    	; 0x601e <sober()+0x19e>
    60fc:	4c e2       	ldi	r20, 0x2C	; 44
    60fe:	64 ef       	ldi	r22, 0xF4	; 244
    6100:	71 e0       	ldi	r23, 0x01	; 1
    6102:	81 ef       	ldi	r24, 0xF1	; 241
    6104:	9e e0       	ldi	r25, 0x0E	; 14
    6106:	9b cf       	rjmp	.-202    	; 0x603e <sober()+0x1be>
    6108:	6e e2       	ldi	r22, 0x2E	; 46
    610a:	81 e7       	ldi	r24, 0x71	; 113
    610c:	92 e0       	ldi	r25, 0x02	; 2
    610e:	0e 94 d1 0c 	call	0x19a2	; 0x19a2 <progMatrixScanner(unsigned int, unsigned char)>
    6112:	4e cf       	rjmp	.-356    	; 0x5fb0 <sober()+0x130>
    6114:	0e 94 cd 09 	call	0x139a	; 0x139a <getRandomColorValue()>
    6118:	8c 01       	movw	r16, r24
    611a:	0e 94 cd 09 	call	0x139a	; 0x139a <getRandomColorValue()>
    611e:	ee 24       	eor	r14, r14
    6120:	ea 94       	dec	r14
    6122:	f1 2c       	mov	r15, r1
    6124:	9c 01       	movw	r18, r24
    6126:	42 e3       	ldi	r20, 0x32	; 50
    6128:	50 e0       	ldi	r21, 0x00	; 0
    612a:	60 e3       	ldi	r22, 0x30	; 48
    612c:	78 cf       	rjmp	.-272    	; 0x601e <sober()+0x19e>
    612e:	62 e3       	ldi	r22, 0x32	; 50
    6130:	8d ed       	ldi	r24, 0xDD	; 221
    6132:	92 e2       	ldi	r25, 0x22	; 34
    6134:	0e 94 5e 17 	call	0x2ebc	; 0x2ebc <progMatrixHorizontal(unsigned int, unsigned char)>
    6138:	3b cf       	rjmp	.-394    	; 0x5fb0 <sober()+0x130>
    613a:	0e 94 cd 09 	call	0x139a	; 0x139a <getRandomColorValue()>
    613e:	8c 01       	movw	r16, r24
    6140:	0e 94 cd 09 	call	0x139a	; 0x139a <getRandomColorValue()>
    6144:	ee 24       	eor	r14, r14
    6146:	ea 94       	dec	r14
    6148:	f1 2c       	mov	r15, r1
    614a:	9c 01       	movw	r18, r24
    614c:	44 e6       	ldi	r20, 0x64	; 100
    614e:	50 e0       	ldi	r21, 0x00	; 0
    6150:	64 e3       	ldi	r22, 0x34	; 52
    6152:	84 e1       	ldi	r24, 0x14	; 20
    6154:	95 e0       	ldi	r25, 0x05	; 5
    6156:	0e 94 9d 0b 	call	0x173a	; 0x173a <progStrobo(unsigned int, unsigned char, unsigned int, int, int, int)>
    615a:	2a cf       	rjmp	.-428    	; 0x5fb0 <sober()+0x130>
    615c:	21 e0       	ldi	r18, 0x01	; 1
    615e:	44 ef       	ldi	r20, 0xF4	; 244
    6160:	51 e0       	ldi	r21, 0x01	; 1
    6162:	66 e3       	ldi	r22, 0x36	; 54
    6164:	88 ed       	ldi	r24, 0xD8	; 216
    6166:	97 e2       	ldi	r25, 0x27	; 39
    6168:	4b cf       	rjmp	.-362    	; 0x6000 <sober()+0x180>
    616a:	40 ed       	ldi	r20, 0xD0	; 208
    616c:	57 e0       	ldi	r21, 0x07	; 7
    616e:	68 e3       	ldi	r22, 0x38	; 56
    6170:	89 ec       	ldi	r24, 0xC9	; 201
    6172:	9f e4       	ldi	r25, 0x4F	; 79
    6174:	0e 94 1a 0a 	call	0x1434	; 0x1434 <progBlingBlingColoring(unsigned int, unsigned char, unsigned int)>
    6178:	1b cf       	rjmp	.-458    	; 0x5fb0 <sober()+0x130>
    617a:	42 e3       	ldi	r20, 0x32	; 50
    617c:	50 e0       	ldi	r21, 0x00	; 0
    617e:	6a e3       	ldi	r22, 0x3A	; 58
    6180:	87 e6       	ldi	r24, 0x67	; 103
    6182:	95 e2       	ldi	r25, 0x25	; 37
    6184:	72 cf       	rjmp	.-284    	; 0x606a <sober()+0x1ea>
    6186:	ee 24       	eor	r14, r14
    6188:	ea 94       	dec	r14
    618a:	f1 2c       	mov	r15, r1
    618c:	0f ef       	ldi	r16, 0xFF	; 255
    618e:	10 e0       	ldi	r17, 0x00	; 0
    6190:	2f ef       	ldi	r18, 0xFF	; 255
    6192:	30 e0       	ldi	r19, 0x00	; 0
    6194:	44 e6       	ldi	r20, 0x64	; 100
    6196:	50 e0       	ldi	r21, 0x00	; 0
    6198:	6c e3       	ldi	r22, 0x3C	; 60
    619a:	41 cf       	rjmp	.-382    	; 0x601e <sober()+0x19e>
    619c:	45 e4       	ldi	r20, 0x45	; 69
    619e:	51 e0       	ldi	r21, 0x01	; 1
    61a0:	6e e3       	ldi	r22, 0x3E	; 62
    61a2:	82 e6       	ldi	r24, 0x62	; 98
    61a4:	91 e1       	ldi	r25, 0x11	; 17
    61a6:	43 cf       	rjmp	.-378    	; 0x602e <sober()+0x1ae>
    61a8:	ee 24       	eor	r14, r14
    61aa:	ea 94       	dec	r14
    61ac:	f1 2c       	mov	r15, r1
    61ae:	0f ef       	ldi	r16, 0xFF	; 255
    61b0:	10 e0       	ldi	r17, 0x00	; 0
    61b2:	2f ef       	ldi	r18, 0xFF	; 255
    61b4:	30 e0       	ldi	r19, 0x00	; 0
    61b6:	44 e6       	ldi	r20, 0x64	; 100
    61b8:	50 e0       	ldi	r21, 0x00	; 0
    61ba:	60 e4       	ldi	r22, 0x40	; 64
    61bc:	30 cf       	rjmp	.-416    	; 0x601e <sober()+0x19e>
    61be:	45 e4       	ldi	r20, 0x45	; 69
    61c0:	51 e0       	ldi	r21, 0x01	; 1
    61c2:	62 e4       	ldi	r22, 0x42	; 66
    61c4:	87 cf       	rjmp	.-242    	; 0x60d4 <sober()+0x254>
    61c6:	45 e4       	ldi	r20, 0x45	; 69
    61c8:	51 e0       	ldi	r21, 0x01	; 1
    61ca:	64 e4       	ldi	r22, 0x44	; 68
    61cc:	70 cf       	rjmp	.-288    	; 0x60ae <sober()+0x22e>
    61ce:	ee 24       	eor	r14, r14
    61d0:	ea 94       	dec	r14
    61d2:	f1 2c       	mov	r15, r1
    61d4:	0f ef       	ldi	r16, 0xFF	; 255
    61d6:	10 e0       	ldi	r17, 0x00	; 0
    61d8:	2f ef       	ldi	r18, 0xFF	; 255
    61da:	30 e0       	ldi	r19, 0x00	; 0
    61dc:	42 e3       	ldi	r20, 0x32	; 50
    61de:	50 e0       	ldi	r21, 0x00	; 0
    61e0:	66 e4       	ldi	r22, 0x46	; 70
    61e2:	72 cf       	rjmp	.-284    	; 0x60c8 <sober()+0x248>
    61e4:	45 e4       	ldi	r20, 0x45	; 69
    61e6:	51 e0       	ldi	r21, 0x01	; 1
    61e8:	68 e4       	ldi	r22, 0x48	; 72
    61ea:	8a e0       	ldi	r24, 0x0A	; 10
    61ec:	9f e0       	ldi	r25, 0x0F	; 15
    61ee:	1f cf       	rjmp	.-450    	; 0x602e <sober()+0x1ae>
    61f0:	ee 24       	eor	r14, r14
    61f2:	ea 94       	dec	r14
    61f4:	f1 2c       	mov	r15, r1
    61f6:	0f ef       	ldi	r16, 0xFF	; 255
    61f8:	10 e0       	ldi	r17, 0x00	; 0
    61fa:	2f ef       	ldi	r18, 0xFF	; 255
    61fc:	30 e0       	ldi	r19, 0x00	; 0
    61fe:	42 e3       	ldi	r20, 0x32	; 50
    6200:	50 e0       	ldi	r21, 0x00	; 0
    6202:	6a e4       	ldi	r22, 0x4A	; 74
    6204:	8b ef       	ldi	r24, 0xFB	; 251
    6206:	94 e0       	ldi	r25, 0x04	; 4
    6208:	a6 cf       	rjmp	.-180    	; 0x6156 <sober()+0x2d6>
    620a:	45 e4       	ldi	r20, 0x45	; 69
    620c:	51 e0       	ldi	r21, 0x01	; 1
    620e:	6c e4       	ldi	r22, 0x4C	; 76
    6210:	8d ed       	ldi	r24, 0xDD	; 221
    6212:	92 e2       	ldi	r25, 0x22	; 34
    6214:	0c cf       	rjmp	.-488    	; 0x602e <sober()+0x1ae>
    6216:	ee 24       	eor	r14, r14
    6218:	ea 94       	dec	r14
    621a:	f1 2c       	mov	r15, r1
    621c:	0f ef       	ldi	r16, 0xFF	; 255
    621e:	10 e0       	ldi	r17, 0x00	; 0
    6220:	2f ef       	ldi	r18, 0xFF	; 255
    6222:	30 e0       	ldi	r19, 0x00	; 0
    6224:	42 e3       	ldi	r20, 0x32	; 50
    6226:	50 e0       	ldi	r21, 0x00	; 0
    6228:	6e e4       	ldi	r22, 0x4E	; 78
    622a:	ec cf       	rjmp	.-40     	; 0x6204 <sober()+0x384>
    622c:	8c ed       	ldi	r24, 0xDC	; 220
    622e:	e8 2e       	mov	r14, r24
    6230:	85 e0       	ldi	r24, 0x05	; 5
    6232:	f8 2e       	mov	r15, r24
    6234:	04 e6       	ldi	r16, 0x64	; 100
    6236:	21 e0       	ldi	r18, 0x01	; 1
    6238:	40 e5       	ldi	r20, 0x50	; 80
    623a:	61 e0       	ldi	r22, 0x01	; 1
    623c:	81 ef       	ldi	r24, 0xF1	; 241
    623e:	97 e2       	ldi	r25, 0x27	; 39
    6240:	0e 94 bd 0a 	call	0x157a	; 0x157a <progFastBlingBling(unsigned int, unsigned char, unsigned char, unsigned char, unsigned char, unsigned int)>
    6244:	b5 ce       	rjmp	.-662    	; 0x5fb0 <sober()+0x130>
    6246:	40 ed       	ldi	r20, 0xD0	; 208
    6248:	57 e0       	ldi	r21, 0x07	; 7
    624a:	6a e1       	ldi	r22, 0x1A	; 26
    624c:	80 e6       	ldi	r24, 0x60	; 96
    624e:	9d e6       	ldi	r25, 0x6D	; 109
    6250:	91 cf       	rjmp	.-222    	; 0x6174 <sober()+0x2f4>
    6252:	64 e6       	ldi	r22, 0x64	; 100
    6254:	80 e1       	ldi	r24, 0x10	; 16
    6256:	97 e2       	ldi	r25, 0x27	; 39
    6258:	91 ce       	rjmp	.-734    	; 0x5f7c <sober()+0xfc>
    625a:	60 e0       	ldi	r22, 0x00	; 0
    625c:	8a ed       	ldi	r24, 0xDA	; 218
    625e:	90 e1       	ldi	r25, 0x10	; 16
    6260:	0e 94 91 44 	call	0x8922	; 0x8922 <CFastLED::clear(bool)>
    6264:	80 e0       	ldi	r24, 0x00	; 0
    6266:	0e 94 1a 1c 	call	0x3834	; 0x3834 <switchToSong(unsigned char)>
    626a:	a2 ce       	rjmp	.-700    	; 0x5fb0 <sober()+0x130>

0000626c <prisoner()>:
    626c:	ef 92       	push	r14
    626e:	ff 92       	push	r15
    6270:	0f 93       	push	r16
    6272:	1f 93       	push	r17
    6274:	cf 93       	push	r28
    6276:	df 93       	push	r29
    6278:	00 d0       	rcall	.+0      	; 0x627a <prisoner()+0xe>
    627a:	00 d0       	rcall	.+0      	; 0x627c <prisoner()+0x10>
    627c:	00 d0       	rcall	.+0      	; 0x627e <prisoner()+0x12>
    627e:	1f 92       	push	r1
    6280:	cd b7       	in	r28, 0x3d	; 61
    6282:	de b7       	in	r29, 0x3e	; 62
    6284:	80 91 c5 0a 	lds	r24, 0x0AC5	; 0x800ac5 <prog>
    6288:	86 34       	cpi	r24, 0x46	; 70
    628a:	09 f4       	brne	.+2      	; 0x628e <prisoner()+0x22>
    628c:	f3 c0       	rjmp	.+486    	; 0x6474 <prisoner()+0x208>
    628e:	08 f0       	brcs	.+2      	; 0x6292 <prisoner()+0x26>
    6290:	55 c0       	rjmp	.+170    	; 0x633c <prisoner()+0xd0>
    6292:	8e 31       	cpi	r24, 0x1E	; 30
    6294:	09 f4       	brne	.+2      	; 0x6298 <prisoner()+0x2c>
    6296:	c9 c0       	rjmp	.+402    	; 0x642a <prisoner()+0x1be>
    6298:	38 f5       	brcc	.+78     	; 0x62e8 <prisoner()+0x7c>
    629a:	8a 30       	cpi	r24, 0x0A	; 10
    629c:	09 f4       	brne	.+2      	; 0x62a0 <prisoner()+0x34>
    629e:	a9 c0       	rjmp	.+338    	; 0x63f2 <prisoner()+0x186>
    62a0:	98 f4       	brcc	.+38     	; 0x62c8 <prisoner()+0x5c>
    62a2:	88 23       	and	r24, r24
    62a4:	09 f4       	brne	.+2      	; 0x62a8 <prisoner()+0x3c>
    62a6:	86 c0       	rjmp	.+268    	; 0x63b4 <prisoner()+0x148>
    62a8:	85 30       	cpi	r24, 0x05	; 5
    62aa:	09 f4       	brne	.+2      	; 0x62ae <prisoner()+0x42>
    62ac:	9b c0       	rjmp	.+310    	; 0x63e4 <prisoner()+0x178>
    62ae:	27 96       	adiw	r28, 0x07	; 7
    62b0:	0f b6       	in	r0, 0x3f	; 63
    62b2:	f8 94       	cli
    62b4:	de bf       	out	0x3e, r29	; 62
    62b6:	0f be       	out	0x3f, r0	; 63
    62b8:	cd bf       	out	0x3d, r28	; 61
    62ba:	df 91       	pop	r29
    62bc:	cf 91       	pop	r28
    62be:	1f 91       	pop	r17
    62c0:	0f 91       	pop	r16
    62c2:	ff 90       	pop	r15
    62c4:	ef 90       	pop	r14
    62c6:	08 95       	ret
    62c8:	84 31       	cpi	r24, 0x14	; 20
    62ca:	09 f4       	brne	.+2      	; 0x62ce <prisoner()+0x62>
    62cc:	97 c0       	rjmp	.+302    	; 0x63fc <prisoner()+0x190>
    62ce:	89 31       	cpi	r24, 0x19	; 25
    62d0:	09 f4       	brne	.+2      	; 0x62d4 <prisoner()+0x68>
    62d2:	a5 c0       	rjmp	.+330    	; 0x641e <prisoner()+0x1b2>
    62d4:	8f 30       	cpi	r24, 0x0F	; 15
    62d6:	59 f7       	brne	.-42     	; 0x62ae <prisoner()+0x42>
    62d8:	4a e1       	ldi	r20, 0x1A	; 26
    62da:	54 e0       	ldi	r21, 0x04	; 4
    62dc:	64 e1       	ldi	r22, 0x14	; 20
    62de:	80 e3       	ldi	r24, 0x30	; 48
    62e0:	91 e2       	ldi	r25, 0x21	; 33
    62e2:	0e 94 38 0b 	call	0x1670	; 0x1670 <progFullColors(unsigned int, unsigned char, unsigned int)>
    62e6:	e3 cf       	rjmp	.-58     	; 0x62ae <prisoner()+0x42>
    62e8:	82 33       	cpi	r24, 0x32	; 50
    62ea:	09 f4       	brne	.+2      	; 0x62ee <prisoner()+0x82>
    62ec:	ac c0       	rjmp	.+344    	; 0x6446 <prisoner()+0x1da>
    62ee:	78 f4       	brcc	.+30     	; 0x630e <prisoner()+0xa2>
    62f0:	88 32       	cpi	r24, 0x28	; 40
    62f2:	09 f4       	brne	.+2      	; 0x62f6 <prisoner()+0x8a>
    62f4:	a0 c0       	rjmp	.+320    	; 0x6436 <prisoner()+0x1ca>
    62f6:	8d 32       	cpi	r24, 0x2D	; 45
    62f8:	09 f4       	brne	.+2      	; 0x62fc <prisoner()+0x90>
    62fa:	a2 c0       	rjmp	.+324    	; 0x6440 <prisoner()+0x1d4>
    62fc:	83 32       	cpi	r24, 0x23	; 35
    62fe:	b9 f6       	brne	.-82     	; 0x62ae <prisoner()+0x42>
    6300:	48 e2       	ldi	r20, 0x28	; 40
    6302:	65 e0       	ldi	r22, 0x05	; 5
    6304:	88 e6       	ldi	r24, 0x68	; 104
    6306:	92 e4       	ldi	r25, 0x42	; 66
    6308:	0e 94 2c 0b 	call	0x1658	; 0x1658 <progFastBlingBling(unsigned int, unsigned char, unsigned char)>
    630c:	d0 cf       	rjmp	.-96     	; 0x62ae <prisoner()+0x42>
    630e:	8c 33       	cpi	r24, 0x3C	; 60
    6310:	09 f4       	brne	.+2      	; 0x6314 <prisoner()+0xa8>
    6312:	9d c0       	rjmp	.+314    	; 0x644e <prisoner()+0x1e2>
    6314:	81 34       	cpi	r24, 0x41	; 65
    6316:	09 f4       	brne	.+2      	; 0x631a <prisoner()+0xae>
    6318:	aa c0       	rjmp	.+340    	; 0x646e <prisoner()+0x202>
    631a:	87 33       	cpi	r24, 0x37	; 55
    631c:	41 f6       	brne	.-112    	; 0x62ae <prisoner()+0x42>
    631e:	0e 94 cd 09 	call	0x139a	; 0x139a <getRandomColorValue()>
    6322:	7c 01       	movw	r14, r24
    6324:	0e 94 cd 09 	call	0x139a	; 0x139a <getRandomColorValue()>
    6328:	8c 01       	movw	r16, r24
    632a:	0e 94 cd 09 	call	0x139a	; 0x139a <getRandomColorValue()>
    632e:	9c 01       	movw	r18, r24
    6330:	42 e3       	ldi	r20, 0x32	; 50
    6332:	50 e0       	ldi	r21, 0x00	; 0
    6334:	6c e3       	ldi	r22, 0x3C	; 60
    6336:	80 e3       	ldi	r24, 0x30	; 48
    6338:	91 e2       	ldi	r25, 0x21	; 33
    633a:	6e c0       	rjmp	.+220    	; 0x6418 <prisoner()+0x1ac>
    633c:	89 36       	cpi	r24, 0x69	; 105
    633e:	09 f4       	brne	.+2      	; 0x6342 <prisoner()+0xd6>
    6340:	c8 c0       	rjmp	.+400    	; 0x64d2 <prisoner()+0x266>
    6342:	e8 f4       	brcc	.+58     	; 0x637e <prisoner()+0x112>
    6344:	85 35       	cpi	r24, 0x55	; 85
    6346:	09 f4       	brne	.+2      	; 0x634a <prisoner()+0xde>
    6348:	9d c0       	rjmp	.+314    	; 0x6484 <prisoner()+0x218>
    634a:	60 f4       	brcc	.+24     	; 0x6364 <prisoner()+0xf8>
    634c:	8b 34       	cpi	r24, 0x4B	; 75
    634e:	09 f4       	brne	.+2      	; 0x6352 <prisoner()+0xe6>
    6350:	94 c0       	rjmp	.+296    	; 0x647a <prisoner()+0x20e>
    6352:	4a e1       	ldi	r20, 0x1A	; 26
    6354:	54 e0       	ldi	r21, 0x04	; 4
    6356:	65 e5       	ldi	r22, 0x55	; 85
    6358:	80 35       	cpi	r24, 0x50	; 80
    635a:	09 f0       	breq	.+2      	; 0x635e <prisoner()+0xf2>
    635c:	a8 cf       	rjmp	.-176    	; 0x62ae <prisoner()+0x42>
    635e:	84 e3       	ldi	r24, 0x34	; 52
    6360:	91 e2       	ldi	r25, 0x21	; 33
    6362:	bf cf       	rjmp	.-130    	; 0x62e2 <prisoner()+0x76>
    6364:	8f 35       	cpi	r24, 0x5F	; 95
    6366:	09 f4       	brne	.+2      	; 0x636a <prisoner()+0xfe>
    6368:	9c c0       	rjmp	.+312    	; 0x64a2 <prisoner()+0x236>
    636a:	84 36       	cpi	r24, 0x64	; 100
    636c:	09 f4       	brne	.+2      	; 0x6370 <prisoner()+0x104>
    636e:	a6 c0       	rjmp	.+332    	; 0x64bc <prisoner()+0x250>
    6370:	8a 35       	cpi	r24, 0x5A	; 90
    6372:	09 f0       	breq	.+2      	; 0x6376 <prisoner()+0x10a>
    6374:	9c cf       	rjmp	.-200    	; 0x62ae <prisoner()+0x42>
    6376:	4a e1       	ldi	r20, 0x1A	; 26
    6378:	54 e0       	ldi	r21, 0x04	; 4
    637a:	6f e5       	ldi	r22, 0x5F	; 95
    637c:	f0 cf       	rjmp	.-32     	; 0x635e <prisoner()+0xf2>
    637e:	8d 37       	cpi	r24, 0x7D	; 125
    6380:	09 f4       	brne	.+2      	; 0x6384 <prisoner()+0x118>
    6382:	b1 c0       	rjmp	.+354    	; 0x64e6 <prisoner()+0x27a>
    6384:	58 f4       	brcc	.+22     	; 0x639c <prisoner()+0x130>
    6386:	83 37       	cpi	r24, 0x73	; 115
    6388:	09 f4       	brne	.+2      	; 0x638c <prisoner()+0x120>
    638a:	a8 c0       	rjmp	.+336    	; 0x64dc <prisoner()+0x270>
    638c:	88 37       	cpi	r24, 0x78	; 120
    638e:	09 f4       	brne	.+2      	; 0x6392 <prisoner()+0x126>
    6390:	a8 c0       	rjmp	.+336    	; 0x64e2 <prisoner()+0x276>
    6392:	8e 36       	cpi	r24, 0x6E	; 110
    6394:	09 f0       	breq	.+2      	; 0x6398 <prisoner()+0x12c>
    6396:	8b cf       	rjmp	.-234    	; 0x62ae <prisoner()+0x42>
    6398:	43 e7       	ldi	r20, 0x73	; 115
    639a:	6a c0       	rjmp	.+212    	; 0x6470 <prisoner()+0x204>
    639c:	87 38       	cpi	r24, 0x87	; 135
    639e:	09 f4       	brne	.+2      	; 0x63a2 <prisoner()+0x136>
    63a0:	a5 c0       	rjmp	.+330    	; 0x64ec <prisoner()+0x280>
    63a2:	88 3c       	cpi	r24, 0xC8	; 200
    63a4:	09 f4       	brne	.+2      	; 0x63a8 <prisoner()+0x13c>
    63a6:	a6 c0       	rjmp	.+332    	; 0x64f4 <prisoner()+0x288>
    63a8:	82 38       	cpi	r24, 0x82	; 130
    63aa:	09 f0       	breq	.+2      	; 0x63ae <prisoner()+0x142>
    63ac:	80 cf       	rjmp	.-256    	; 0x62ae <prisoner()+0x42>
    63ae:	47 e8       	ldi	r20, 0x87	; 135
    63b0:	66 e0       	ldi	r22, 0x06	; 6
    63b2:	91 c0       	rjmp	.+290    	; 0x64d6 <prisoner()+0x26a>
    63b4:	0e 94 e6 09 	call	0x13cc	; 0x13cc <getRandomColor()>
    63b8:	7c 01       	movw	r14, r24
    63ba:	6b e3       	ldi	r22, 0x3B	; 59
    63bc:	73 e0       	ldi	r23, 0x03	; 3
    63be:	ce 01       	movw	r24, r28
    63c0:	01 96       	adiw	r24, 0x01	; 1
    63c2:	0e 94 30 51 	call	0xa260	; 0xa260 <String::String(char const*)>
    63c6:	05 e0       	ldi	r16, 0x05	; 5
    63c8:	97 01       	movw	r18, r14
    63ca:	4a e5       	ldi	r20, 0x5A	; 90
    63cc:	50 e0       	ldi	r21, 0x00	; 0
    63ce:	60 e0       	ldi	r22, 0x00	; 0
    63d0:	74 e5       	ldi	r23, 0x54	; 84
    63d2:	ce 01       	movw	r24, r28
    63d4:	01 96       	adiw	r24, 0x01	; 1
    63d6:	0e 94 4b 13 	call	0x2696	; 0x2696 <progScrollText(String, unsigned int, int, int, unsigned char)>
    63da:	ce 01       	movw	r24, r28
    63dc:	01 96       	adiw	r24, 0x01	; 1
    63de:	0e 94 c7 50 	call	0xa18e	; 0xa18e <String::~String()>
    63e2:	65 cf       	rjmp	.-310    	; 0x62ae <prisoner()+0x42>
    63e4:	4a e0       	ldi	r20, 0x0A	; 10
    63e6:	6b e0       	ldi	r22, 0x0B	; 11
    63e8:	81 ea       	ldi	r24, 0xA1	; 161
    63ea:	9d e2       	ldi	r25, 0x2D	; 45
    63ec:	0e 94 83 16 	call	0x2d06	; 0x2d06 <progPalette(unsigned int, unsigned char, unsigned char)>
    63f0:	5e cf       	rjmp	.-324    	; 0x62ae <prisoner()+0x42>
    63f2:	4f e0       	ldi	r20, 0x0F	; 15
    63f4:	63 e0       	ldi	r22, 0x03	; 3
    63f6:	80 e3       	ldi	r24, 0x30	; 48
    63f8:	91 e2       	ldi	r25, 0x21	; 33
    63fa:	f8 cf       	rjmp	.-16     	; 0x63ec <prisoner()+0x180>
    63fc:	0e 94 cd 09 	call	0x139a	; 0x139a <getRandomColorValue()>
    6400:	7c 01       	movw	r14, r24
    6402:	0e 94 cd 09 	call	0x139a	; 0x139a <getRandomColorValue()>
    6406:	8c 01       	movw	r16, r24
    6408:	0e 94 cd 09 	call	0x139a	; 0x139a <getRandomColorValue()>
    640c:	9c 01       	movw	r18, r24
    640e:	42 e3       	ldi	r20, 0x32	; 50
    6410:	50 e0       	ldi	r21, 0x00	; 0
    6412:	69 e1       	ldi	r22, 0x19	; 25
    6414:	8e e0       	ldi	r24, 0x0E	; 14
    6416:	9f e1       	ldi	r25, 0x1F	; 31
    6418:	0e 94 9d 0b 	call	0x173a	; 0x173a <progStrobo(unsigned int, unsigned char, unsigned int, int, int, int)>
    641c:	48 cf       	rjmp	.-368    	; 0x62ae <prisoner()+0x42>
    641e:	6e e1       	ldi	r22, 0x1E	; 30
    6420:	8d e0       	ldi	r24, 0x0D	; 13
    6422:	92 e0       	ldi	r25, 0x02	; 2
    6424:	0e 94 25 0e 	call	0x1c4a	; 0x1c4a <progBlack(unsigned int, unsigned char)>
    6428:	42 cf       	rjmp	.-380    	; 0x62ae <prisoner()+0x42>
    642a:	63 e2       	ldi	r22, 0x23	; 35
    642c:	8d e4       	ldi	r24, 0x4D	; 77
    642e:	98 e0       	ldi	r25, 0x08	; 8
    6430:	0e 94 7d 0f 	call	0x1efa	; 0x1efa <progMovingLines(unsigned int, unsigned char)>
    6434:	3c cf       	rjmp	.-392    	; 0x62ae <prisoner()+0x42>
    6436:	4d e2       	ldi	r20, 0x2D	; 45
    6438:	62 e0       	ldi	r22, 0x02	; 2
    643a:	84 e3       	ldi	r24, 0x34	; 52
    643c:	91 e2       	ldi	r25, 0x21	; 33
    643e:	d6 cf       	rjmp	.-84     	; 0x63ec <prisoner()+0x180>
    6440:	42 e3       	ldi	r20, 0x32	; 50
    6442:	63 e0       	ldi	r22, 0x03	; 3
    6444:	fa cf       	rjmp	.-12     	; 0x643a <prisoner()+0x1ce>
    6446:	4a e1       	ldi	r20, 0x1A	; 26
    6448:	54 e0       	ldi	r21, 0x04	; 4
    644a:	67 e3       	ldi	r22, 0x37	; 55
    644c:	48 cf       	rjmp	.-368    	; 0x62de <prisoner()+0x72>
    644e:	0e 94 e6 09 	call	0x13cc	; 0x13cc <getRandomColor()>
    6452:	7c 01       	movw	r14, r24
    6454:	62 e2       	ldi	r22, 0x22	; 34
    6456:	73 e0       	ldi	r23, 0x03	; 3
    6458:	ce 01       	movw	r24, r28
    645a:	01 96       	adiw	r24, 0x01	; 1
    645c:	0e 94 30 51 	call	0xa260	; 0xa260 <String::String(char const*)>
    6460:	01 e4       	ldi	r16, 0x41	; 65
    6462:	97 01       	movw	r18, r14
    6464:	49 e1       	ldi	r20, 0x19	; 25
    6466:	50 e0       	ldi	r21, 0x00	; 0
    6468:	6d e4       	ldi	r22, 0x4D	; 77
    646a:	78 e0       	ldi	r23, 0x08	; 8
    646c:	b2 cf       	rjmp	.-156    	; 0x63d2 <prisoner()+0x166>
    646e:	46 e4       	ldi	r20, 0x46	; 70
    6470:	62 e0       	ldi	r22, 0x02	; 2
    6472:	31 c0       	rjmp	.+98     	; 0x64d6 <prisoner()+0x26a>
    6474:	4b e4       	ldi	r20, 0x4B	; 75
    6476:	64 e0       	ldi	r22, 0x04	; 4
    6478:	2e c0       	rjmp	.+92     	; 0x64d6 <prisoner()+0x26a>
    647a:	40 e5       	ldi	r20, 0x50	; 80
    647c:	69 e0       	ldi	r22, 0x09	; 9
    647e:	8f e5       	ldi	r24, 0x5F	; 95
    6480:	92 e4       	ldi	r25, 0x42	; 66
    6482:	b4 cf       	rjmp	.-152    	; 0x63ec <prisoner()+0x180>
    6484:	0e 94 cd 09 	call	0x139a	; 0x139a <getRandomColorValue()>
    6488:	7c 01       	movw	r14, r24
    648a:	0e 94 cd 09 	call	0x139a	; 0x139a <getRandomColorValue()>
    648e:	8c 01       	movw	r16, r24
    6490:	0e 94 cd 09 	call	0x139a	; 0x139a <getRandomColorValue()>
    6494:	9c 01       	movw	r18, r24
    6496:	42 e3       	ldi	r20, 0x32	; 50
    6498:	50 e0       	ldi	r21, 0x00	; 0
    649a:	6a e5       	ldi	r22, 0x5A	; 90
    649c:	84 e3       	ldi	r24, 0x34	; 52
    649e:	91 e2       	ldi	r25, 0x21	; 33
    64a0:	bb cf       	rjmp	.-138    	; 0x6418 <prisoner()+0x1ac>
    64a2:	0e 94 cd 09 	call	0x139a	; 0x139a <getRandomColorValue()>
    64a6:	7c 01       	movw	r14, r24
    64a8:	0e 94 cd 09 	call	0x139a	; 0x139a <getRandomColorValue()>
    64ac:	8c 01       	movw	r16, r24
    64ae:	0e 94 cd 09 	call	0x139a	; 0x139a <getRandomColorValue()>
    64b2:	9c 01       	movw	r18, r24
    64b4:	42 e3       	ldi	r20, 0x32	; 50
    64b6:	50 e0       	ldi	r21, 0x00	; 0
    64b8:	64 e6       	ldi	r22, 0x64	; 100
    64ba:	f0 cf       	rjmp	.-32     	; 0x649c <prisoner()+0x230>
    64bc:	0e 94 e6 09 	call	0x13cc	; 0x13cc <getRandomColor()>
    64c0:	7c 01       	movw	r14, r24
    64c2:	62 e2       	ldi	r22, 0x22	; 34
    64c4:	73 e0       	ldi	r23, 0x03	; 3
    64c6:	ce 01       	movw	r24, r28
    64c8:	01 96       	adiw	r24, 0x01	; 1
    64ca:	0e 94 30 51 	call	0xa260	; 0xa260 <String::String(char const*)>
    64ce:	09 e6       	ldi	r16, 0x69	; 105
    64d0:	c8 cf       	rjmp	.-112    	; 0x6462 <prisoner()+0x1f6>
    64d2:	4e e6       	ldi	r20, 0x6E	; 110
    64d4:	61 e0       	ldi	r22, 0x01	; 1
    64d6:	8a e2       	ldi	r24, 0x2A	; 42
    64d8:	91 e2       	ldi	r25, 0x21	; 33
    64da:	16 cf       	rjmp	.-468    	; 0x6308 <prisoner()+0x9c>
    64dc:	48 e7       	ldi	r20, 0x78	; 120
    64de:	63 e0       	ldi	r22, 0x03	; 3
    64e0:	fa cf       	rjmp	.-12     	; 0x64d6 <prisoner()+0x26a>
    64e2:	4d e7       	ldi	r20, 0x7D	; 125
    64e4:	c8 cf       	rjmp	.-112    	; 0x6476 <prisoner()+0x20a>
    64e6:	42 e8       	ldi	r20, 0x82	; 130
    64e8:	65 e0       	ldi	r22, 0x05	; 5
    64ea:	f5 cf       	rjmp	.-22     	; 0x64d6 <prisoner()+0x26a>
    64ec:	68 ec       	ldi	r22, 0xC8	; 200
    64ee:	80 e5       	ldi	r24, 0x50	; 80
    64f0:	93 ec       	ldi	r25, 0xC3	; 195
    64f2:	98 cf       	rjmp	.-208    	; 0x6424 <prisoner()+0x1b8>
    64f4:	60 e0       	ldi	r22, 0x00	; 0
    64f6:	8a ed       	ldi	r24, 0xDA	; 218
    64f8:	90 e1       	ldi	r25, 0x10	; 16
    64fa:	0e 94 91 44 	call	0x8922	; 0x8922 <CFastLED::clear(bool)>
    64fe:	80 e0       	ldi	r24, 0x00	; 0
    6500:	0e 94 1a 1c 	call	0x3834	; 0x3834 <switchToSong(unsigned char)>
    6504:	d4 ce       	rjmp	.-600    	; 0x62ae <prisoner()+0x42>

00006506 <ClocklessController<(unsigned char)12, 4, 10, 6, (EOrder)66, 0, false, 10>::showRGBInternal(PixelController<(EOrder)66, 1, 4294967295ul>&)>:
    6506:	9f 92       	push	r9
    6508:	af 92       	push	r10
    650a:	bf 92       	push	r11
    650c:	cf 92       	push	r12
    650e:	df 92       	push	r13
    6510:	ef 92       	push	r14
    6512:	ff 92       	push	r15
    6514:	0f 93       	push	r16
    6516:	1f 93       	push	r17
    6518:	cf 93       	push	r28
    651a:	df 93       	push	r29
    651c:	fc 01       	movw	r30, r24
    651e:	c0 80       	ld	r12, Z
    6520:	d1 80       	ldd	r13, Z+1	; 0x01
    6522:	28 b1       	in	r18, 0x08	; 8
    6524:	b2 2e       	mov	r11, r18
    6526:	68 94       	set
    6528:	b2 f8       	bld	r11, 2
    652a:	98 b1       	in	r25, 0x08	; 8
    652c:	9b 7f       	andi	r25, 0xFB	; 251
    652e:	98 b9       	out	0x08, r25	; 8
    6530:	62 85       	ldd	r22, Z+10	; 0x0a
    6532:	87 81       	ldd	r24, Z+7	; 0x07
    6534:	06 2f       	mov	r16, r22
    6536:	08 1b       	sub	r16, r24
    6538:	80 2f       	mov	r24, r16
    653a:	07 83       	std	Z+7, r16	; 0x07
    653c:	77 85       	ldd	r23, Z+15	; 0x0f
    653e:	a2 81       	ldd	r26, Z+2	; 0x02
    6540:	b3 81       	ldd	r27, Z+3	; 0x03
    6542:	35 85       	ldd	r19, Z+13	; 0x0d
    6544:	44 85       	ldd	r20, Z+12	; 0x0c
    6546:	56 85       	ldd	r21, Z+14	; 0x0e
    6548:	99 24       	eor	r9, r9
    654a:	93 94       	inc	r9
    654c:	93 0e       	add	r9, r19
    654e:	4f 5f       	subi	r20, 0xFF	; 255
    6550:	5f 5f       	subi	r21, 0xFF	; 255
    6552:	f6 80       	ldd	r15, Z+6	; 0x06
    6554:	e0 84       	ldd	r14, Z+8	; 0x08
    6556:	c1 85       	ldd	r28, Z+9	; 0x09
    6558:	d3 85       	ldd	r29, Z+11	; 0x0b
    655a:	f6 01       	movw	r30, r12
    655c:	11 81       	ldd	r17, Z+1	; 0x01
    655e:	a1 2c       	mov	r10, r1
    6560:	0a 2d       	mov	r16, r10
    6562:	2a 2d       	mov	r18, r10
    6564:	3a 2d       	mov	r19, r10
    6566:	31 81       	ldd	r19, Z+1	; 0x01
    6568:	11 27       	eor	r17, r17
    656a:	88 94       	clc
    656c:	31 11       	cpse	r19, r1
    656e:	38 0f       	add	r19, r24
    6570:	08 f4       	brcc	.+2      	; 0x6574 <L_19205>
    6572:	3f ef       	ldi	r19, 0xFF	; 255

00006574 <L_19205>:
    6574:	81 95       	neg	r24
    6576:	88 94       	clc
    6578:	90 fc       	sbrc	r9, 0
    657a:	13 0f       	add	r17, r19
    657c:	17 95       	ror	r17
    657e:	88 94       	clc
    6580:	91 fc       	sbrc	r9, 1
    6582:	13 0f       	add	r17, r19
    6584:	17 95       	ror	r17
    6586:	88 94       	clc
    6588:	92 fc       	sbrc	r9, 2
    658a:	13 0f       	add	r17, r19
    658c:	17 95       	ror	r17
    658e:	88 94       	clc
    6590:	93 fc       	sbrc	r9, 3
    6592:	13 0f       	add	r17, r19
    6594:	17 95       	ror	r17
    6596:	88 94       	clc
    6598:	94 fc       	sbrc	r9, 4
    659a:	13 0f       	add	r17, r19
    659c:	17 95       	ror	r17
    659e:	88 94       	clc
    65a0:	95 fc       	sbrc	r9, 5
    65a2:	13 0f       	add	r17, r19
    65a4:	17 95       	ror	r17
    65a6:	88 94       	clc
    65a8:	96 fc       	sbrc	r9, 6
    65aa:	13 0f       	add	r17, r19
    65ac:	17 95       	ror	r17
    65ae:	88 94       	clc
    65b0:	97 fc       	sbrc	r9, 7
    65b2:	13 0f       	add	r17, r19
    65b4:	17 95       	ror	r17
    65b6:	88 94       	clc
    65b8:	03 2f       	mov	r16, r19
    65ba:	91 10       	cpse	r9, r1
    65bc:	01 2f       	mov	r16, r17
    65be:	86 0f       	add	r24, r22
    65c0:	10 2f       	mov	r17, r16
    65c2:	00 2c       	mov	r0, r0
    65c4:	b8 b8       	out	0x08, r11	; 8
    65c6:	00 c0       	rjmp	.+0      	; 0x65c8 <L_19205+0x54>
    65c8:	17 ff       	sbrs	r17, 7
    65ca:	98 b9       	out	0x08, r25	; 8
    65cc:	30 81       	ld	r19, Z
    65ce:	00 27       	eor	r16, r16
    65d0:	88 94       	clc
    65d2:	00 c0       	rjmp	.+0      	; 0x65d4 <L_19205+0x60>
    65d4:	00 c0       	rjmp	.+0      	; 0x65d6 <L_19205+0x62>
    65d6:	00 2c       	mov	r0, r0
    65d8:	98 b9       	out	0x08, r25	; 8
    65da:	31 11       	cpse	r19, r1
    65dc:	3f 0d       	add	r19, r15
    65de:	00 c0       	rjmp	.+0      	; 0x65e0 <L_19205+0x6c>
    65e0:	00 2c       	mov	r0, r0
    65e2:	b8 b8       	out	0x08, r11	; 8
    65e4:	00 c0       	rjmp	.+0      	; 0x65e6 <L_19205+0x72>
    65e6:	16 ff       	sbrs	r17, 6
    65e8:	98 b9       	out	0x08, r25	; 8
    65ea:	08 f4       	brcc	.+2      	; 0x65ee <L_19738>
    65ec:	3f ef       	ldi	r19, 0xFF	; 255

000065ee <L_19738>:
    65ee:	f1 94       	neg	r15
    65f0:	88 94       	clc
    65f2:	00 c0       	rjmp	.+0      	; 0x65f4 <L_19738+0x6>
    65f4:	00 c0       	rjmp	.+0      	; 0x65f6 <L_19738+0x8>
    65f6:	00 2c       	mov	r0, r0
    65f8:	98 b9       	out	0x08, r25	; 8
    65fa:	40 fd       	sbrc	r20, 0
    65fc:	03 0f       	add	r16, r19
    65fe:	00 c0       	rjmp	.+0      	; 0x6600 <L_19738+0x12>
    6600:	00 2c       	mov	r0, r0
    6602:	b8 b8       	out	0x08, r11	; 8
    6604:	00 c0       	rjmp	.+0      	; 0x6606 <L_19738+0x18>
    6606:	15 ff       	sbrs	r17, 5
    6608:	98 b9       	out	0x08, r25	; 8
    660a:	07 95       	ror	r16
    660c:	88 94       	clc
    660e:	41 fd       	sbrc	r20, 1
    6610:	03 0f       	add	r16, r19
    6612:	00 c0       	rjmp	.+0      	; 0x6614 <L_19738+0x26>
    6614:	00 c0       	rjmp	.+0      	; 0x6616 <L_19738+0x28>
    6616:	00 2c       	mov	r0, r0
    6618:	98 b9       	out	0x08, r25	; 8
    661a:	07 95       	ror	r16
    661c:	88 94       	clc
    661e:	00 c0       	rjmp	.+0      	; 0x6620 <L_19738+0x32>
    6620:	00 2c       	mov	r0, r0
    6622:	b8 b8       	out	0x08, r11	; 8
    6624:	00 c0       	rjmp	.+0      	; 0x6626 <L_19738+0x38>
    6626:	14 ff       	sbrs	r17, 4
    6628:	98 b9       	out	0x08, r25	; 8
    662a:	42 fd       	sbrc	r20, 2
    662c:	03 0f       	add	r16, r19
    662e:	07 95       	ror	r16
    6630:	88 94       	clc
    6632:	00 c0       	rjmp	.+0      	; 0x6634 <L_19738+0x46>
    6634:	00 c0       	rjmp	.+0      	; 0x6636 <L_19738+0x48>
    6636:	00 2c       	mov	r0, r0
    6638:	98 b9       	out	0x08, r25	; 8
    663a:	43 fd       	sbrc	r20, 3
    663c:	03 0f       	add	r16, r19
    663e:	00 c0       	rjmp	.+0      	; 0x6640 <L_19738+0x52>
    6640:	00 2c       	mov	r0, r0
    6642:	b8 b8       	out	0x08, r11	; 8
    6644:	00 c0       	rjmp	.+0      	; 0x6646 <L_19738+0x58>
    6646:	13 ff       	sbrs	r17, 3
    6648:	98 b9       	out	0x08, r25	; 8
    664a:	07 95       	ror	r16
    664c:	88 94       	clc
    664e:	44 fd       	sbrc	r20, 4
    6650:	03 0f       	add	r16, r19
    6652:	00 c0       	rjmp	.+0      	; 0x6654 <L_19738+0x66>
    6654:	00 c0       	rjmp	.+0      	; 0x6656 <L_19738+0x68>
    6656:	00 2c       	mov	r0, r0
    6658:	98 b9       	out	0x08, r25	; 8
    665a:	07 95       	ror	r16
    665c:	88 94       	clc
    665e:	00 c0       	rjmp	.+0      	; 0x6660 <L_19738+0x72>
    6660:	00 2c       	mov	r0, r0
    6662:	b8 b8       	out	0x08, r11	; 8
    6664:	00 c0       	rjmp	.+0      	; 0x6666 <L_19738+0x78>
    6666:	12 ff       	sbrs	r17, 2
    6668:	98 b9       	out	0x08, r25	; 8
    666a:	45 fd       	sbrc	r20, 5
    666c:	03 0f       	add	r16, r19
    666e:	07 95       	ror	r16
    6670:	88 94       	clc
    6672:	00 c0       	rjmp	.+0      	; 0x6674 <L_19738+0x86>
    6674:	00 c0       	rjmp	.+0      	; 0x6676 <L_19738+0x88>
    6676:	00 2c       	mov	r0, r0
    6678:	98 b9       	out	0x08, r25	; 8
    667a:	46 fd       	sbrc	r20, 6
    667c:	03 0f       	add	r16, r19
    667e:	00 c0       	rjmp	.+0      	; 0x6680 <L_19738+0x92>
    6680:	00 2c       	mov	r0, r0
    6682:	b8 b8       	out	0x08, r11	; 8
    6684:	00 c0       	rjmp	.+0      	; 0x6686 <L_19738+0x98>
    6686:	11 ff       	sbrs	r17, 1
    6688:	98 b9       	out	0x08, r25	; 8
    668a:	07 95       	ror	r16
    668c:	88 94       	clc
    668e:	47 fd       	sbrc	r20, 7
    6690:	03 0f       	add	r16, r19
    6692:	00 c0       	rjmp	.+0      	; 0x6694 <L_19738+0xa6>
    6694:	00 c0       	rjmp	.+0      	; 0x6696 <L_19738+0xa8>
    6696:	00 2c       	mov	r0, r0
    6698:	98 b9       	out	0x08, r25	; 8
    669a:	07 95       	ror	r16
    669c:	88 94       	clc
    669e:	00 c0       	rjmp	.+0      	; 0x66a0 <L_19738+0xb2>
    66a0:	00 2c       	mov	r0, r0
    66a2:	b8 b8       	out	0x08, r11	; 8
    66a4:	00 c0       	rjmp	.+0      	; 0x66a6 <L_19738+0xb8>
    66a6:	10 ff       	sbrs	r17, 0
    66a8:	98 b9       	out	0x08, r25	; 8
    66aa:	13 2f       	mov	r17, r19
    66ac:	41 11       	cpse	r20, r1
    66ae:	10 2f       	mov	r17, r16
    66b0:	fc 0e       	add	r15, r28
    66b2:	00 c0       	rjmp	.+0      	; 0x66b4 <L_19738+0xc6>
    66b4:	00 c0       	rjmp	.+0      	; 0x66b6 <L_19738+0xc8>
    66b6:	00 2c       	mov	r0, r0
    66b8:	98 b9       	out	0x08, r25	; 8
    66ba:	00 c0       	rjmp	.+0      	; 0x66bc <L_19738+0xce>
    66bc:	00 c0       	rjmp	.+0      	; 0x66be <L_19738+0xd0>
    66be:	00 2c       	mov	r0, r0
    66c0:	b8 b8       	out	0x08, r11	; 8
    66c2:	00 c0       	rjmp	.+0      	; 0x66c4 <L_19738+0xd6>
    66c4:	17 ff       	sbrs	r17, 7
    66c6:	98 b9       	out	0x08, r25	; 8
    66c8:	32 81       	ldd	r19, Z+2	; 0x02
    66ca:	00 27       	eor	r16, r16
    66cc:	88 94       	clc
    66ce:	00 c0       	rjmp	.+0      	; 0x66d0 <L_19738+0xe2>
    66d0:	00 c0       	rjmp	.+0      	; 0x66d2 <L_19738+0xe4>
    66d2:	00 2c       	mov	r0, r0
    66d4:	98 b9       	out	0x08, r25	; 8
    66d6:	31 11       	cpse	r19, r1
    66d8:	3e 0d       	add	r19, r14
    66da:	00 c0       	rjmp	.+0      	; 0x66dc <L_19738+0xee>
    66dc:	00 2c       	mov	r0, r0
    66de:	b8 b8       	out	0x08, r11	; 8
    66e0:	00 c0       	rjmp	.+0      	; 0x66e2 <L_19738+0xf4>
    66e2:	16 ff       	sbrs	r17, 6
    66e4:	98 b9       	out	0x08, r25	; 8
    66e6:	08 f4       	brcc	.+2      	; 0x66ea <L_20956>
    66e8:	3f ef       	ldi	r19, 0xFF	; 255

000066ea <L_20956>:
    66ea:	e7 0f       	add	r30, r23
    66ec:	f1 1d       	adc	r31, r1
    66ee:	00 c0       	rjmp	.+0      	; 0x66f0 <L_20956+0x6>
    66f0:	00 c0       	rjmp	.+0      	; 0x66f2 <L_20956+0x8>
    66f2:	00 2c       	mov	r0, r0
    66f4:	98 b9       	out	0x08, r25	; 8
    66f6:	50 fd       	sbrc	r21, 0
    66f8:	03 0f       	add	r16, r19
    66fa:	00 c0       	rjmp	.+0      	; 0x66fc <L_20956+0x12>
    66fc:	00 2c       	mov	r0, r0
    66fe:	b8 b8       	out	0x08, r11	; 8
    6700:	00 c0       	rjmp	.+0      	; 0x6702 <L_20956+0x18>
    6702:	15 ff       	sbrs	r17, 5
    6704:	98 b9       	out	0x08, r25	; 8
    6706:	07 95       	ror	r16
    6708:	88 94       	clc
    670a:	51 fd       	sbrc	r21, 1
    670c:	03 0f       	add	r16, r19
    670e:	00 c0       	rjmp	.+0      	; 0x6710 <L_20956+0x26>
    6710:	00 c0       	rjmp	.+0      	; 0x6712 <L_20956+0x28>
    6712:	00 2c       	mov	r0, r0
    6714:	98 b9       	out	0x08, r25	; 8
    6716:	07 95       	ror	r16
    6718:	88 94       	clc
    671a:	00 c0       	rjmp	.+0      	; 0x671c <L_20956+0x32>
    671c:	00 2c       	mov	r0, r0
    671e:	b8 b8       	out	0x08, r11	; 8
    6720:	00 c0       	rjmp	.+0      	; 0x6722 <L_20956+0x38>
    6722:	14 ff       	sbrs	r17, 4
    6724:	98 b9       	out	0x08, r25	; 8
    6726:	52 fd       	sbrc	r21, 2
    6728:	03 0f       	add	r16, r19
    672a:	07 95       	ror	r16
    672c:	88 94       	clc
    672e:	00 c0       	rjmp	.+0      	; 0x6730 <L_20956+0x46>
    6730:	00 c0       	rjmp	.+0      	; 0x6732 <L_20956+0x48>
    6732:	00 2c       	mov	r0, r0
    6734:	98 b9       	out	0x08, r25	; 8
    6736:	53 fd       	sbrc	r21, 3
    6738:	03 0f       	add	r16, r19
    673a:	00 c0       	rjmp	.+0      	; 0x673c <L_20956+0x52>
    673c:	00 2c       	mov	r0, r0
    673e:	b8 b8       	out	0x08, r11	; 8
    6740:	00 c0       	rjmp	.+0      	; 0x6742 <L_20956+0x58>
    6742:	13 ff       	sbrs	r17, 3
    6744:	98 b9       	out	0x08, r25	; 8
    6746:	07 95       	ror	r16
    6748:	88 94       	clc
    674a:	54 fd       	sbrc	r21, 4
    674c:	03 0f       	add	r16, r19
    674e:	00 c0       	rjmp	.+0      	; 0x6750 <L_20956+0x66>
    6750:	00 c0       	rjmp	.+0      	; 0x6752 <L_20956+0x68>
    6752:	00 2c       	mov	r0, r0
    6754:	98 b9       	out	0x08, r25	; 8
    6756:	07 95       	ror	r16
    6758:	88 94       	clc
    675a:	00 c0       	rjmp	.+0      	; 0x675c <L_20956+0x72>
    675c:	00 2c       	mov	r0, r0
    675e:	b8 b8       	out	0x08, r11	; 8
    6760:	00 c0       	rjmp	.+0      	; 0x6762 <L_20956+0x78>
    6762:	12 ff       	sbrs	r17, 2
    6764:	98 b9       	out	0x08, r25	; 8
    6766:	55 fd       	sbrc	r21, 5
    6768:	03 0f       	add	r16, r19
    676a:	07 95       	ror	r16
    676c:	88 94       	clc
    676e:	00 c0       	rjmp	.+0      	; 0x6770 <L_20956+0x86>
    6770:	00 c0       	rjmp	.+0      	; 0x6772 <L_20956+0x88>
    6772:	00 2c       	mov	r0, r0
    6774:	98 b9       	out	0x08, r25	; 8
    6776:	56 fd       	sbrc	r21, 6
    6778:	03 0f       	add	r16, r19
    677a:	00 c0       	rjmp	.+0      	; 0x677c <L_20956+0x92>
    677c:	00 2c       	mov	r0, r0
    677e:	b8 b8       	out	0x08, r11	; 8
    6780:	00 c0       	rjmp	.+0      	; 0x6782 <L_20956+0x98>
    6782:	11 ff       	sbrs	r17, 1
    6784:	98 b9       	out	0x08, r25	; 8
    6786:	07 95       	ror	r16
    6788:	88 94       	clc
    678a:	57 fd       	sbrc	r21, 7
    678c:	03 0f       	add	r16, r19
    678e:	00 c0       	rjmp	.+0      	; 0x6790 <L_20956+0xa6>
    6790:	00 c0       	rjmp	.+0      	; 0x6792 <L_20956+0xa8>
    6792:	00 2c       	mov	r0, r0
    6794:	98 b9       	out	0x08, r25	; 8
    6796:	07 95       	ror	r16
    6798:	88 94       	clc
    679a:	00 c0       	rjmp	.+0      	; 0x679c <L_20956+0xb2>
    679c:	00 2c       	mov	r0, r0
    679e:	b8 b8       	out	0x08, r11	; 8
    67a0:	00 c0       	rjmp	.+0      	; 0x67a2 <L_20956+0xb8>
    67a2:	10 ff       	sbrs	r17, 0
    67a4:	98 b9       	out	0x08, r25	; 8
    67a6:	13 2f       	mov	r17, r19
    67a8:	51 11       	cpse	r21, r1
    67aa:	10 2f       	mov	r17, r16
    67ac:	e1 94       	neg	r14
    67ae:	00 c0       	rjmp	.+0      	; 0x67b0 <L_20956+0xc6>
    67b0:	00 c0       	rjmp	.+0      	; 0x67b2 <L_20956+0xc8>
    67b2:	00 2c       	mov	r0, r0
    67b4:	98 b9       	out	0x08, r25	; 8
    67b6:	ed 0e       	add	r14, r29
    67b8:	00 c0       	rjmp	.+0      	; 0x67ba <L_20956+0xd0>
    67ba:	00 c0       	rjmp	.+0      	; 0x67bc <L_20956+0xd2>
    67bc:	b8 b8       	out	0x08, r11	; 8
    67be:	00 c0       	rjmp	.+0      	; 0x67c0 <L_20956+0xd6>
    67c0:	17 ff       	sbrs	r17, 7
    67c2:	98 b9       	out	0x08, r25	; 8
    67c4:	31 81       	ldd	r19, Z+1	; 0x01
    67c6:	00 27       	eor	r16, r16
    67c8:	88 94       	clc
    67ca:	00 c0       	rjmp	.+0      	; 0x67cc <L_20956+0xe2>
    67cc:	00 c0       	rjmp	.+0      	; 0x67ce <L_20956+0xe4>
    67ce:	00 2c       	mov	r0, r0
    67d0:	98 b9       	out	0x08, r25	; 8
    67d2:	31 11       	cpse	r19, r1
    67d4:	38 0f       	add	r19, r24
    67d6:	00 c0       	rjmp	.+0      	; 0x67d8 <L_20956+0xee>
    67d8:	00 2c       	mov	r0, r0
    67da:	b8 b8       	out	0x08, r11	; 8
    67dc:	00 c0       	rjmp	.+0      	; 0x67de <L_20956+0xf4>
    67de:	16 ff       	sbrs	r17, 6
    67e0:	98 b9       	out	0x08, r25	; 8
    67e2:	08 f4       	brcc	.+2      	; 0x67e6 <L_22180>
    67e4:	3f ef       	ldi	r19, 0xFF	; 255

000067e6 <L_22180>:
    67e6:	81 95       	neg	r24
    67e8:	88 94       	clc
    67ea:	00 c0       	rjmp	.+0      	; 0x67ec <L_22180+0x6>
    67ec:	00 c0       	rjmp	.+0      	; 0x67ee <L_22180+0x8>
    67ee:	00 2c       	mov	r0, r0
    67f0:	98 b9       	out	0x08, r25	; 8
    67f2:	90 fc       	sbrc	r9, 0
    67f4:	03 0f       	add	r16, r19
    67f6:	00 c0       	rjmp	.+0      	; 0x67f8 <L_22180+0x12>
    67f8:	00 2c       	mov	r0, r0
    67fa:	b8 b8       	out	0x08, r11	; 8
    67fc:	00 c0       	rjmp	.+0      	; 0x67fe <L_22180+0x18>
    67fe:	15 ff       	sbrs	r17, 5
    6800:	98 b9       	out	0x08, r25	; 8
    6802:	07 95       	ror	r16
    6804:	88 94       	clc
    6806:	91 fc       	sbrc	r9, 1
    6808:	03 0f       	add	r16, r19
    680a:	00 c0       	rjmp	.+0      	; 0x680c <L_22180+0x26>
    680c:	00 c0       	rjmp	.+0      	; 0x680e <L_22180+0x28>
    680e:	00 2c       	mov	r0, r0
    6810:	98 b9       	out	0x08, r25	; 8
    6812:	07 95       	ror	r16
    6814:	88 94       	clc
    6816:	00 c0       	rjmp	.+0      	; 0x6818 <L_22180+0x32>
    6818:	00 2c       	mov	r0, r0
    681a:	b8 b8       	out	0x08, r11	; 8
    681c:	00 c0       	rjmp	.+0      	; 0x681e <L_22180+0x38>
    681e:	14 ff       	sbrs	r17, 4
    6820:	98 b9       	out	0x08, r25	; 8
    6822:	92 fc       	sbrc	r9, 2
    6824:	03 0f       	add	r16, r19
    6826:	07 95       	ror	r16
    6828:	88 94       	clc
    682a:	00 c0       	rjmp	.+0      	; 0x682c <L_22180+0x46>
    682c:	00 c0       	rjmp	.+0      	; 0x682e <L_22180+0x48>
    682e:	00 2c       	mov	r0, r0
    6830:	98 b9       	out	0x08, r25	; 8
    6832:	93 fc       	sbrc	r9, 3
    6834:	03 0f       	add	r16, r19
    6836:	00 c0       	rjmp	.+0      	; 0x6838 <L_22180+0x52>
    6838:	00 2c       	mov	r0, r0
    683a:	b8 b8       	out	0x08, r11	; 8
    683c:	00 c0       	rjmp	.+0      	; 0x683e <L_22180+0x58>
    683e:	13 ff       	sbrs	r17, 3
    6840:	98 b9       	out	0x08, r25	; 8
    6842:	07 95       	ror	r16
    6844:	88 94       	clc
    6846:	94 fc       	sbrc	r9, 4
    6848:	03 0f       	add	r16, r19
    684a:	00 c0       	rjmp	.+0      	; 0x684c <L_22180+0x66>
    684c:	00 c0       	rjmp	.+0      	; 0x684e <L_22180+0x68>
    684e:	00 2c       	mov	r0, r0
    6850:	98 b9       	out	0x08, r25	; 8
    6852:	07 95       	ror	r16
    6854:	88 94       	clc
    6856:	00 c0       	rjmp	.+0      	; 0x6858 <L_22180+0x72>
    6858:	00 2c       	mov	r0, r0
    685a:	b8 b8       	out	0x08, r11	; 8
    685c:	00 c0       	rjmp	.+0      	; 0x685e <L_22180+0x78>
    685e:	12 ff       	sbrs	r17, 2
    6860:	98 b9       	out	0x08, r25	; 8
    6862:	95 fc       	sbrc	r9, 5
    6864:	03 0f       	add	r16, r19
    6866:	07 95       	ror	r16
    6868:	88 94       	clc
    686a:	00 c0       	rjmp	.+0      	; 0x686c <L_22180+0x86>
    686c:	00 c0       	rjmp	.+0      	; 0x686e <L_22180+0x88>
    686e:	00 2c       	mov	r0, r0
    6870:	98 b9       	out	0x08, r25	; 8
    6872:	96 fc       	sbrc	r9, 6
    6874:	03 0f       	add	r16, r19
    6876:	00 c0       	rjmp	.+0      	; 0x6878 <L_22180+0x92>
    6878:	00 2c       	mov	r0, r0
    687a:	b8 b8       	out	0x08, r11	; 8
    687c:	00 c0       	rjmp	.+0      	; 0x687e <L_22180+0x98>
    687e:	11 ff       	sbrs	r17, 1
    6880:	98 b9       	out	0x08, r25	; 8
    6882:	07 95       	ror	r16
    6884:	88 94       	clc
    6886:	97 fc       	sbrc	r9, 7
    6888:	03 0f       	add	r16, r19
    688a:	00 c0       	rjmp	.+0      	; 0x688c <L_22180+0xa6>
    688c:	00 c0       	rjmp	.+0      	; 0x688e <L_22180+0xa8>
    688e:	00 2c       	mov	r0, r0
    6890:	98 b9       	out	0x08, r25	; 8
    6892:	07 95       	ror	r16
    6894:	88 94       	clc
    6896:	00 c0       	rjmp	.+0      	; 0x6898 <L_22180+0xb2>
    6898:	00 2c       	mov	r0, r0
    689a:	b8 b8       	out	0x08, r11	; 8
    689c:	00 c0       	rjmp	.+0      	; 0x689e <L_22180+0xb8>
    689e:	10 ff       	sbrs	r17, 0
    68a0:	98 b9       	out	0x08, r25	; 8
    68a2:	13 2f       	mov	r17, r19
    68a4:	91 10       	cpse	r9, r1
    68a6:	10 2f       	mov	r17, r16
    68a8:	86 0f       	add	r24, r22
    68aa:	00 c0       	rjmp	.+0      	; 0x68ac <L_22180+0xc6>
    68ac:	00 c0       	rjmp	.+0      	; 0x68ae <L_22180+0xc8>
    68ae:	00 2c       	mov	r0, r0
    68b0:	98 b9       	out	0x08, r25	; 8
    68b2:	11 97       	sbiw	r26, 0x01	; 1
    68b4:	09 f0       	breq	.+2      	; 0x68b8 <L_23160>
    68b6:	86 ce       	rjmp	.-756    	; 0x65c4 <L_19205+0x50>

000068b8 <L_23160>:
    68b8:	df 91       	pop	r29
    68ba:	cf 91       	pop	r28
    68bc:	1f 91       	pop	r17
    68be:	0f 91       	pop	r16
    68c0:	ff 90       	pop	r15
    68c2:	ef 90       	pop	r14
    68c4:	df 90       	pop	r13
    68c6:	cf 90       	pop	r12
    68c8:	bf 90       	pop	r11
    68ca:	af 90       	pop	r10
    68cc:	9f 90       	pop	r9
    68ce:	08 95       	ret

000068d0 <ClocklessController<(unsigned char)12, 4, 10, 6, (EOrder)66, 0, false, 10>::showPixels(PixelController<(EOrder)66, 1, 4294967295ul>&)>:
    68d0:	0f 93       	push	r16
    68d2:	1f 93       	push	r17
    68d4:	cf 93       	push	r28
    68d6:	df 93       	push	r29
    68d8:	ec 01       	movw	r28, r24
    68da:	8b 01       	movw	r16, r22
    68dc:	0e 94 05 4a 	call	0x940a	; 0x940a <_micros>
    68e0:	2f 85       	ldd	r18, Y+15	; 0x0f
    68e2:	38 89       	ldd	r19, Y+16	; 0x10
    68e4:	62 1b       	sub	r22, r18
    68e6:	73 0b       	sbc	r23, r19
    68e8:	6a 30       	cpi	r22, 0x0A	; 10
    68ea:	71 05       	cpc	r23, r1
    68ec:	b8 f3       	brcs	.-18     	; 0x68dc <ClocklessController<(unsigned char)12, 4, 10, 6, (EOrder)66, 0, false, 10>::showPixels(PixelController<(EOrder)66, 1, 4294967295ul>&)+0xc>
    68ee:	f8 94       	cli
    68f0:	c8 01       	movw	r24, r16
    68f2:	09 de       	rcall	.-1006   	; 0x6506 <ClocklessController<(unsigned char)12, 4, 10, 6, (EOrder)66, 0, false, 10>::showRGBInternal(PixelController<(EOrder)66, 1, 4294967295ul>&)>
    68f4:	f8 01       	movw	r30, r16
    68f6:	42 81       	ldd	r20, Z+2	; 0x02
    68f8:	53 81       	ldd	r21, Z+3	; 0x03
    68fa:	20 ee       	ldi	r18, 0xE0	; 224
    68fc:	31 e0       	ldi	r19, 0x01	; 1
    68fe:	da 01       	movw	r26, r20
    6900:	0e 94 80 53 	call	0xa700	; 0xa700 <__usmulhisi3>
    6904:	dc 01       	movw	r26, r24
    6906:	cb 01       	movw	r24, r22
    6908:	f4 e0       	ldi	r31, 0x04	; 4
    690a:	b6 95       	lsr	r27
    690c:	a7 95       	ror	r26
    690e:	97 95       	ror	r25
    6910:	87 95       	ror	r24
    6912:	fa 95       	dec	r31
    6914:	d1 f7       	brne	.-12     	; 0x690a <ClocklessController<(unsigned char)12, 4, 10, 6, (EOrder)66, 0, false, 10>::showPixels(PixelController<(EOrder)66, 1, 4294967295ul>&)+0x3a>
    6916:	30 e0       	ldi	r19, 0x00	; 0
    6918:	20 e0       	ldi	r18, 0x00	; 0
    691a:	b9 01       	movw	r22, r18
    691c:	ea e9       	ldi	r30, 0x9A	; 154
    691e:	4e 9f       	mul	r20, r30
    6920:	04 0e       	add	r0, r20
    6922:	61 1d       	adc	r22, r1
    6924:	5e 9f       	mul	r21, r30
    6926:	60 0d       	add	r22, r0
    6928:	71 1d       	adc	r23, r1
    692a:	11 24       	eor	r1, r1
    692c:	65 0f       	add	r22, r21
    692e:	71 1d       	adc	r23, r1
    6930:	86 0f       	add	r24, r22
    6932:	97 1f       	adc	r25, r23
    6934:	a1 1d       	adc	r26, r1
    6936:	b1 1d       	adc	r27, r1
    6938:	89 3e       	cpi	r24, 0xE9	; 233
    693a:	f3 e0       	ldi	r31, 0x03	; 3
    693c:	9f 07       	cpc	r25, r31
    693e:	a1 05       	cpc	r26, r1
    6940:	b1 05       	cpc	r27, r1
    6942:	08 f4       	brcc	.+2      	; 0x6946 <ClocklessController<(unsigned char)12, 4, 10, 6, (EOrder)66, 0, false, 10>::showPixels(PixelController<(EOrder)66, 1, 4294967295ul>&)+0x76>
    6944:	34 c0       	rjmp	.+104    	; 0x69ae <ClocklessController<(unsigned char)12, 4, 10, 6, (EOrder)66, 0, false, 10>::showPixels(PixelController<(EOrder)66, 1, 4294967295ul>&)+0xde>
    6946:	88 5e       	subi	r24, 0xE8	; 232
    6948:	93 40       	sbci	r25, 0x03	; 3
    694a:	a1 09       	sbc	r26, r1
    694c:	b1 09       	sbc	r27, r1
    694e:	42 e0       	ldi	r20, 0x02	; 2
    6950:	b6 95       	lsr	r27
    6952:	a7 95       	ror	r26
    6954:	97 95       	ror	r25
    6956:	87 95       	ror	r24
    6958:	4a 95       	dec	r20
    695a:	d1 f7       	brne	.-12     	; 0x6950 <ClocklessController<(unsigned char)12, 4, 10, 6, (EOrder)66, 0, false, 10>::showPixels(PixelController<(EOrder)66, 1, 4294967295ul>&)+0x80>
    695c:	47 e0       	ldi	r20, 0x07	; 7
    695e:	84 9f       	mul	r24, r20
    6960:	08 0e       	add	r0, r24
    6962:	21 1d       	adc	r18, r1
    6964:	94 9f       	mul	r25, r20
    6966:	20 0d       	add	r18, r0
    6968:	31 1d       	adc	r19, r1
    696a:	11 24       	eor	r1, r1
    696c:	29 0f       	add	r18, r25
    696e:	31 1d       	adc	r19, r1
    6970:	60 91 cb 10 	lds	r22, 0x10CB	; 0x8010cb <gTimeErrorAccum256ths>
    6974:	70 e0       	ldi	r23, 0x00	; 0
    6976:	86 0f       	add	r24, r22
    6978:	97 1f       	adc	r25, r23
    697a:	82 0f       	add	r24, r18
    697c:	93 1f       	adc	r25, r19
    697e:	40 91 ea 10 	lds	r20, 0x10EA	; 0x8010ea <timer0_millis_count>
    6982:	50 91 eb 10 	lds	r21, 0x10EB	; 0x8010eb <timer0_millis_count+0x1>
    6986:	60 91 ec 10 	lds	r22, 0x10EC	; 0x8010ec <timer0_millis_count+0x2>
    698a:	70 91 ed 10 	lds	r23, 0x10ED	; 0x8010ed <timer0_millis_count+0x3>
    698e:	29 2f       	mov	r18, r25
    6990:	33 27       	eor	r19, r19
    6992:	42 0f       	add	r20, r18
    6994:	53 1f       	adc	r21, r19
    6996:	61 1d       	adc	r22, r1
    6998:	71 1d       	adc	r23, r1
    699a:	40 93 ea 10 	sts	0x10EA, r20	; 0x8010ea <timer0_millis_count>
    699e:	50 93 eb 10 	sts	0x10EB, r21	; 0x8010eb <timer0_millis_count+0x1>
    69a2:	60 93 ec 10 	sts	0x10EC, r22	; 0x8010ec <timer0_millis_count+0x2>
    69a6:	70 93 ed 10 	sts	0x10ED, r23	; 0x8010ed <timer0_millis_count+0x3>
    69aa:	80 93 cb 10 	sts	0x10CB, r24	; 0x8010cb <gTimeErrorAccum256ths>
    69ae:	78 94       	sei
    69b0:	0e 94 05 4a 	call	0x940a	; 0x940a <_micros>
    69b4:	78 8b       	std	Y+16, r23	; 0x10
    69b6:	6f 87       	std	Y+15, r22	; 0x0f
    69b8:	df 91       	pop	r29
    69ba:	cf 91       	pop	r28
    69bc:	1f 91       	pop	r17
    69be:	0f 91       	pop	r16
    69c0:	08 95       	ret

000069c2 <PixelController<(EOrder)66, 1, 4294967295ul>::init_binary_dithering()>:
    69c2:	0f 93       	push	r16
    69c4:	1f 93       	push	r17
    69c6:	cf 93       	push	r28
    69c8:	df 93       	push	r29
    69ca:	20 91 e2 09 	lds	r18, 0x09E2	; 0x8009e2 <__data_end>
    69ce:	2f 5f       	subi	r18, 0xFF	; 255
    69d0:	32 2f       	mov	r19, r18
    69d2:	37 70       	andi	r19, 0x07	; 7
    69d4:	30 93 e2 09 	sts	0x09E2, r19	; 0x8009e2 <__data_end>
    69d8:	20 ff       	sbrs	r18, 0
    69da:	2b c0       	rjmp	.+86     	; 0x6a32 <PixelController<(EOrder)66, 1, 4294967295ul>::init_binary_dithering()+0x70>
    69dc:	20 e8       	ldi	r18, 0x80	; 128
    69de:	31 fd       	sbrc	r19, 1
    69e0:	20 64       	ori	r18, 0x40	; 64
    69e2:	34 70       	andi	r19, 0x04	; 4
    69e4:	09 f0       	breq	.+2      	; 0x69e8 <PixelController<(EOrder)66, 1, 4294967295ul>::init_binary_dithering()+0x26>
    69e6:	20 62       	ori	r18, 0x20	; 32
    69e8:	20 5f       	subi	r18, 0xF0	; 240
    69ea:	fc 01       	movw	r30, r24
    69ec:	ec 01       	movw	r28, r24
    69ee:	23 96       	adiw	r28, 0x03	; 3
    69f0:	00 e0       	ldi	r16, 0x00	; 0
    69f2:	11 e0       	ldi	r17, 0x01	; 1
    69f4:	64 85       	ldd	r22, Z+12	; 0x0c
    69f6:	66 23       	and	r22, r22
    69f8:	29 f0       	breq	.+10     	; 0x6a04 <PixelController<(EOrder)66, 1, 4294967295ul>::init_binary_dithering()+0x42>
    69fa:	70 e0       	ldi	r23, 0x00	; 0
    69fc:	c8 01       	movw	r24, r16
    69fe:	0e 94 17 53 	call	0xa62e	; 0xa62e <__divmodhi4>
    6a02:	6f 5f       	subi	r22, 0xFF	; 255
    6a04:	61 87       	std	Z+9, r22	; 0x09
    6a06:	32 2f       	mov	r19, r18
    6a08:	36 9f       	mul	r19, r22
    6a0a:	03 0e       	add	r0, r19
    6a0c:	30 e0       	ldi	r19, 0x00	; 0
    6a0e:	31 1d       	adc	r19, r1
    6a10:	11 24       	eor	r1, r1
    6a12:	31 11       	cpse	r19, r1
    6a14:	10 c0       	rjmp	.+32     	; 0x6a36 <PixelController<(EOrder)66, 1, 4294967295ul>::init_binary_dithering()+0x74>
    6a16:	16 82       	std	Z+6, r1	; 0x06
    6a18:	66 23       	and	r22, r22
    6a1a:	11 f0       	breq	.+4      	; 0x6a20 <PixelController<(EOrder)66, 1, 4294967295ul>::init_binary_dithering()+0x5e>
    6a1c:	61 50       	subi	r22, 0x01	; 1
    6a1e:	61 87       	std	Z+9, r22	; 0x09
    6a20:	31 96       	adiw	r30, 0x01	; 1
    6a22:	ec 17       	cp	r30, r28
    6a24:	fd 07       	cpc	r31, r29
    6a26:	31 f7       	brne	.-52     	; 0x69f4 <PixelController<(EOrder)66, 1, 4294967295ul>::init_binary_dithering()+0x32>
    6a28:	df 91       	pop	r29
    6a2a:	cf 91       	pop	r28
    6a2c:	1f 91       	pop	r17
    6a2e:	0f 91       	pop	r16
    6a30:	08 95       	ret
    6a32:	20 e0       	ldi	r18, 0x00	; 0
    6a34:	d4 cf       	rjmp	.-88     	; 0x69de <PixelController<(EOrder)66, 1, 4294967295ul>::init_binary_dithering()+0x1c>
    6a36:	31 50       	subi	r19, 0x01	; 1
    6a38:	36 83       	std	Z+6, r19	; 0x06
    6a3a:	ee cf       	rjmp	.-36     	; 0x6a18 <PixelController<(EOrder)66, 1, 4294967295ul>::init_binary_dithering()+0x56>

00006a3c <CPixelLEDController<(EOrder)66, 1, 4294967295ul>::show(CRGB const*, int, CRGB)>:
    6a3c:	0f 93       	push	r16
    6a3e:	1f 93       	push	r17
    6a40:	cf 93       	push	r28
    6a42:	df 93       	push	r29
    6a44:	cd b7       	in	r28, 0x3d	; 61
    6a46:	de b7       	in	r29, 0x3e	; 62
    6a48:	62 97       	sbiw	r28, 0x12	; 18
    6a4a:	0f b6       	in	r0, 0x3f	; 63
    6a4c:	f8 94       	cli
    6a4e:	de bf       	out	0x3e, r29	; 62
    6a50:	0f be       	out	0x3f, r0	; 63
    6a52:	cd bf       	out	0x3d, r28	; 61
    6a54:	8c 01       	movw	r16, r24
    6a56:	f9 01       	movw	r30, r18
    6a58:	dc 01       	movw	r26, r24
    6a5a:	1c 96       	adiw	r26, 0x0c	; 12
    6a5c:	8c 91       	ld	r24, X
    6a5e:	7a 83       	std	Y+2, r23	; 0x02
    6a60:	69 83       	std	Y+1, r22	; 0x01
    6a62:	5c 83       	std	Y+4, r21	; 0x04
    6a64:	4b 83       	std	Y+3, r20	; 0x03
    6a66:	5e 83       	std	Y+6, r21	; 0x06
    6a68:	4d 83       	std	Y+5, r20	; 0x05
    6a6a:	90 81       	ld	r25, Z
    6a6c:	9d 87       	std	Y+13, r25	; 0x0d
    6a6e:	91 81       	ldd	r25, Z+1	; 0x01
    6a70:	9e 87       	std	Y+14, r25	; 0x0e
    6a72:	92 81       	ldd	r25, Z+2	; 0x02
    6a74:	9f 87       	std	Y+15, r25	; 0x0f
    6a76:	81 30       	cpi	r24, 0x01	; 1
    6a78:	e9 f4       	brne	.+58     	; 0x6ab4 <CPixelLEDController<(EOrder)66, 1, 4294967295ul>::show(CRGB const*, int, CRGB)+0x78>
    6a7a:	ce 01       	movw	r24, r28
    6a7c:	01 96       	adiw	r24, 0x01	; 1
    6a7e:	a1 df       	rcall	.-190    	; 0x69c2 <PixelController<(EOrder)66, 1, 4294967295ul>::init_binary_dithering()>
    6a80:	83 e0       	ldi	r24, 0x03	; 3
    6a82:	88 8b       	std	Y+16, r24	; 0x10
    6a84:	1a 8a       	std	Y+18, r1	; 0x12
    6a86:	19 8a       	std	Y+17, r1	; 0x11
    6a88:	d8 01       	movw	r26, r16
    6a8a:	ed 91       	ld	r30, X+
    6a8c:	fc 91       	ld	r31, X
    6a8e:	04 84       	ldd	r0, Z+12	; 0x0c
    6a90:	f5 85       	ldd	r31, Z+13	; 0x0d
    6a92:	e0 2d       	mov	r30, r0
    6a94:	be 01       	movw	r22, r28
    6a96:	6f 5f       	subi	r22, 0xFF	; 255
    6a98:	7f 4f       	sbci	r23, 0xFF	; 255
    6a9a:	c8 01       	movw	r24, r16
    6a9c:	09 95       	icall
    6a9e:	62 96       	adiw	r28, 0x12	; 18
    6aa0:	0f b6       	in	r0, 0x3f	; 63
    6aa2:	f8 94       	cli
    6aa4:	de bf       	out	0x3e, r29	; 62
    6aa6:	0f be       	out	0x3f, r0	; 63
    6aa8:	cd bf       	out	0x3d, r28	; 61
    6aaa:	df 91       	pop	r29
    6aac:	cf 91       	pop	r28
    6aae:	1f 91       	pop	r17
    6ab0:	0f 91       	pop	r16
    6ab2:	08 95       	ret
    6ab4:	1c 86       	std	Y+12, r1	; 0x0c
    6ab6:	1b 86       	std	Y+11, r1	; 0x0b
    6ab8:	1a 86       	std	Y+10, r1	; 0x0a
    6aba:	19 86       	std	Y+9, r1	; 0x09
    6abc:	18 86       	std	Y+8, r1	; 0x08
    6abe:	1f 82       	std	Y+7, r1	; 0x07
    6ac0:	df cf       	rjmp	.-66     	; 0x6a80 <CPixelLEDController<(EOrder)66, 1, 4294967295ul>::show(CRGB const*, int, CRGB)+0x44>

00006ac2 <CPixelLEDController<(EOrder)66, 1, 4294967295ul>::showColor(CRGB const&, int, CRGB)>:
    6ac2:	0f 93       	push	r16
    6ac4:	1f 93       	push	r17
    6ac6:	cf 93       	push	r28
    6ac8:	df 93       	push	r29
    6aca:	cd b7       	in	r28, 0x3d	; 61
    6acc:	de b7       	in	r29, 0x3e	; 62
    6ace:	62 97       	sbiw	r28, 0x12	; 18
    6ad0:	0f b6       	in	r0, 0x3f	; 63
    6ad2:	f8 94       	cli
    6ad4:	de bf       	out	0x3e, r29	; 62
    6ad6:	0f be       	out	0x3f, r0	; 63
    6ad8:	cd bf       	out	0x3d, r28	; 61
    6ada:	8c 01       	movw	r16, r24
    6adc:	f9 01       	movw	r30, r18
    6ade:	dc 01       	movw	r26, r24
    6ae0:	1c 96       	adiw	r26, 0x0c	; 12
    6ae2:	8c 91       	ld	r24, X
    6ae4:	7a 83       	std	Y+2, r23	; 0x02
    6ae6:	69 83       	std	Y+1, r22	; 0x01
    6ae8:	5c 83       	std	Y+4, r21	; 0x04
    6aea:	4b 83       	std	Y+3, r20	; 0x03
    6aec:	5e 83       	std	Y+6, r21	; 0x06
    6aee:	4d 83       	std	Y+5, r20	; 0x05
    6af0:	90 81       	ld	r25, Z
    6af2:	9d 87       	std	Y+13, r25	; 0x0d
    6af4:	91 81       	ldd	r25, Z+1	; 0x01
    6af6:	9e 87       	std	Y+14, r25	; 0x0e
    6af8:	92 81       	ldd	r25, Z+2	; 0x02
    6afa:	9f 87       	std	Y+15, r25	; 0x0f
    6afc:	81 30       	cpi	r24, 0x01	; 1
    6afe:	e1 f4       	brne	.+56     	; 0x6b38 <CPixelLEDController<(EOrder)66, 1, 4294967295ul>::showColor(CRGB const&, int, CRGB)+0x76>
    6b00:	ce 01       	movw	r24, r28
    6b02:	01 96       	adiw	r24, 0x01	; 1
    6b04:	5e df       	rcall	.-324    	; 0x69c2 <PixelController<(EOrder)66, 1, 4294967295ul>::init_binary_dithering()>
    6b06:	18 8a       	std	Y+16, r1	; 0x10
    6b08:	1a 8a       	std	Y+18, r1	; 0x12
    6b0a:	19 8a       	std	Y+17, r1	; 0x11
    6b0c:	d8 01       	movw	r26, r16
    6b0e:	ed 91       	ld	r30, X+
    6b10:	fc 91       	ld	r31, X
    6b12:	04 84       	ldd	r0, Z+12	; 0x0c
    6b14:	f5 85       	ldd	r31, Z+13	; 0x0d
    6b16:	e0 2d       	mov	r30, r0
    6b18:	be 01       	movw	r22, r28
    6b1a:	6f 5f       	subi	r22, 0xFF	; 255
    6b1c:	7f 4f       	sbci	r23, 0xFF	; 255
    6b1e:	c8 01       	movw	r24, r16
    6b20:	09 95       	icall
    6b22:	62 96       	adiw	r28, 0x12	; 18
    6b24:	0f b6       	in	r0, 0x3f	; 63
    6b26:	f8 94       	cli
    6b28:	de bf       	out	0x3e, r29	; 62
    6b2a:	0f be       	out	0x3f, r0	; 63
    6b2c:	cd bf       	out	0x3d, r28	; 61
    6b2e:	df 91       	pop	r29
    6b30:	cf 91       	pop	r28
    6b32:	1f 91       	pop	r17
    6b34:	0f 91       	pop	r16
    6b36:	08 95       	ret
    6b38:	1c 86       	std	Y+12, r1	; 0x0c
    6b3a:	1b 86       	std	Y+11, r1	; 0x0b
    6b3c:	1a 86       	std	Y+10, r1	; 0x0a
    6b3e:	19 86       	std	Y+9, r1	; 0x09
    6b40:	18 86       	std	Y+8, r1	; 0x08
    6b42:	1f 82       	std	Y+7, r1	; 0x07
    6b44:	e0 cf       	rjmp	.-64     	; 0x6b06 <CPixelLEDController<(EOrder)66, 1, 4294967295ul>::showColor(CRGB const&, int, CRGB)+0x44>

00006b46 <_GLOBAL__sub_I_matrix>:
    6b46:	0f b6       	in	r0, 0x3f	; 63
    6b48:	f8 94       	cli
    6b4a:	80 91 ea 10 	lds	r24, 0x10EA	; 0x8010ea <timer0_millis_count>
    6b4e:	90 91 eb 10 	lds	r25, 0x10EB	; 0x8010eb <timer0_millis_count+0x1>
    6b52:	a0 91 ec 10 	lds	r26, 0x10EC	; 0x8010ec <timer0_millis_count+0x2>
    6b56:	b0 91 ed 10 	lds	r27, 0x10ED	; 0x8010ed <timer0_millis_count+0x3>
    6b5a:	0f be       	out	0x3f, r0	; 63
    6b5c:	90 93 c1 0a 	sts	0x0AC1, r25	; 0x800ac1 <lastLEDchange+0x1>
    6b60:	80 93 c0 0a 	sts	0x0AC0, r24	; 0x800ac0 <lastLEDchange>
    6b64:	0e 94 cd 09 	call	0x139a	; 0x139a <getRandomColorValue()>
    6b68:	80 93 75 0a 	sts	0x0A75, r24	; 0x800a75 <r>
    6b6c:	0e 94 cd 09 	call	0x139a	; 0x139a <getRandomColorValue()>
    6b70:	80 93 74 0a 	sts	0x0A74, r24	; 0x800a74 <g>
    6b74:	0e 94 cd 09 	call	0x139a	; 0x139a <getRandomColorValue()>
    6b78:	80 93 73 0a 	sts	0x0A73, r24	; 0x800a73 <b>
    6b7c:	69 ec       	ldi	r22, 0xC9	; 201
    6b7e:	75 e0       	ldi	r23, 0x05	; 5
    6b80:	86 e2       	ldi	r24, 0x26	; 38
    6b82:	9a e0       	ldi	r25, 0x0A	; 10
    6b84:	0e 94 30 51 	call	0xa260	; 0xa260 <String::String(char const*)>
    6b88:	64 ec       	ldi	r22, 0xC4	; 196
    6b8a:	75 e0       	ldi	r23, 0x05	; 5
    6b8c:	8d e2       	ldi	r24, 0x2D	; 45
    6b8e:	9a e0       	ldi	r25, 0x0A	; 10
    6b90:	0e 94 30 51 	call	0xa260	; 0xa260 <String::String(char const*)>
    6b94:	62 ec       	ldi	r22, 0xC2	; 194
    6b96:	75 e0       	ldi	r23, 0x05	; 5
    6b98:	84 e3       	ldi	r24, 0x34	; 52
    6b9a:	9a e0       	ldi	r25, 0x0A	; 10
    6b9c:	0e 94 30 51 	call	0xa260	; 0xa260 <String::String(char const*)>
    6ba0:	6f eb       	ldi	r22, 0xBF	; 191
    6ba2:	75 e0       	ldi	r23, 0x05	; 5
    6ba4:	8b e3       	ldi	r24, 0x3B	; 59
    6ba6:	9a e0       	ldi	r25, 0x0A	; 10
    6ba8:	0e 94 30 51 	call	0xa260	; 0xa260 <String::String(char const*)>
    6bac:	6a eb       	ldi	r22, 0xBA	; 186
    6bae:	75 e0       	ldi	r23, 0x05	; 5
    6bb0:	82 e4       	ldi	r24, 0x42	; 66
    6bb2:	9a e0       	ldi	r25, 0x0A	; 10
    6bb4:	0e 94 30 51 	call	0xa260	; 0xa260 <String::String(char const*)>
    6bb8:	66 eb       	ldi	r22, 0xB6	; 182
    6bba:	75 e0       	ldi	r23, 0x05	; 5
    6bbc:	89 e4       	ldi	r24, 0x49	; 73
    6bbe:	9a e0       	ldi	r25, 0x0A	; 10
    6bc0:	0e 94 30 51 	call	0xa260	; 0xa260 <String::String(char const*)>
    6bc4:	60 eb       	ldi	r22, 0xB0	; 176
    6bc6:	75 e0       	ldi	r23, 0x05	; 5
    6bc8:	80 e5       	ldi	r24, 0x50	; 80
    6bca:	9a e0       	ldi	r25, 0x0A	; 10
    6bcc:	0e 94 30 51 	call	0xa260	; 0xa260 <String::String(char const*)>
    6bd0:	6d ea       	ldi	r22, 0xAD	; 173
    6bd2:	75 e0       	ldi	r23, 0x05	; 5
    6bd4:	87 e5       	ldi	r24, 0x57	; 87
    6bd6:	9a e0       	ldi	r25, 0x0A	; 10
    6bd8:	0e 94 30 51 	call	0xa260	; 0xa260 <String::String(char const*)>
    6bdc:	68 ea       	ldi	r22, 0xA8	; 168
    6bde:	75 e0       	ldi	r23, 0x05	; 5
    6be0:	8e e5       	ldi	r24, 0x5E	; 94
    6be2:	9a e0       	ldi	r25, 0x0A	; 10
    6be4:	0e 94 30 51 	call	0xa260	; 0xa260 <String::String(char const*)>
    6be8:	63 ea       	ldi	r22, 0xA3	; 163
    6bea:	75 e0       	ldi	r23, 0x05	; 5
    6bec:	85 e6       	ldi	r24, 0x65	; 101
    6bee:	9a e0       	ldi	r25, 0x0A	; 10
    6bf0:	0e 94 30 51 	call	0xa260	; 0xa260 <String::String(char const*)>
    6bf4:	6e e9       	ldi	r22, 0x9E	; 158
    6bf6:	75 e0       	ldi	r23, 0x05	; 5
    6bf8:	8c ef       	ldi	r24, 0xFC	; 252
    6bfa:	99 e0       	ldi	r25, 0x09	; 9
    6bfc:	0e 94 30 51 	call	0xa260	; 0xa260 <String::String(char const*)>
    6c00:	67 e9       	ldi	r22, 0x97	; 151
    6c02:	75 e0       	ldi	r23, 0x05	; 5
    6c04:	83 e0       	ldi	r24, 0x03	; 3
    6c06:	9a e0       	ldi	r25, 0x0A	; 10
    6c08:	0e 94 30 51 	call	0xa260	; 0xa260 <String::String(char const*)>
    6c0c:	6e e8       	ldi	r22, 0x8E	; 142
    6c0e:	75 e0       	ldi	r23, 0x05	; 5
    6c10:	8a e0       	ldi	r24, 0x0A	; 10
    6c12:	9a e0       	ldi	r25, 0x0A	; 10
    6c14:	0e 94 30 51 	call	0xa260	; 0xa260 <String::String(char const*)>
    6c18:	6a e8       	ldi	r22, 0x8A	; 138
    6c1a:	75 e0       	ldi	r23, 0x05	; 5
    6c1c:	81 e1       	ldi	r24, 0x11	; 17
    6c1e:	9a e0       	ldi	r25, 0x0A	; 10
    6c20:	0e 94 30 51 	call	0xa260	; 0xa260 <String::String(char const*)>
    6c24:	66 e8       	ldi	r22, 0x86	; 134
    6c26:	75 e0       	ldi	r23, 0x05	; 5
    6c28:	88 e1       	ldi	r24, 0x18	; 24
    6c2a:	9a e0       	ldi	r25, 0x0A	; 10
    6c2c:	0e 94 30 51 	call	0xa260	; 0xa260 <String::String(char const*)>
    6c30:	6f e7       	ldi	r22, 0x7F	; 127
    6c32:	75 e0       	ldi	r23, 0x05	; 5
    6c34:	8f e1       	ldi	r24, 0x1F	; 31
    6c36:	9a e0       	ldi	r25, 0x0A	; 10
    6c38:	0c 94 30 51 	jmp	0xa260	; 0xa260 <String::String(char const*)>

00006c3c <_GLOBAL__sub_D_matrix>:
    6c3c:	cf 93       	push	r28
    6c3e:	df 93       	push	r29
    6c40:	c6 e2       	ldi	r28, 0x26	; 38
    6c42:	da e0       	ldi	r29, 0x0A	; 10
    6c44:	27 97       	sbiw	r28, 0x07	; 7
    6c46:	ce 01       	movw	r24, r28
    6c48:	0e 94 c7 50 	call	0xa18e	; 0xa18e <String::~String()>
    6c4c:	89 e0       	ldi	r24, 0x09	; 9
    6c4e:	cc 3f       	cpi	r28, 0xFC	; 252
    6c50:	d8 07       	cpc	r29, r24
    6c52:	c1 f7       	brne	.-16     	; 0x6c44 <_GLOBAL__sub_D_matrix+0x8>
    6c54:	cc e6       	ldi	r28, 0x6C	; 108
    6c56:	da e0       	ldi	r29, 0x0A	; 10
    6c58:	27 97       	sbiw	r28, 0x07	; 7
    6c5a:	ce 01       	movw	r24, r28
    6c5c:	0e 94 c7 50 	call	0xa18e	; 0xa18e <String::~String()>
    6c60:	8a e0       	ldi	r24, 0x0A	; 10
    6c62:	c6 32       	cpi	r28, 0x26	; 38
    6c64:	d8 07       	cpc	r29, r24
    6c66:	c1 f7       	brne	.-16     	; 0x6c58 <_GLOBAL__sub_D_matrix+0x1c>
    6c68:	df 91       	pop	r29
    6c6a:	cf 91       	pop	r28
    6c6c:	08 95       	ret

00006c6e <checkIncomingMIDI()>:
    6c6e:	85 ef       	ldi	r24, 0xF5	; 245
    6c70:	90 e1       	ldi	r25, 0x10	; 16
    6c72:	0e 94 32 4c 	call	0x9864	; 0x9864 <HardwareSerial::available()>
    6c76:	89 2b       	or	r24, r25
    6c78:	81 f0       	breq	.+32     	; 0x6c9a <checkIncomingMIDI()+0x2c>
    6c7a:	85 ef       	ldi	r24, 0xF5	; 245
    6c7c:	90 e1       	ldi	r25, 0x10	; 16
    6c7e:	0e 94 65 4c 	call	0x98ca	; 0x98ca <HardwareSerial::read()>
    6c82:	80 93 d5 0a 	sts	0x0AD5, r24	; 0x800ad5 <incomingMidiByte>
    6c86:	8f 3f       	cpi	r24, 0xFF	; 255
    6c88:	41 f0       	breq	.+16     	; 0x6c9a <checkIncomingMIDI()+0x2c>
    6c8a:	87 ff       	sbrs	r24, 7
    6c8c:	0d c0       	rjmp	.+26     	; 0x6ca8 <checkIncomingMIDI()+0x3a>
    6c8e:	80 93 d4 0a 	sts	0x0AD4, r24	; 0x800ad4 <midiStatusByte>
    6c92:	10 92 d3 0a 	sts	0x0AD3, r1	; 0x800ad3 <midiDataByte1>
    6c96:	10 92 d2 0a 	sts	0x0AD2, r1	; 0x800ad2 <midiDataByte2>
    6c9a:	85 ef       	ldi	r24, 0xF5	; 245
    6c9c:	90 e1       	ldi	r25, 0x10	; 16
    6c9e:	0e 94 32 4c 	call	0x9864	; 0x9864 <HardwareSerial::available()>
    6ca2:	89 2b       	or	r24, r25
    6ca4:	21 f7       	brne	.-56     	; 0x6c6e <checkIncomingMIDI()>
    6ca6:	08 95       	ret
    6ca8:	90 91 d3 0a 	lds	r25, 0x0AD3	; 0x800ad3 <midiDataByte1>
    6cac:	91 11       	cpse	r25, r1
    6cae:	11 c0       	rjmp	.+34     	; 0x6cd2 <checkIncomingMIDI()+0x64>
    6cb0:	80 93 d3 0a 	sts	0x0AD3, r24	; 0x800ad3 <midiDataByte1>
    6cb4:	80 91 d4 0a 	lds	r24, 0x0AD4	; 0x800ad4 <midiStatusByte>
    6cb8:	89 3b       	cpi	r24, 0xB9	; 185
    6cba:	79 f7       	brne	.-34     	; 0x6c9a <checkIncomingMIDI()+0x2c>
    6cbc:	80 91 d3 0a 	lds	r24, 0x0AD3	; 0x800ad3 <midiDataByte1>
    6cc0:	86 31       	cpi	r24, 0x16	; 22
    6cc2:	71 f4       	brne	.+28     	; 0x6ce0 <checkIncomingMIDI()+0x72>
    6cc4:	80 91 d2 0a 	lds	r24, 0x0AD2	; 0x800ad2 <midiDataByte2>
    6cc8:	88 23       	and	r24, r24
    6cca:	39 f3       	breq	.-50     	; 0x6c9a <checkIncomingMIDI()+0x2c>
    6ccc:	0e 94 1a 1c 	call	0x3834	; 0x3834 <switchToSong(unsigned char)>
    6cd0:	e4 cf       	rjmp	.-56     	; 0x6c9a <checkIncomingMIDI()+0x2c>
    6cd2:	90 91 d2 0a 	lds	r25, 0x0AD2	; 0x800ad2 <midiDataByte2>
    6cd6:	91 11       	cpse	r25, r1
    6cd8:	ed cf       	rjmp	.-38     	; 0x6cb4 <checkIncomingMIDI()+0x46>
    6cda:	80 93 d2 0a 	sts	0x0AD2, r24	; 0x800ad2 <midiDataByte2>
    6cde:	ea cf       	rjmp	.-44     	; 0x6cb4 <checkIncomingMIDI()+0x46>
    6ce0:	87 31       	cpi	r24, 0x17	; 23
    6ce2:	d9 f6       	brne	.-74     	; 0x6c9a <checkIncomingMIDI()+0x2c>
    6ce4:	80 91 d2 0a 	lds	r24, 0x0AD2	; 0x800ad2 <midiDataByte2>
    6ce8:	0e 94 89 1b 	call	0x3712	; 0x3712 <switchToPart(unsigned char)>
    6cec:	d6 cf       	rjmp	.-84     	; 0x6c9a <checkIncomingMIDI()+0x2c>

00006cee <loop>:
//
//	FastLED.show();
//}

//==========================================================================

    6cee:	8f 92       	push	r8
    6cf0:	9f 92       	push	r9
    6cf2:	af 92       	push	r10
    6cf4:	bf 92       	push	r11
    6cf6:	cf 92       	push	r12
    6cf8:	df 92       	push	r13
    6cfa:	ef 92       	push	r14
    6cfc:	ff 92       	push	r15
    6cfe:	0f 93       	push	r16
    6d00:	1f 93       	push	r17
    6d02:	cf 93       	push	r28
void loop() {

	boolean debug = false;

	//=== ausserhalb vom fastLED loop ====

    6d04:	80 91 c2 0a 	lds	r24, 0x0AC2	; 0x800ac2 <ISR_USART_got_a_byte>
    6d08:	88 23       	and	r24, r24
    6d0a:	41 f0       	breq	.+16     	; 0x6d1c <loop+0x2e>
	if (ISR_USART_got_a_byte) {
    6d0c:	60 91 c3 0a 	lds	r22, 0x0AC3	; 0x800ac3 <ISR_received_USART_byte>
    6d10:	8a e6       	ldi	r24, 0x6A	; 106
    6d12:	91 e1       	ldi	r25, 0x11	; 17
    6d14:	0e 94 65 08 	call	0x10ca	; 0x10ca <Print::println(unsigned char)>
		Serial.println(ISR_received_USART_byte);
    6d18:	10 92 c2 0a 	sts	0x0AC2, r1	; 0x800ac2 <ISR_USART_got_a_byte>
		ISR_USART_got_a_byte = false;
	}

    6d1c:	80 91 c4 0a 	lds	r24, 0x0AC4	; 0x800ac4 <OneSecondHasPast>
    6d20:	88 23       	and	r24, r24
    6d22:	39 f0       	breq	.+14     	; 0x6d32 <loop+0x44>
	if (OneSecondHasPast) {
		//Serial.println(diffMillis);
    6d24:	80 91 cf 0a 	lds	r24, 0x0ACF	; 0x800acf <secondsForVoltage>
    6d28:	8f 5f       	subi	r24, 0xFF	; 255
    6d2a:	80 93 cf 0a 	sts	0x0ACF, r24	; 0x800acf <secondsForVoltage>
		secondsForVoltage++;	// count seconds for voltage lipo safer 
    6d2e:	10 92 c4 0a 	sts	0x0AC4, r1	; 0x800ac4 <OneSecondHasPast>
		OneSecondHasPast = false;
	}

	//---- check voltage as lipo safer ------
    6d32:	80 91 cf 0a 	lds	r24, 0x0ACF	; 0x800acf <secondsForVoltage>
    6d36:	88 23       	and	r24, r24
    6d38:	09 f4       	brne	.+2      	; 0x6d3c <loop+0x4e>
    6d3a:	46 c0       	rjmp	.+140    	; 0x6dc8 <loop+0xda>
    6d3c:	c0 91 d1 0a 	lds	r28, 0x0AD1	; 0x800ad1 <voltageSmooth>
	if (secondsForVoltage >= SECONDSFORVOLTAGE) {
    6d40:	10 92 cf 0a 	sts	0x0ACF, r1	; 0x800acf <secondsForVoltage>
		//low = ADCL;									// must read LSB first
		//analog = (ADCH << 8) | low;					// must read MSB only once!
		//Serial.println(analog);					// TODO JUST TESTING
		//Serial.println(adc_read(3));
		//Serial.println(analogRead(40)); // TODO JUST TESTING

    6d44:	88 e2       	ldi	r24, 0x28	; 40
    6d46:	0e 94 4d 48 	call	0x909a	; 0x909a <analogRead>
    6d4a:	bc 01       	movw	r22, r24
    6d4c:	99 0f       	add	r25, r25
    6d4e:	88 0b       	sbc	r24, r24
    6d50:	99 0b       	sbc	r25, r25
    6d52:	1f 92       	push	r1
    6d54:	1f 92       	push	r1
    6d56:	1f 92       	push	r1
    6d58:	28 e7       	ldi	r18, 0x78	; 120
    6d5a:	2f 93       	push	r18
    6d5c:	a1 2c       	mov	r10, r1
    6d5e:	b1 2c       	mov	r11, r1
    6d60:	65 01       	movw	r12, r10
    6d62:	ee 24       	eor	r14, r14
    6d64:	ea 94       	dec	r14
    6d66:	13 e0       	ldi	r17, 0x03	; 3
    6d68:	f1 2e       	mov	r15, r17
    6d6a:	00 e0       	ldi	r16, 0x00	; 0
    6d6c:	10 e0       	ldi	r17, 0x00	; 0
    6d6e:	20 e0       	ldi	r18, 0x00	; 0
    6d70:	30 e0       	ldi	r19, 0x00	; 0
    6d72:	a9 01       	movw	r20, r18
    6d74:	0e 94 88 50 	call	0xa110	; 0xa110 <map(long, long, long, long, long)>
    6d78:	4b 01       	movw	r8, r22
    6d7a:	5c 01       	movw	r10, r24
    6d7c:	6c 2f       	mov	r22, r28
    6d7e:	70 e0       	ldi	r23, 0x00	; 0
    6d80:	90 e0       	ldi	r25, 0x00	; 0
    6d82:	80 e0       	ldi	r24, 0x00	; 0
    6d84:	0e 94 05 52 	call	0xa40a	; 0xa40a <__floatsisf>
    6d88:	23 e3       	ldi	r18, 0x33	; 51
    6d8a:	33 e3       	ldi	r19, 0x33	; 51
    6d8c:	43 e3       	ldi	r20, 0x33	; 51
    6d8e:	5f e3       	ldi	r21, 0x3F	; 63
    6d90:	0e 94 91 52 	call	0xa522	; 0xa522 <__mulsf3>
    6d94:	6b 01       	movw	r12, r22
    6d96:	7c 01       	movw	r14, r24
    6d98:	c5 01       	movw	r24, r10
    6d9a:	b4 01       	movw	r22, r8
    6d9c:	0e 94 05 52 	call	0xa40a	; 0xa40a <__floatsisf>
    6da0:	2a e9       	ldi	r18, 0x9A	; 154
    6da2:	39 e9       	ldi	r19, 0x99	; 153
    6da4:	49 e9       	ldi	r20, 0x99	; 153
    6da6:	5e e3       	ldi	r21, 0x3E	; 62
    6da8:	0e 94 91 52 	call	0xa522	; 0xa522 <__mulsf3>
    6dac:	9b 01       	movw	r18, r22
    6dae:	ac 01       	movw	r20, r24
    6db0:	c7 01       	movw	r24, r14
    6db2:	b6 01       	movw	r22, r12
    6db4:	0e 94 73 51 	call	0xa2e6	; 0xa2e6 <__addsf3>
    6db8:	0e 94 d7 51 	call	0xa3ae	; 0xa3ae <__fixunssfsi>
    6dbc:	60 93 d1 0a 	sts	0x0AD1, r22	; 0x800ad1 <voltageSmooth>
    6dc0:	0f 90       	pop	r0
    6dc2:	0f 90       	pop	r0
    6dc4:	0f 90       	pop	r0
    6dc6:	0f 90       	pop	r0
		Serial.println(secondsForVoltage);
	}
	//--------------------------------------------


	//---- start loop only when voltage is high enough
    6dc8:	80 91 d1 0a 	lds	r24, 0x0AD1	; 0x800ad1 <voltageSmooth>
    6dcc:	87 36       	cpi	r24, 0x67	; 103
    6dce:	08 f4       	brcc	.+2      	; 0x6dd2 <loop+0xe4>
    6dd0:	6b c0       	rjmp	.+214    	; 0x6ea8 <loop+0x1ba>
	if (voltageSmooth > 102) {	// only fire LEDs if voltage is > 10.2V

    6dd2:	4d df       	rcall	.-358    	; 0x6c6e <checkIncomingMIDI()>
		checkIncomingMIDI();
		//checkIncomingMIDITEST(); // macht nur einfache ausgabe der midi commands

		//=== ab hier wird nur alle 25 ms ausgefuehrt ======
    6dd4:	80 91 c8 0a 	lds	r24, 0x0AC8	; 0x800ac8 <flag_processFastLED>
    6dd8:	88 23       	and	r24, r24
    6dda:	29 f1       	breq	.+74     	; 0x6e26 <loop+0x138>
	//@}
#endif

	/// Set the global brightness scaling
	/// @param scale a 0-255 value for how much to scale all leds before writing them out
	void setBrightness(uint8_t scale) { m_Scale = scale; }
    6ddc:	8f e0       	ldi	r24, 0x0F	; 15
    6dde:	80 93 da 10 	sts	0x10DA, r24	; 0x8010da <FastLED>
		if (flag_processFastLED) {	// LED loop only in certain time-slots to make ms-counter more accurate
			
			FastLED.setBrightness(BRIGHTNESS); // zur sicherheit for jedem loop neu auf default setzen. ggf. kann einzelner fx das berschreiben

    6de2:	e0 91 da 0a 	lds	r30, 0x0ADA	; 0x800ada <songID>
    6de6:	e1 50       	subi	r30, 0x01	; 1
    6de8:	e4 31       	cpi	r30, 0x14	; 20
    6dea:	c8 f4       	brcc	.+50     	; 0x6e1e <loop+0x130>
    6dec:	f0 e0       	ldi	r31, 0x00	; 0
    6dee:	e5 50       	subi	r30, 0x05	; 5
    6df0:	f9 4c       	sbci	r31, 0xC9	; 201
    6df2:	0c 94 68 53 	jmp	0xa6d0	; 0xa6d0 <__tablejump2__>
    6df6:	1f 37       	cpi	r17, 0x7F	; 127
    6df8:	22 37       	cpi	r18, 0x72	; 114
    6dfa:	25 37       	cpi	r18, 0x75	; 117
    6dfc:	28 37       	cpi	r18, 0x78	; 120
    6dfe:	2b 37       	cpi	r18, 0x7B	; 123
    6e00:	2e 37       	cpi	r18, 0x7E	; 126
    6e02:	31 37       	cpi	r19, 0x71	; 113
    6e04:	34 37       	cpi	r19, 0x74	; 116
    6e06:	37 37       	cpi	r19, 0x77	; 119
    6e08:	3a 37       	cpi	r19, 0x7A	; 122
    6e0a:	3d 37       	cpi	r19, 0x7D	; 125
    6e0c:	40 37       	cpi	r20, 0x70	; 112
    6e0e:	43 37       	cpi	r20, 0x73	; 115
    6e10:	46 37       	cpi	r20, 0x76	; 118
    6e12:	49 37       	cpi	r20, 0x79	; 121
    6e14:	4c 37       	cpi	r20, 0x7C	; 124
    6e16:	4f 37       	cpi	r20, 0x7F	; 127
    6e18:	52 37       	cpi	r21, 0x72	; 114
    6e1a:	0f 37       	cpi	r16, 0x7F	; 127
			switch (songID) {
			case 0:
    6e1c:	43 37       	cpi	r20, 0x73	; 115
    6e1e:	0e 94 12 1d 	call	0x3a24	; 0x3a24 <defaultLoop()>
				break;

			default:
				defaultLoop();
				break;
			}
    6e22:	10 92 c8 0a 	sts	0x0AC8, r1	; 0x800ac8 <flag_processFastLED>
		delay(500);
		FastLED.setBrightness(BRIGHTNESS);
		leds[0] = CRGB::Red;
		FastLED.show();
		delay(500);
	}
    6e26:	cf 91       	pop	r28
    6e28:	1f 91       	pop	r17
    6e2a:	0f 91       	pop	r16
    6e2c:	ff 90       	pop	r15
    6e2e:	ef 90       	pop	r14
    6e30:	df 90       	pop	r13
    6e32:	cf 90       	pop	r12
    6e34:	bf 90       	pop	r11
    6e36:	af 90       	pop	r10
    6e38:	9f 90       	pop	r9
    6e3a:	8f 90       	pop	r8

			switch (songID) {
			case 0:
				defaultLoop();
				break;
			case 1:
    6e3c:	08 95       	ret
    6e3e:	0e 94 bd 1d 	call	0x3b7a	; 0x3b7a <LearnToFly()>
				LearnToFly();
				break;
			case 2:
    6e42:	ef cf       	rjmp	.-34     	; 0x6e22 <loop+0x134>
    6e44:	0e 94 82 1e 	call	0x3d04	; 0x3d04 <Castle()>
				Castle();
				break;
			case 3:
    6e48:	ec cf       	rjmp	.-40     	; 0x6e22 <loop+0x134>
    6e4a:	0e 94 c9 1f 	call	0x3f92	; 0x3f92 <TooClose()>
				TooClose();
				break;
			case 4:
    6e4e:	e9 cf       	rjmp	.-46     	; 0x6e22 <loop+0x134>
    6e50:	0e 94 a4 20 	call	0x4148	; 0x4148 <Pokerface()>
				Pokerface();
				break;
			case 5:
    6e54:	e6 cf       	rjmp	.-52     	; 0x6e22 <loop+0x134>
    6e56:	0e 94 89 21 	call	0x4312	; 0x4312 <UseSomebody()>
				UseSomebody();
				break;
			case 6:
    6e5a:	e3 cf       	rjmp	.-58     	; 0x6e22 <loop+0x134>
    6e5c:	0e 94 46 22 	call	0x448c	; 0x448c <NoRoots()>
				NoRoots();
				break;
			case 7:
    6e60:	e0 cf       	rjmp	.-64     	; 0x6e22 <loop+0x134>
    6e62:	0e 94 af 23 	call	0x475e	; 0x475e <Firework()>
				Firework();
				break;
			case 8:
    6e66:	dd cf       	rjmp	.-70     	; 0x6e22 <loop+0x134>
    6e68:	0e 94 ed 24 	call	0x49da	; 0x49da <Diamonds()>
				Diamonds();
				break;
			case 9:
    6e6c:	da cf       	rjmp	.-76     	; 0x6e22 <loop+0x134>
    6e6e:	0e 94 b6 25 	call	0x4b6c	; 0x4b6c <SetFire()>
				SetFire();
				break;
			case 10:
    6e72:	d7 cf       	rjmp	.-82     	; 0x6e22 <loop+0x134>
    6e74:	0e 94 94 26 	call	0x4d28	; 0x4d28 <Chandelier()>
				Chandelier();
				break;
			case 11:
    6e78:	d4 cf       	rjmp	.-88     	; 0x6e22 <loop+0x134>
    6e7a:	0e 94 7c 27 	call	0x4ef8	; 0x4ef8 <Titanium()>
				Titanium();
				break;
			case 12:
    6e7e:	d1 cf       	rjmp	.-94     	; 0x6e22 <loop+0x134>
    6e80:	0e 94 5a 28 	call	0x50b4	; 0x50b4 <SomeoneYouLoved()>
				SomeoneYouLoved();
				break;
			case 13:
    6e84:	ce cf       	rjmp	.-100    	; 0x6e22 <loop+0x134>
    6e86:	0e 94 42 29 	call	0x5284	; 0x5284 <ShouldntStop()>
				ShouldntStop();
				break;
			case 14:
    6e8a:	cb cf       	rjmp	.-106    	; 0x6e22 <loop+0x134>
    6e8c:	0e 94 2a 2a 	call	0x5454	; 0x5454 <SunAlwaysShinesOnTV()>
				SunAlwaysShinesOnTV();
				break;
			case 15:
    6e90:	c8 cf       	rjmp	.-112    	; 0x6e22 <loop+0x134>
    6e92:	0e 94 40 2c 	call	0x5880	; 0x5880 <peopleArePeople()>
				peopleArePeople();
				break;
			case 16:
    6e96:	c5 cf       	rjmp	.-118    	; 0x6e22 <loop+0x134>
    6e98:	0e 94 f5 2d 	call	0x5bea	; 0x5bea <enjoyTheSilence()>
				enjoyTheSilence();
				break;
			case 17:
    6e9c:	c2 cf       	rjmp	.-124    	; 0x6e22 <loop+0x134>
    6e9e:	0e 94 40 2f 	call	0x5e80	; 0x5e80 <sober()>
				sober();
				break;
			case 18:
    6ea2:	bf cf       	rjmp	.-130    	; 0x6e22 <loop+0x134>
				prisoner();
    6ea4:	e3 d9       	rcall	.-3130   	; 0x626c <prisoner()>
				break;
			}
			flag_processFastLED = false;
		}
	}
	else {	// if voltage is too low let LED 0 blink red
    6ea6:	bd cf       	rjmp	.-134    	; 0x6e22 <loop+0x134>
    6ea8:	60 e0       	ldi	r22, 0x00	; 0
    6eaa:	8a ed       	ldi	r24, 0xDA	; 218
    6eac:	90 e1       	ldi	r25, 0x10	; 16
    6eae:	0e 94 91 44 	call	0x8922	; 0x8922 <CFastLED::clear(bool)>
		FastLED.clear();
    6eb2:	8a ed       	ldi	r24, 0xDA	; 218
    6eb4:	90 e1       	ldi	r25, 0x10	; 16
    6eb6:	0e 94 97 08 	call	0x112e	; 0x112e <CFastLED::show()>
		FastLED.show();
    6eba:	64 ef       	ldi	r22, 0xF4	; 244
    6ebc:	71 e0       	ldi	r23, 0x01	; 1
    6ebe:	80 e0       	ldi	r24, 0x00	; 0
    6ec0:	90 e0       	ldi	r25, 0x00	; 0
    6ec2:	0e 94 e5 49 	call	0x93ca	; 0x93ca <delay>
    6ec6:	8f e0       	ldi	r24, 0x0F	; 15
    6ec8:	80 93 da 10 	sts	0x10DA, r24	; 0x8010da <FastLED>
    }

    /// allow assignment from 32-bit (really 24-bit) 0xRRGGBB color code
	inline CRGB& operator= (const uint32_t colorcode) __attribute__((always_inline))
    {
        r = (colorcode >> 16) & 0xFF;
    6ecc:	8f ef       	ldi	r24, 0xFF	; 255
    6ece:	80 93 db 0a 	sts	0x0ADB, r24	; 0x800adb <leds>
        g = (colorcode >>  8) & 0xFF;
    6ed2:	10 92 dc 0a 	sts	0x0ADC, r1	; 0x800adc <leds+0x1>
        b = (colorcode >>  0) & 0xFF;
    6ed6:	10 92 dd 0a 	sts	0x0ADD, r1	; 0x800add <leds+0x2>
		delay(500);
		FastLED.setBrightness(BRIGHTNESS);
		leds[0] = CRGB::Red;
    6eda:	8a ed       	ldi	r24, 0xDA	; 218
    6edc:	90 e1       	ldi	r25, 0x10	; 16
    6ede:	0e 94 97 08 	call	0x112e	; 0x112e <CFastLED::show()>
		FastLED.show();
    6ee2:	64 ef       	ldi	r22, 0xF4	; 244
    6ee4:	71 e0       	ldi	r23, 0x01	; 1
    6ee6:	80 e0       	ldi	r24, 0x00	; 0
		delay(500);
	}
    6ee8:	90 e0       	ldi	r25, 0x00	; 0
    6eea:	cf 91       	pop	r28
    6eec:	1f 91       	pop	r17
    6eee:	0f 91       	pop	r16
    6ef0:	ff 90       	pop	r15
    6ef2:	ef 90       	pop	r14
    6ef4:	df 90       	pop	r13
    6ef6:	cf 90       	pop	r12
    6ef8:	bf 90       	pop	r11
    6efa:	af 90       	pop	r10
    6efc:	9f 90       	pop	r9
			}
			break;
		case 8:
			anz = (sizeof(outlinePath9) / sizeof(outlinePath9[0]));
			for (int i = 0; i < anz; i++) {
				int test = outlinePath9[i];
    6efe:	8f 90       	pop	r8
    6f00:	0c 94 e5 49 	jmp	0x93ca	; 0x93ca <delay>

00006f04 <Print::availableForWrite()>:
*/
/**************************************************************************/
void Adafruit_GFX::drawChar(int16_t x, int16_t y, unsigned char c,
  uint16_t color, uint16_t bg, uint8_t size) {
    drawChar(x, y, c, color, bg, size, size);
}
    6f04:	90 e0       	ldi	r25, 0x00	; 0
    6f06:	80 e0       	ldi	r24, 0x00	; 0
    6f08:	08 95       	ret

00006f0a <Print::flush()>:
    6f0a:	08 95       	ret

00006f0c <Adafruit_GFX::writeLine(int, int, int, int, unsigned int)>:
    6f0c:	2f 92       	push	r2
    6f0e:	3f 92       	push	r3
    6f10:	4f 92       	push	r4
    6f12:	5f 92       	push	r5
    6f14:	6f 92       	push	r6
    6f16:	7f 92       	push	r7
    6f18:	8f 92       	push	r8
    6f1a:	9f 92       	push	r9
    6f1c:	af 92       	push	r10
    6f1e:	bf 92       	push	r11
    6f20:	cf 92       	push	r12
    6f22:	df 92       	push	r13
    6f24:	ef 92       	push	r14
    6f26:	ff 92       	push	r15
    6f28:	0f 93       	push	r16
    6f2a:	1f 93       	push	r17
    6f2c:	cf 93       	push	r28
    6f2e:	df 93       	push	r29
    6f30:	00 d0       	rcall	.+0      	; 0x6f32 <Adafruit_GFX::writeLine(int, int, int, int, unsigned int)+0x26>
    6f32:	00 d0       	rcall	.+0      	; 0x6f34 <Adafruit_GFX::writeLine(int, int, int, int, unsigned int)+0x28>
    6f34:	00 d0       	rcall	.+0      	; 0x6f36 <Adafruit_GFX::writeLine(int, int, int, int, unsigned int)+0x2a>
    6f36:	cd b7       	in	r28, 0x3d	; 61
    6f38:	de b7       	in	r29, 0x3e	; 62
    6f3a:	3c 01       	movw	r6, r24
    6f3c:	6a 01       	movw	r12, r20
    6f3e:	3e 83       	std	Y+6, r19	; 0x06
    6f40:	2d 83       	std	Y+5, r18	; 0x05
    6f42:	fc 82       	std	Y+4, r15	; 0x04
    6f44:	eb 82       	std	Y+3, r14	; 0x03
    6f46:	58 01       	movw	r10, r16
    6f48:	a4 1a       	sub	r10, r20
    6f4a:	b5 0a       	sbc	r11, r21
    6f4c:	b7 fe       	sbrs	r11, 7
    6f4e:	03 c0       	rjmp	.+6      	; 0x6f56 <Adafruit_GFX::writeLine(int, int, int, int, unsigned int)+0x4a>
    6f50:	b1 94       	neg	r11
    6f52:	a1 94       	neg	r10
    6f54:	b1 08       	sbc	r11, r1
    6f56:	8d 80       	ldd	r8, Y+5	; 0x05
    6f58:	9e 80       	ldd	r9, Y+6	; 0x06
    6f5a:	86 1a       	sub	r8, r22
    6f5c:	97 0a       	sbc	r9, r23
    6f5e:	97 fe       	sbrs	r9, 7
    6f60:	03 c0       	rjmp	.+6      	; 0x6f68 <Adafruit_GFX::writeLine(int, int, int, int, unsigned int)+0x5c>
    6f62:	91 94       	neg	r9
    6f64:	81 94       	neg	r8
    6f66:	91 08       	sbc	r9, r1
    6f68:	8a 14       	cp	r8, r10
    6f6a:	9b 04       	cpc	r9, r11
    6f6c:	5c f0       	brlt	.+22     	; 0x6f84 <Adafruit_GFX::writeLine(int, int, int, int, unsigned int)+0x78>
    6f6e:	90 2f       	mov	r25, r16
    6f70:	81 2f       	mov	r24, r17
    6f72:	0d 81       	ldd	r16, Y+5	; 0x05
    6f74:	1e 81       	ldd	r17, Y+6	; 0x06
    6f76:	9d 83       	std	Y+5, r25	; 0x05
    6f78:	8e 83       	std	Y+6, r24	; 0x06
    6f7a:	9c 2d       	mov	r25, r12
    6f7c:	8d 2d       	mov	r24, r13
    6f7e:	6b 01       	movw	r12, r22
    6f80:	69 2f       	mov	r22, r25
    6f82:	78 2f       	mov	r23, r24
    6f84:	0c 15       	cp	r16, r12
    6f86:	1d 05       	cpc	r17, r13
    6f88:	5c f0       	brlt	.+22     	; 0x6fa0 <Adafruit_GFX::writeLine(int, int, int, int, unsigned int)+0x94>
    6f8a:	9d 81       	ldd	r25, Y+5	; 0x05
    6f8c:	8e 81       	ldd	r24, Y+6	; 0x06
    6f8e:	7e 83       	std	Y+6, r23	; 0x06
    6f90:	6d 83       	std	Y+5, r22	; 0x05
    6f92:	69 2f       	mov	r22, r25
    6f94:	78 2f       	mov	r23, r24
    6f96:	90 2f       	mov	r25, r16
    6f98:	81 2f       	mov	r24, r17
    6f9a:	86 01       	movw	r16, r12
    6f9c:	c9 2e       	mov	r12, r25
    6f9e:	d8 2e       	mov	r13, r24
    6fa0:	16 01       	movw	r2, r12
    6fa2:	20 1a       	sub	r2, r16
    6fa4:	31 0a       	sbc	r3, r17
    6fa6:	2b 01       	movw	r4, r22
    6fa8:	2d 81       	ldd	r18, Y+5	; 0x05
    6faa:	3e 81       	ldd	r19, Y+6	; 0x06
    6fac:	42 1a       	sub	r4, r18
    6fae:	53 0a       	sbc	r5, r19
    6fb0:	57 fe       	sbrs	r5, 7
    6fb2:	03 c0       	rjmp	.+6      	; 0x6fba <Adafruit_GFX::writeLine(int, int, int, int, unsigned int)+0xae>
    6fb4:	51 94       	neg	r5
    6fb6:	41 94       	neg	r4
    6fb8:	51 08       	sbc	r5, r1
    6fba:	71 01       	movw	r14, r2
    6fbc:	37 fe       	sbrs	r3, 7
    6fbe:	03 c0       	rjmp	.+6      	; 0x6fc6 <Adafruit_GFX::writeLine(int, int, int, int, unsigned int)+0xba>
    6fc0:	3f ef       	ldi	r19, 0xFF	; 255
    6fc2:	e3 1a       	sub	r14, r19
    6fc4:	f3 0a       	sbc	r15, r19
    6fc6:	f5 94       	asr	r15
    6fc8:	e7 94       	ror	r14
    6fca:	8d 81       	ldd	r24, Y+5	; 0x05
    6fcc:	9e 81       	ldd	r25, Y+6	; 0x06
    6fce:	86 17       	cp	r24, r22
    6fd0:	97 07       	cpc	r25, r23
    6fd2:	5c f5       	brge	.+86     	; 0x702a <Adafruit_GFX::writeLine(int, int, int, int, unsigned int)+0x11e>
    6fd4:	a1 e0       	ldi	r26, 0x01	; 1
    6fd6:	b0 e0       	ldi	r27, 0x00	; 0
    6fd8:	ba 83       	std	Y+2, r27	; 0x02
    6fda:	a9 83       	std	Y+1, r26	; 0x01
    6fdc:	c0 16       	cp	r12, r16
    6fde:	d1 06       	cpc	r13, r17
    6fe0:	4c f1       	brlt	.+82     	; 0x7034 <Adafruit_GFX::writeLine(int, int, int, int, unsigned int)+0x128>
    6fe2:	d3 01       	movw	r26, r6
    6fe4:	ed 91       	ld	r30, X+
    6fe6:	fc 91       	ld	r31, X
    6fe8:	04 84       	ldd	r0, Z+12	; 0x0c
    6fea:	f5 85       	ldd	r31, Z+13	; 0x0d
    6fec:	e0 2d       	mov	r30, r0
    6fee:	2b 81       	ldd	r18, Y+3	; 0x03
    6ff0:	3c 81       	ldd	r19, Y+4	; 0x04
    6ff2:	a8 01       	movw	r20, r16
    6ff4:	6d 81       	ldd	r22, Y+5	; 0x05
    6ff6:	7e 81       	ldd	r23, Y+6	; 0x06
    6ff8:	8a 14       	cp	r8, r10
    6ffa:	9b 04       	cpc	r9, r11
    6ffc:	1c f0       	brlt	.+6      	; 0x7004 <Adafruit_GFX::writeLine(int, int, int, int, unsigned int)+0xf8>
    6ffe:	4d 81       	ldd	r20, Y+5	; 0x05
    7000:	5e 81       	ldd	r21, Y+6	; 0x06
    7002:	b8 01       	movw	r22, r16
    7004:	c3 01       	movw	r24, r6
    7006:	09 95       	icall
    7008:	e4 18       	sub	r14, r4
    700a:	f5 08       	sbc	r15, r5
    700c:	f7 fe       	sbrs	r15, 7
    700e:	0a c0       	rjmp	.+20     	; 0x7024 <Adafruit_GFX::writeLine(int, int, int, int, unsigned int)+0x118>
    7010:	2d 81       	ldd	r18, Y+5	; 0x05
    7012:	3e 81       	ldd	r19, Y+6	; 0x06
    7014:	89 81       	ldd	r24, Y+1	; 0x01
    7016:	9a 81       	ldd	r25, Y+2	; 0x02
    7018:	28 0f       	add	r18, r24
    701a:	39 1f       	adc	r19, r25
    701c:	3e 83       	std	Y+6, r19	; 0x06
    701e:	2d 83       	std	Y+5, r18	; 0x05
    7020:	e2 0c       	add	r14, r2
    7022:	f3 1c       	adc	r15, r3
    7024:	0f 5f       	subi	r16, 0xFF	; 255
    7026:	1f 4f       	sbci	r17, 0xFF	; 255
    7028:	d9 cf       	rjmp	.-78     	; 0x6fdc <Adafruit_GFX::writeLine(int, int, int, int, unsigned int)+0xd0>
    702a:	2f ef       	ldi	r18, 0xFF	; 255
    702c:	3f ef       	ldi	r19, 0xFF	; 255
    702e:	3a 83       	std	Y+2, r19	; 0x02
    7030:	29 83       	std	Y+1, r18	; 0x01
    7032:	d4 cf       	rjmp	.-88     	; 0x6fdc <Adafruit_GFX::writeLine(int, int, int, int, unsigned int)+0xd0>
    7034:	26 96       	adiw	r28, 0x06	; 6
    7036:	0f b6       	in	r0, 0x3f	; 63
    7038:	f8 94       	cli
    703a:	de bf       	out	0x3e, r29	; 62
    703c:	0f be       	out	0x3f, r0	; 63
    703e:	cd bf       	out	0x3d, r28	; 61
    7040:	df 91       	pop	r29
    7042:	cf 91       	pop	r28
    7044:	1f 91       	pop	r17
    7046:	0f 91       	pop	r16
    7048:	ff 90       	pop	r15
    704a:	ef 90       	pop	r14
    704c:	df 90       	pop	r13
    704e:	cf 90       	pop	r12
    7050:	bf 90       	pop	r11
    7052:	af 90       	pop	r10
    7054:	9f 90       	pop	r9
    7056:	8f 90       	pop	r8
    7058:	7f 90       	pop	r7
    705a:	6f 90       	pop	r6
    705c:	5f 90       	pop	r5
    705e:	4f 90       	pop	r4
    7060:	3f 90       	pop	r3
    7062:	2f 90       	pop	r2
    7064:	08 95       	ret

00007066 <Adafruit_GFX::startWrite()>:
    7066:	08 95       	ret

00007068 <Adafruit_GFX::writePixel(int, int, unsigned int)>:
    7068:	dc 01       	movw	r26, r24
    706a:	ed 91       	ld	r30, X+
    706c:	fc 91       	ld	r31, X
    706e:	00 84       	ldd	r0, Z+8	; 0x08
    7070:	f1 85       	ldd	r31, Z+9	; 0x09
    7072:	e0 2d       	mov	r30, r0
    7074:	09 94       	ijmp

00007076 <Adafruit_GFX::writeFastVLine(int, int, int, unsigned int)>:
    7076:	0f 93       	push	r16
    7078:	1f 93       	push	r17
    707a:	dc 01       	movw	r26, r24
    707c:	ed 91       	ld	r30, X+
    707e:	fc 91       	ld	r31, X
    7080:	04 8c       	ldd	r0, Z+28	; 0x1c
    7082:	f5 8d       	ldd	r31, Z+29	; 0x1d
    7084:	e0 2d       	mov	r30, r0
    7086:	09 95       	icall
    7088:	1f 91       	pop	r17
    708a:	0f 91       	pop	r16
    708c:	08 95       	ret

0000708e <Adafruit_GFX::writeFastHLine(int, int, int, unsigned int)>:
    708e:	0f 93       	push	r16
    7090:	1f 93       	push	r17
    7092:	dc 01       	movw	r26, r24
    7094:	ed 91       	ld	r30, X+
    7096:	fc 91       	ld	r31, X
    7098:	06 8c       	ldd	r0, Z+30	; 0x1e
    709a:	f7 8d       	ldd	r31, Z+31	; 0x1f
    709c:	e0 2d       	mov	r30, r0
    709e:	09 95       	icall
    70a0:	1f 91       	pop	r17
    70a2:	0f 91       	pop	r16
    70a4:	08 95       	ret

000070a6 <Adafruit_GFX::writeFillRect(int, int, int, int, unsigned int)>:
    70a6:	ef 92       	push	r14
    70a8:	ff 92       	push	r15
    70aa:	0f 93       	push	r16
    70ac:	1f 93       	push	r17
    70ae:	dc 01       	movw	r26, r24
    70b0:	ed 91       	ld	r30, X+
    70b2:	fc 91       	ld	r31, X
    70b4:	00 a0       	ldd	r0, Z+32	; 0x20
    70b6:	f1 a1       	ldd	r31, Z+33	; 0x21
    70b8:	e0 2d       	mov	r30, r0
    70ba:	09 95       	icall
    70bc:	1f 91       	pop	r17
    70be:	0f 91       	pop	r16
    70c0:	ff 90       	pop	r15
    70c2:	ef 90       	pop	r14
    70c4:	08 95       	ret

000070c6 <Adafruit_GFX::drawFastVLine(int, int, int, unsigned int)>:
    70c6:	8f 92       	push	r8
    70c8:	9f 92       	push	r9
    70ca:	af 92       	push	r10
    70cc:	bf 92       	push	r11
    70ce:	cf 92       	push	r12
    70d0:	df 92       	push	r13
    70d2:	ef 92       	push	r14
    70d4:	ff 92       	push	r15
    70d6:	0f 93       	push	r16
    70d8:	1f 93       	push	r17
    70da:	cf 93       	push	r28
    70dc:	df 93       	push	r29
    70de:	ec 01       	movw	r28, r24
    70e0:	5b 01       	movw	r10, r22
    70e2:	4a 01       	movw	r8, r20
    70e4:	69 01       	movw	r12, r18
    70e6:	78 01       	movw	r14, r16
    70e8:	e8 81       	ld	r30, Y
    70ea:	f9 81       	ldd	r31, Y+1	; 0x01
    70ec:	02 84       	ldd	r0, Z+10	; 0x0a
    70ee:	f3 85       	ldd	r31, Z+11	; 0x0b
    70f0:	e0 2d       	mov	r30, r0
    70f2:	09 95       	icall
    70f4:	c8 0c       	add	r12, r8
    70f6:	d9 1c       	adc	r13, r9
    70f8:	86 01       	movw	r16, r12
    70fa:	01 50       	subi	r16, 0x01	; 1
    70fc:	11 09       	sbc	r17, r1
    70fe:	e8 81       	ld	r30, Y
    7100:	f9 81       	ldd	r31, Y+1	; 0x01
    7102:	04 88       	ldd	r0, Z+20	; 0x14
    7104:	f5 89       	ldd	r31, Z+21	; 0x15
    7106:	e0 2d       	mov	r30, r0
    7108:	95 01       	movw	r18, r10
    710a:	a4 01       	movw	r20, r8
    710c:	b5 01       	movw	r22, r10
    710e:	ce 01       	movw	r24, r28
    7110:	09 95       	icall
    7112:	e8 81       	ld	r30, Y
    7114:	f9 81       	ldd	r31, Y+1	; 0x01
    7116:	06 88       	ldd	r0, Z+22	; 0x16
    7118:	f7 89       	ldd	r31, Z+23	; 0x17
    711a:	e0 2d       	mov	r30, r0
    711c:	ce 01       	movw	r24, r28
    711e:	df 91       	pop	r29
    7120:	cf 91       	pop	r28
    7122:	1f 91       	pop	r17
    7124:	0f 91       	pop	r16
    7126:	ff 90       	pop	r15
    7128:	ef 90       	pop	r14
    712a:	df 90       	pop	r13
    712c:	cf 90       	pop	r12
    712e:	bf 90       	pop	r11
    7130:	af 90       	pop	r10
    7132:	9f 90       	pop	r9
    7134:	8f 90       	pop	r8
    7136:	09 94       	ijmp

00007138 <Adafruit_GFX::drawFastHLine(int, int, int, unsigned int)>:
    7138:	8f 92       	push	r8
    713a:	9f 92       	push	r9
    713c:	af 92       	push	r10
    713e:	bf 92       	push	r11
    7140:	cf 92       	push	r12
    7142:	df 92       	push	r13
    7144:	ef 92       	push	r14
    7146:	ff 92       	push	r15
    7148:	0f 93       	push	r16
    714a:	1f 93       	push	r17
    714c:	cf 93       	push	r28
    714e:	df 93       	push	r29
    7150:	ec 01       	movw	r28, r24
    7152:	5b 01       	movw	r10, r22
    7154:	4a 01       	movw	r8, r20
    7156:	69 01       	movw	r12, r18
    7158:	e8 81       	ld	r30, Y
    715a:	f9 81       	ldd	r31, Y+1	; 0x01
    715c:	02 84       	ldd	r0, Z+10	; 0x0a
    715e:	f3 85       	ldd	r31, Z+11	; 0x0b
    7160:	e0 2d       	mov	r30, r0
    7162:	09 95       	icall
    7164:	95 01       	movw	r18, r10
    7166:	2c 0d       	add	r18, r12
    7168:	3d 1d       	adc	r19, r13
    716a:	21 50       	subi	r18, 0x01	; 1
    716c:	31 09       	sbc	r19, r1
    716e:	e8 81       	ld	r30, Y
    7170:	f9 81       	ldd	r31, Y+1	; 0x01
    7172:	04 88       	ldd	r0, Z+20	; 0x14
    7174:	f5 89       	ldd	r31, Z+21	; 0x15
    7176:	e0 2d       	mov	r30, r0
    7178:	78 01       	movw	r14, r16
    717a:	84 01       	movw	r16, r8
    717c:	a4 01       	movw	r20, r8
    717e:	b5 01       	movw	r22, r10
    7180:	ce 01       	movw	r24, r28
    7182:	09 95       	icall
    7184:	e8 81       	ld	r30, Y
    7186:	f9 81       	ldd	r31, Y+1	; 0x01
    7188:	06 88       	ldd	r0, Z+22	; 0x16
    718a:	f7 89       	ldd	r31, Z+23	; 0x17
    718c:	e0 2d       	mov	r30, r0
    718e:	ce 01       	movw	r24, r28
    7190:	df 91       	pop	r29
    7192:	cf 91       	pop	r28
    7194:	1f 91       	pop	r17
    7196:	0f 91       	pop	r16
    7198:	ff 90       	pop	r15
    719a:	ef 90       	pop	r14
    719c:	df 90       	pop	r13
    719e:	cf 90       	pop	r12
    71a0:	bf 90       	pop	r11
    71a2:	af 90       	pop	r10
    71a4:	9f 90       	pop	r9
    71a6:	8f 90       	pop	r8
    71a8:	09 94       	ijmp

000071aa <Adafruit_GFX::fillRect(int, int, int, int, unsigned int)>:
    71aa:	4f 92       	push	r4
    71ac:	5f 92       	push	r5
    71ae:	6f 92       	push	r6
    71b0:	7f 92       	push	r7
    71b2:	8f 92       	push	r8
    71b4:	9f 92       	push	r9
    71b6:	af 92       	push	r10
    71b8:	bf 92       	push	r11
    71ba:	cf 92       	push	r12
    71bc:	df 92       	push	r13
    71be:	ef 92       	push	r14
    71c0:	ff 92       	push	r15
    71c2:	0f 93       	push	r16
    71c4:	1f 93       	push	r17
    71c6:	cf 93       	push	r28
    71c8:	df 93       	push	r29
    71ca:	6c 01       	movw	r12, r24
    71cc:	2b 01       	movw	r4, r22
    71ce:	5a 01       	movw	r10, r20
    71d0:	39 01       	movw	r6, r18
    71d2:	48 01       	movw	r8, r16
    71d4:	dc 01       	movw	r26, r24
    71d6:	ed 91       	ld	r30, X+
    71d8:	fc 91       	ld	r31, X
    71da:	02 84       	ldd	r0, Z+10	; 0x0a
    71dc:	f3 85       	ldd	r31, Z+11	; 0x0b
    71de:	e0 2d       	mov	r30, r0
    71e0:	09 95       	icall
    71e2:	e2 01       	movw	r28, r4
    71e4:	64 0c       	add	r6, r4
    71e6:	75 1c       	adc	r7, r5
    71e8:	d6 01       	movw	r26, r12
    71ea:	ed 91       	ld	r30, X+
    71ec:	fc 91       	ld	r31, X
    71ee:	c6 15       	cp	r28, r6
    71f0:	d7 05       	cpc	r29, r7
    71f2:	5c f4       	brge	.+22     	; 0x720a <Adafruit_GFX::fillRect(int, int, int, int, unsigned int)+0x60>
    71f4:	00 88       	ldd	r0, Z+16	; 0x10
    71f6:	f1 89       	ldd	r31, Z+17	; 0x11
    71f8:	e0 2d       	mov	r30, r0
    71fa:	87 01       	movw	r16, r14
    71fc:	94 01       	movw	r18, r8
    71fe:	a5 01       	movw	r20, r10
    7200:	be 01       	movw	r22, r28
    7202:	c6 01       	movw	r24, r12
    7204:	09 95       	icall
    7206:	21 96       	adiw	r28, 0x01	; 1
    7208:	ef cf       	rjmp	.-34     	; 0x71e8 <Adafruit_GFX::fillRect(int, int, int, int, unsigned int)+0x3e>
    720a:	06 88       	ldd	r0, Z+22	; 0x16
    720c:	f7 89       	ldd	r31, Z+23	; 0x17
    720e:	e0 2d       	mov	r30, r0
    7210:	c6 01       	movw	r24, r12
    7212:	df 91       	pop	r29
    7214:	cf 91       	pop	r28
    7216:	1f 91       	pop	r17
    7218:	0f 91       	pop	r16
    721a:	ff 90       	pop	r15
    721c:	ef 90       	pop	r14
    721e:	df 90       	pop	r13
    7220:	cf 90       	pop	r12
    7222:	bf 90       	pop	r11
    7224:	af 90       	pop	r10
    7226:	9f 90       	pop	r9
    7228:	8f 90       	pop	r8
    722a:	7f 90       	pop	r7
    722c:	6f 90       	pop	r6
    722e:	5f 90       	pop	r5
    7230:	4f 90       	pop	r4
    7232:	09 94       	ijmp

00007234 <Adafruit_GFX::fillScreen(unsigned int)>:
    7234:	ef 92       	push	r14
    7236:	ff 92       	push	r15
    7238:	0f 93       	push	r16
    723a:	1f 93       	push	r17
    723c:	dc 01       	movw	r26, r24
    723e:	19 96       	adiw	r26, 0x09	; 9
    7240:	0d 91       	ld	r16, X+
    7242:	1c 91       	ld	r17, X
    7244:	1a 97       	sbiw	r26, 0x0a	; 10
    7246:	17 96       	adiw	r26, 0x07	; 7
    7248:	2d 91       	ld	r18, X+
    724a:	3c 91       	ld	r19, X
    724c:	18 97       	sbiw	r26, 0x08	; 8
    724e:	ed 91       	ld	r30, X+
    7250:	fc 91       	ld	r31, X
    7252:	00 a0       	ldd	r0, Z+32	; 0x20
    7254:	f1 a1       	ldd	r31, Z+33	; 0x21
    7256:	e0 2d       	mov	r30, r0
    7258:	7b 01       	movw	r14, r22
    725a:	50 e0       	ldi	r21, 0x00	; 0
    725c:	40 e0       	ldi	r20, 0x00	; 0
    725e:	70 e0       	ldi	r23, 0x00	; 0
    7260:	60 e0       	ldi	r22, 0x00	; 0
    7262:	09 95       	icall
    7264:	1f 91       	pop	r17
    7266:	0f 91       	pop	r16
    7268:	ff 90       	pop	r15
    726a:	ef 90       	pop	r14
    726c:	08 95       	ret

0000726e <Adafruit_GFX::drawRect(int, int, int, int, unsigned int)>:
    726e:	6f 92       	push	r6
    7270:	7f 92       	push	r7
    7272:	8f 92       	push	r8
    7274:	9f 92       	push	r9
    7276:	af 92       	push	r10
    7278:	bf 92       	push	r11
    727a:	cf 92       	push	r12
    727c:	df 92       	push	r13
    727e:	ef 92       	push	r14
    7280:	ff 92       	push	r15
    7282:	0f 93       	push	r16
    7284:	1f 93       	push	r17
    7286:	cf 93       	push	r28
    7288:	df 93       	push	r29
    728a:	ec 01       	movw	r28, r24
    728c:	6b 01       	movw	r12, r22
    728e:	5a 01       	movw	r10, r20
    7290:	39 01       	movw	r6, r18
    7292:	48 01       	movw	r8, r16
    7294:	e8 81       	ld	r30, Y
    7296:	f9 81       	ldd	r31, Y+1	; 0x01
    7298:	02 84       	ldd	r0, Z+10	; 0x0a
    729a:	f3 85       	ldd	r31, Z+11	; 0x0b
    729c:	e0 2d       	mov	r30, r0
    729e:	09 95       	icall
    72a0:	e8 81       	ld	r30, Y
    72a2:	f9 81       	ldd	r31, Y+1	; 0x01
    72a4:	02 88       	ldd	r0, Z+18	; 0x12
    72a6:	f3 89       	ldd	r31, Z+19	; 0x13
    72a8:	e0 2d       	mov	r30, r0
    72aa:	87 01       	movw	r16, r14
    72ac:	93 01       	movw	r18, r6
    72ae:	a5 01       	movw	r20, r10
    72b0:	b6 01       	movw	r22, r12
    72b2:	ce 01       	movw	r24, r28
    72b4:	09 95       	icall
    72b6:	a5 01       	movw	r20, r10
    72b8:	48 0d       	add	r20, r8
    72ba:	59 1d       	adc	r21, r9
    72bc:	41 50       	subi	r20, 0x01	; 1
    72be:	51 09       	sbc	r21, r1
    72c0:	e8 81       	ld	r30, Y
    72c2:	f9 81       	ldd	r31, Y+1	; 0x01
    72c4:	02 88       	ldd	r0, Z+18	; 0x12
    72c6:	f3 89       	ldd	r31, Z+19	; 0x13
    72c8:	e0 2d       	mov	r30, r0
    72ca:	93 01       	movw	r18, r6
    72cc:	b6 01       	movw	r22, r12
    72ce:	ce 01       	movw	r24, r28
    72d0:	09 95       	icall
    72d2:	e8 81       	ld	r30, Y
    72d4:	f9 81       	ldd	r31, Y+1	; 0x01
    72d6:	00 88       	ldd	r0, Z+16	; 0x10
    72d8:	f1 89       	ldd	r31, Z+17	; 0x11
    72da:	e0 2d       	mov	r30, r0
    72dc:	94 01       	movw	r18, r8
    72de:	a5 01       	movw	r20, r10
    72e0:	b6 01       	movw	r22, r12
    72e2:	ce 01       	movw	r24, r28
    72e4:	09 95       	icall
    72e6:	c6 0c       	add	r12, r6
    72e8:	d7 1c       	adc	r13, r7
    72ea:	b6 01       	movw	r22, r12
    72ec:	61 50       	subi	r22, 0x01	; 1
    72ee:	71 09       	sbc	r23, r1
    72f0:	e8 81       	ld	r30, Y
    72f2:	f9 81       	ldd	r31, Y+1	; 0x01
    72f4:	00 88       	ldd	r0, Z+16	; 0x10
    72f6:	f1 89       	ldd	r31, Z+17	; 0x11
    72f8:	e0 2d       	mov	r30, r0
    72fa:	94 01       	movw	r18, r8
    72fc:	a5 01       	movw	r20, r10
    72fe:	ce 01       	movw	r24, r28
    7300:	09 95       	icall
    7302:	e8 81       	ld	r30, Y
    7304:	f9 81       	ldd	r31, Y+1	; 0x01
    7306:	06 88       	ldd	r0, Z+22	; 0x16
    7308:	f7 89       	ldd	r31, Z+23	; 0x17
    730a:	e0 2d       	mov	r30, r0
    730c:	ce 01       	movw	r24, r28
    730e:	df 91       	pop	r29
    7310:	cf 91       	pop	r28
    7312:	1f 91       	pop	r17
    7314:	0f 91       	pop	r16
    7316:	ff 90       	pop	r15
    7318:	ef 90       	pop	r14
    731a:	df 90       	pop	r13
    731c:	cf 90       	pop	r12
    731e:	bf 90       	pop	r11
    7320:	af 90       	pop	r10
    7322:	9f 90       	pop	r9
    7324:	8f 90       	pop	r8
    7326:	7f 90       	pop	r7
    7328:	6f 90       	pop	r6
    732a:	09 94       	ijmp

0000732c <Adafruit_GFX::invertDisplay(bool)>:
    732c:	08 95       	ret

0000732e <Adafruit_GFX::drawLine(int, int, int, int, unsigned int)>:
    732e:	6f 92       	push	r6
    7330:	7f 92       	push	r7
    7332:	8f 92       	push	r8
    7334:	9f 92       	push	r9
    7336:	af 92       	push	r10
    7338:	bf 92       	push	r11
    733a:	cf 92       	push	r12
    733c:	df 92       	push	r13
    733e:	ef 92       	push	r14
    7340:	ff 92       	push	r15
    7342:	0f 93       	push	r16
    7344:	1f 93       	push	r17
    7346:	cf 93       	push	r28
    7348:	df 93       	push	r29
    734a:	5c 01       	movw	r10, r24
    734c:	eb 01       	movw	r28, r22
    734e:	6a 01       	movw	r12, r20
    7350:	49 01       	movw	r8, r18
    7352:	38 01       	movw	r6, r16
    7354:	87 01       	movw	r16, r14
    7356:	dc 01       	movw	r26, r24
    7358:	ed 91       	ld	r30, X+
    735a:	fc 91       	ld	r31, X
    735c:	62 17       	cp	r22, r18
    735e:	73 07       	cpc	r23, r19
    7360:	19 f5       	brne	.+70     	; 0x73a8 <Adafruit_GFX::drawLine(int, int, int, int, unsigned int)+0x7a>
    7362:	64 16       	cp	r6, r20
    7364:	75 06       	cpc	r7, r21
    7366:	2c f0       	brlt	.+10     	; 0x7372 <Adafruit_GFX::drawLine(int, int, int, int, unsigned int)+0x44>
    7368:	96 2d       	mov	r25, r6
    736a:	87 2d       	mov	r24, r7
    736c:	3a 01       	movw	r6, r20
    736e:	c9 2e       	mov	r12, r25
    7370:	d8 2e       	mov	r13, r24
    7372:	96 01       	movw	r18, r12
    7374:	26 19       	sub	r18, r6
    7376:	37 09       	sbc	r19, r7
    7378:	2f 5f       	subi	r18, 0xFF	; 255
    737a:	3f 4f       	sbci	r19, 0xFF	; 255
    737c:	04 8c       	ldd	r0, Z+28	; 0x1c
    737e:	f5 8d       	ldd	r31, Z+29	; 0x1d
    7380:	e0 2d       	mov	r30, r0
    7382:	a3 01       	movw	r20, r6
    7384:	be 01       	movw	r22, r28
    7386:	c5 01       	movw	r24, r10
    7388:	09 95       	icall
    738a:	df 91       	pop	r29
    738c:	cf 91       	pop	r28
    738e:	1f 91       	pop	r17
    7390:	0f 91       	pop	r16
    7392:	ff 90       	pop	r15
    7394:	ef 90       	pop	r14
    7396:	df 90       	pop	r13
    7398:	cf 90       	pop	r12
    739a:	bf 90       	pop	r11
    739c:	af 90       	pop	r10
    739e:	9f 90       	pop	r9
    73a0:	8f 90       	pop	r8
    73a2:	7f 90       	pop	r7
    73a4:	6f 90       	pop	r6
    73a6:	08 95       	ret
    73a8:	46 15       	cp	r20, r6
    73aa:	57 05       	cpc	r21, r7
    73ac:	91 f4       	brne	.+36     	; 0x73d2 <Adafruit_GFX::drawLine(int, int, int, int, unsigned int)+0xa4>
    73ae:	26 17       	cp	r18, r22
    73b0:	37 07       	cpc	r19, r23
    73b2:	24 f0       	brlt	.+8      	; 0x73bc <Adafruit_GFX::drawLine(int, int, int, int, unsigned int)+0x8e>
    73b4:	89 2d       	mov	r24, r9
    73b6:	4b 01       	movw	r8, r22
    73b8:	c2 2f       	mov	r28, r18
    73ba:	d8 2f       	mov	r29, r24
    73bc:	9e 01       	movw	r18, r28
    73be:	28 19       	sub	r18, r8
    73c0:	39 09       	sbc	r19, r9
    73c2:	2f 5f       	subi	r18, 0xFF	; 255
    73c4:	3f 4f       	sbci	r19, 0xFF	; 255
    73c6:	06 8c       	ldd	r0, Z+30	; 0x1e
    73c8:	f7 8d       	ldd	r31, Z+31	; 0x1f
    73ca:	e0 2d       	mov	r30, r0
    73cc:	a6 01       	movw	r20, r12
    73ce:	b4 01       	movw	r22, r8
    73d0:	da cf       	rjmp	.-76     	; 0x7386 <Adafruit_GFX::drawLine(int, int, int, int, unsigned int)+0x58>
    73d2:	02 84       	ldd	r0, Z+10	; 0x0a
    73d4:	f3 85       	ldd	r31, Z+11	; 0x0b
    73d6:	e0 2d       	mov	r30, r0
    73d8:	09 95       	icall
    73da:	d5 01       	movw	r26, r10
    73dc:	ed 91       	ld	r30, X+
    73de:	fc 91       	ld	r31, X
    73e0:	04 88       	ldd	r0, Z+20	; 0x14
    73e2:	f5 89       	ldd	r31, Z+21	; 0x15
    73e4:	e0 2d       	mov	r30, r0
    73e6:	83 01       	movw	r16, r6
    73e8:	94 01       	movw	r18, r8
    73ea:	a6 01       	movw	r20, r12
    73ec:	be 01       	movw	r22, r28
    73ee:	c5 01       	movw	r24, r10
    73f0:	09 95       	icall
    73f2:	d5 01       	movw	r26, r10
    73f4:	ed 91       	ld	r30, X+
    73f6:	fc 91       	ld	r31, X
    73f8:	06 88       	ldd	r0, Z+22	; 0x16
    73fa:	f7 89       	ldd	r31, Z+23	; 0x17
    73fc:	e0 2d       	mov	r30, r0
    73fe:	c5 01       	movw	r24, r10
    7400:	df 91       	pop	r29
    7402:	cf 91       	pop	r28
    7404:	1f 91       	pop	r17
    7406:	0f 91       	pop	r16
    7408:	ff 90       	pop	r15
    740a:	ef 90       	pop	r14
    740c:	df 90       	pop	r13
    740e:	cf 90       	pop	r12
    7410:	bf 90       	pop	r11
    7412:	af 90       	pop	r10
    7414:	9f 90       	pop	r9
    7416:	8f 90       	pop	r8
    7418:	7f 90       	pop	r7
    741a:	6f 90       	pop	r6
    741c:	09 94       	ijmp

0000741e <Adafruit_GFX::setRotation(unsigned char)>:
    741e:	fc 01       	movw	r30, r24
    7420:	63 70       	andi	r22, 0x03	; 3
    7422:	65 8b       	std	Z+21, r22	; 0x15
    7424:	83 81       	ldd	r24, Z+3	; 0x03
    7426:	94 81       	ldd	r25, Z+4	; 0x04
    7428:	25 81       	ldd	r18, Z+5	; 0x05
    742a:	36 81       	ldd	r19, Z+6	; 0x06
    742c:	61 30       	cpi	r22, 0x01	; 1
    742e:	39 f0       	breq	.+14     	; 0x743e <Adafruit_GFX::setRotation(unsigned char)+0x20>
    7430:	63 30       	cpi	r22, 0x03	; 3
    7432:	29 f0       	breq	.+10     	; 0x743e <Adafruit_GFX::setRotation(unsigned char)+0x20>
    7434:	90 87       	std	Z+8, r25	; 0x08
    7436:	87 83       	std	Z+7, r24	; 0x07
    7438:	32 87       	std	Z+10, r19	; 0x0a
    743a:	21 87       	std	Z+9, r18	; 0x09
    743c:	08 95       	ret
    743e:	30 87       	std	Z+8, r19	; 0x08
    7440:	27 83       	std	Z+7, r18	; 0x07
    7442:	92 87       	std	Z+10, r25	; 0x0a
    7444:	81 87       	std	Z+9, r24	; 0x09
    7446:	08 95       	ret

00007448 <Adafruit_GFX::Adafruit_GFX(int, int)>:
    7448:	fc 01       	movw	r30, r24
    744a:	12 82       	std	Z+2, r1	; 0x02
    744c:	87 e0       	ldi	r24, 0x07	; 7
    744e:	99 e0       	ldi	r25, 0x09	; 9
    7450:	91 83       	std	Z+1, r25	; 0x01
    7452:	80 83       	st	Z, r24
    7454:	74 83       	std	Z+4, r23	; 0x04
    7456:	63 83       	std	Z+3, r22	; 0x03
    7458:	56 83       	std	Z+6, r21	; 0x06
    745a:	45 83       	std	Z+5, r20	; 0x05
    745c:	70 87       	std	Z+8, r23	; 0x08
    745e:	67 83       	std	Z+7, r22	; 0x07
    7460:	52 87       	std	Z+10, r21	; 0x0a
    7462:	41 87       	std	Z+9, r20	; 0x09
    7464:	15 8a       	std	Z+21, r1	; 0x15
    7466:	14 86       	std	Z+12, r1	; 0x0c
    7468:	13 86       	std	Z+11, r1	; 0x0b
    746a:	16 86       	std	Z+14, r1	; 0x0e
    746c:	15 86       	std	Z+13, r1	; 0x0d
    746e:	81 e0       	ldi	r24, 0x01	; 1
    7470:	84 8b       	std	Z+20, r24	; 0x14
    7472:	83 8b       	std	Z+19, r24	; 0x13
    7474:	2f ef       	ldi	r18, 0xFF	; 255
    7476:	3f ef       	ldi	r19, 0xFF	; 255
    7478:	32 8b       	std	Z+18, r19	; 0x12
    747a:	21 8b       	std	Z+17, r18	; 0x11
    747c:	30 8b       	std	Z+16, r19	; 0x10
    747e:	27 87       	std	Z+15, r18	; 0x0f
    7480:	86 8b       	std	Z+22, r24	; 0x16
    7482:	17 8a       	std	Z+23, r1	; 0x17
    7484:	11 8e       	std	Z+25, r1	; 0x19
    7486:	10 8e       	std	Z+24, r1	; 0x18
    7488:	08 95       	ret

0000748a <Adafruit_GFX::fillCircleHelper(int, int, int, unsigned char, int, unsigned int)>:
    748a:	2f 92       	push	r2
    748c:	3f 92       	push	r3
    748e:	4f 92       	push	r4
    7490:	5f 92       	push	r5
    7492:	6f 92       	push	r6
    7494:	7f 92       	push	r7
    7496:	8f 92       	push	r8
    7498:	9f 92       	push	r9
    749a:	af 92       	push	r10
    749c:	bf 92       	push	r11
    749e:	cf 92       	push	r12
    74a0:	df 92       	push	r13
    74a2:	ef 92       	push	r14
    74a4:	ff 92       	push	r15
    74a6:	0f 93       	push	r16
    74a8:	1f 93       	push	r17
    74aa:	cf 93       	push	r28
    74ac:	df 93       	push	r29
    74ae:	cd b7       	in	r28, 0x3d	; 61
    74b0:	de b7       	in	r29, 0x3e	; 62
    74b2:	2e 97       	sbiw	r28, 0x0e	; 14
    74b4:	0f b6       	in	r0, 0x3f	; 63
    74b6:	f8 94       	cli
    74b8:	de bf       	out	0x3e, r29	; 62
    74ba:	0f be       	out	0x3f, r0	; 63
    74bc:	cd bf       	out	0x3d, r28	; 61
    74be:	5c 01       	movw	r10, r24
    74c0:	2b 01       	movw	r4, r22
    74c2:	5c 83       	std	Y+4, r21	; 0x04
    74c4:	4b 83       	std	Y+3, r20	; 0x03
    74c6:	3e 87       	std	Y+14, r19	; 0x0e
    74c8:	2d 87       	std	Y+13, r18	; 0x0d
    74ca:	fe 82       	std	Y+6, r15	; 0x06
    74cc:	ed 82       	std	Y+5, r14	; 0x05
    74ce:	16 01       	movw	r2, r12
    74d0:	81 e0       	ldi	r24, 0x01	; 1
    74d2:	90 e0       	ldi	r25, 0x00	; 0
    74d4:	4c 01       	movw	r8, r24
    74d6:	82 1a       	sub	r8, r18
    74d8:	93 0a       	sbc	r9, r19
    74da:	c9 01       	movw	r24, r18
    74dc:	91 95       	neg	r25
    74de:	81 95       	neg	r24
    74e0:	91 09       	sbc	r25, r1
    74e2:	9c 01       	movw	r18, r24
    74e4:	22 0f       	add	r18, r18
    74e6:	33 1f       	adc	r19, r19
    74e8:	3a 83       	std	Y+2, r19	; 0x02
    74ea:	29 83       	std	Y+1, r18	; 0x01
    74ec:	c7 01       	movw	r24, r14
    74ee:	01 96       	adiw	r24, 0x01	; 1
    74f0:	98 87       	std	Y+8, r25	; 0x08
    74f2:	8f 83       	std	Y+7, r24	; 0x07
    74f4:	f1 2c       	mov	r15, r1
    74f6:	e1 2c       	mov	r14, r1
    74f8:	66 24       	eor	r6, r6
    74fa:	63 94       	inc	r6
    74fc:	71 2c       	mov	r7, r1
    74fe:	90 2f       	mov	r25, r16
    7500:	91 70       	andi	r25, 0x01	; 1
    7502:	99 87       	std	Y+9, r25	; 0x09
    7504:	02 70       	andi	r16, 0x02	; 2
    7506:	0a 87       	std	Y+10, r16	; 0x0a
    7508:	da 01       	movw	r26, r20
    750a:	11 96       	adiw	r26, 0x01	; 1
    750c:	bc 87       	std	Y+12, r27	; 0x0c
    750e:	ab 87       	std	Y+11, r26	; 0x0b
    7510:	2d 85       	ldd	r18, Y+13	; 0x0d
    7512:	3e 85       	ldd	r19, Y+14	; 0x0e
    7514:	e2 16       	cp	r14, r18
    7516:	f3 06       	cpc	r15, r19
    7518:	0c f0       	brlt	.+2      	; 0x751c <Adafruit_GFX::fillCircleHelper(int, int, int, unsigned char, int, unsigned int)+0x92>
    751a:	8d c0       	rjmp	.+282    	; 0x7636 <Adafruit_GFX::fillCircleHelper(int, int, int, unsigned char, int, unsigned int)+0x1ac>
    751c:	cd 84       	ldd	r12, Y+13	; 0x0d
    751e:	de 84       	ldd	r13, Y+14	; 0x0e
    7520:	97 fc       	sbrc	r9, 7
    7522:	0b c0       	rjmp	.+22     	; 0x753a <Adafruit_GFX::fillCircleHelper(int, int, int, unsigned char, int, unsigned int)+0xb0>
    7524:	69 01       	movw	r12, r18
    7526:	31 e0       	ldi	r19, 0x01	; 1
    7528:	c3 1a       	sub	r12, r19
    752a:	d1 08       	sbc	r13, r1
    752c:	89 81       	ldd	r24, Y+1	; 0x01
    752e:	9a 81       	ldd	r25, Y+2	; 0x02
    7530:	02 96       	adiw	r24, 0x02	; 2
    7532:	9a 83       	std	Y+2, r25	; 0x02
    7534:	89 83       	std	Y+1, r24	; 0x01
    7536:	88 0e       	add	r8, r24
    7538:	99 1e       	adc	r9, r25
    753a:	9f ef       	ldi	r25, 0xFF	; 255
    753c:	e9 1a       	sub	r14, r25
    753e:	f9 0a       	sbc	r15, r25
    7540:	a2 e0       	ldi	r26, 0x02	; 2
    7542:	6a 0e       	add	r6, r26
    7544:	71 1c       	adc	r7, r1
    7546:	86 0c       	add	r8, r6
    7548:	97 1c       	adc	r9, r7
    754a:	ce 14       	cp	r12, r14
    754c:	df 04       	cpc	r13, r15
    754e:	a4 f1       	brlt	.+104    	; 0x75b8 <Adafruit_GFX::fillCircleHelper(int, int, int, unsigned char, int, unsigned int)+0x12e>
    7550:	b9 85       	ldd	r27, Y+9	; 0x09
    7552:	bb 23       	and	r27, r27
    7554:	b9 f0       	breq	.+46     	; 0x7584 <Adafruit_GFX::fillCircleHelper(int, int, int, unsigned char, int, unsigned int)+0xfa>
    7556:	96 01       	movw	r18, r12
    7558:	22 0f       	add	r18, r18
    755a:	33 1f       	adc	r19, r19
    755c:	8f 81       	ldd	r24, Y+7	; 0x07
    755e:	98 85       	ldd	r25, Y+8	; 0x08
    7560:	28 0f       	add	r18, r24
    7562:	39 1f       	adc	r19, r25
    7564:	d5 01       	movw	r26, r10
    7566:	ed 91       	ld	r30, X+
    7568:	fc 91       	ld	r31, X
    756a:	00 88       	ldd	r0, Z+16	; 0x10
    756c:	f1 89       	ldd	r31, Z+17	; 0x11
    756e:	e0 2d       	mov	r30, r0
    7570:	81 01       	movw	r16, r2
    7572:	4b 81       	ldd	r20, Y+3	; 0x03
    7574:	5c 81       	ldd	r21, Y+4	; 0x04
    7576:	4c 19       	sub	r20, r12
    7578:	5d 09       	sbc	r21, r13
    757a:	b2 01       	movw	r22, r4
    757c:	6e 0d       	add	r22, r14
    757e:	7f 1d       	adc	r23, r15
    7580:	c5 01       	movw	r24, r10
    7582:	09 95       	icall
    7584:	ba 85       	ldd	r27, Y+10	; 0x0a
    7586:	bb 23       	and	r27, r27
    7588:	b9 f0       	breq	.+46     	; 0x75b8 <Adafruit_GFX::fillCircleHelper(int, int, int, unsigned char, int, unsigned int)+0x12e>
    758a:	96 01       	movw	r18, r12
    758c:	22 0f       	add	r18, r18
    758e:	33 1f       	adc	r19, r19
    7590:	8f 81       	ldd	r24, Y+7	; 0x07
    7592:	98 85       	ldd	r25, Y+8	; 0x08
    7594:	28 0f       	add	r18, r24
    7596:	39 1f       	adc	r19, r25
    7598:	d5 01       	movw	r26, r10
    759a:	ed 91       	ld	r30, X+
    759c:	fc 91       	ld	r31, X
    759e:	00 88       	ldd	r0, Z+16	; 0x10
    75a0:	f1 89       	ldd	r31, Z+17	; 0x11
    75a2:	e0 2d       	mov	r30, r0
    75a4:	81 01       	movw	r16, r2
    75a6:	4b 81       	ldd	r20, Y+3	; 0x03
    75a8:	5c 81       	ldd	r21, Y+4	; 0x04
    75aa:	4c 19       	sub	r20, r12
    75ac:	5d 09       	sbc	r21, r13
    75ae:	b2 01       	movw	r22, r4
    75b0:	6e 19       	sub	r22, r14
    75b2:	7f 09       	sbc	r23, r15
    75b4:	c5 01       	movw	r24, r10
    75b6:	09 95       	icall
    75b8:	2d 85       	ldd	r18, Y+13	; 0x0d
    75ba:	3e 85       	ldd	r19, Y+14	; 0x0e
    75bc:	2c 15       	cp	r18, r12
    75be:	3d 05       	cpc	r19, r13
    75c0:	b9 f1       	breq	.+110    	; 0x7630 <Adafruit_GFX::fillCircleHelper(int, int, int, unsigned char, int, unsigned int)+0x1a6>
    75c2:	39 85       	ldd	r19, Y+9	; 0x09
    75c4:	33 23       	and	r19, r19
    75c6:	c1 f0       	breq	.+48     	; 0x75f8 <Adafruit_GFX::fillCircleHelper(int, int, int, unsigned char, int, unsigned int)+0x16e>
    75c8:	93 01       	movw	r18, r6
    75ca:	22 50       	subi	r18, 0x02	; 2
    75cc:	31 09       	sbc	r19, r1
    75ce:	8d 81       	ldd	r24, Y+5	; 0x05
    75d0:	9e 81       	ldd	r25, Y+6	; 0x06
    75d2:	28 0f       	add	r18, r24
    75d4:	39 1f       	adc	r19, r25
    75d6:	d5 01       	movw	r26, r10
    75d8:	ed 91       	ld	r30, X+
    75da:	fc 91       	ld	r31, X
    75dc:	00 88       	ldd	r0, Z+16	; 0x10
    75de:	f1 89       	ldd	r31, Z+17	; 0x11
    75e0:	e0 2d       	mov	r30, r0
    75e2:	81 01       	movw	r16, r2
    75e4:	4b 85       	ldd	r20, Y+11	; 0x0b
    75e6:	5c 85       	ldd	r21, Y+12	; 0x0c
    75e8:	4e 19       	sub	r20, r14
    75ea:	5f 09       	sbc	r21, r15
    75ec:	6d 85       	ldd	r22, Y+13	; 0x0d
    75ee:	7e 85       	ldd	r23, Y+14	; 0x0e
    75f0:	64 0d       	add	r22, r4
    75f2:	75 1d       	adc	r23, r5
    75f4:	c5 01       	movw	r24, r10
    75f6:	09 95       	icall
    75f8:	ba 85       	ldd	r27, Y+10	; 0x0a
    75fa:	bb 23       	and	r27, r27
    75fc:	c9 f0       	breq	.+50     	; 0x7630 <Adafruit_GFX::fillCircleHelper(int, int, int, unsigned char, int, unsigned int)+0x1a6>
    75fe:	93 01       	movw	r18, r6
    7600:	22 50       	subi	r18, 0x02	; 2
    7602:	31 09       	sbc	r19, r1
    7604:	8d 81       	ldd	r24, Y+5	; 0x05
    7606:	9e 81       	ldd	r25, Y+6	; 0x06
    7608:	28 0f       	add	r18, r24
    760a:	39 1f       	adc	r19, r25
    760c:	b2 01       	movw	r22, r4
    760e:	ad 85       	ldd	r26, Y+13	; 0x0d
    7610:	be 85       	ldd	r27, Y+14	; 0x0e
    7612:	6a 1b       	sub	r22, r26
    7614:	7b 0b       	sbc	r23, r27
    7616:	d5 01       	movw	r26, r10
    7618:	ed 91       	ld	r30, X+
    761a:	fc 91       	ld	r31, X
    761c:	00 88       	ldd	r0, Z+16	; 0x10
    761e:	f1 89       	ldd	r31, Z+17	; 0x11
    7620:	e0 2d       	mov	r30, r0
    7622:	81 01       	movw	r16, r2
    7624:	4b 85       	ldd	r20, Y+11	; 0x0b
    7626:	5c 85       	ldd	r21, Y+12	; 0x0c
    7628:	4e 19       	sub	r20, r14
    762a:	5f 09       	sbc	r21, r15
    762c:	c5 01       	movw	r24, r10
    762e:	09 95       	icall
    7630:	de 86       	std	Y+14, r13	; 0x0e
    7632:	cd 86       	std	Y+13, r12	; 0x0d
    7634:	6d cf       	rjmp	.-294    	; 0x7510 <Adafruit_GFX::fillCircleHelper(int, int, int, unsigned char, int, unsigned int)+0x86>
    7636:	2e 96       	adiw	r28, 0x0e	; 14
    7638:	0f b6       	in	r0, 0x3f	; 63
    763a:	f8 94       	cli
    763c:	de bf       	out	0x3e, r29	; 62
    763e:	0f be       	out	0x3f, r0	; 63
    7640:	cd bf       	out	0x3d, r28	; 61
    7642:	df 91       	pop	r29
    7644:	cf 91       	pop	r28
    7646:	1f 91       	pop	r17
    7648:	0f 91       	pop	r16
    764a:	ff 90       	pop	r15
    764c:	ef 90       	pop	r14
    764e:	df 90       	pop	r13
    7650:	cf 90       	pop	r12
    7652:	bf 90       	pop	r11
    7654:	af 90       	pop	r10
    7656:	9f 90       	pop	r9
    7658:	8f 90       	pop	r8
    765a:	7f 90       	pop	r7
    765c:	6f 90       	pop	r6
    765e:	5f 90       	pop	r5
    7660:	4f 90       	pop	r4
    7662:	3f 90       	pop	r3
    7664:	2f 90       	pop	r2
    7666:	08 95       	ret

00007668 <Adafruit_GFX::fillCircle(int, int, int, unsigned int)>:
    7668:	6f 92       	push	r6
    766a:	7f 92       	push	r7
    766c:	8f 92       	push	r8
    766e:	9f 92       	push	r9
    7670:	af 92       	push	r10
    7672:	bf 92       	push	r11
    7674:	cf 92       	push	r12
    7676:	df 92       	push	r13
    7678:	ef 92       	push	r14
    767a:	ff 92       	push	r15
    767c:	0f 93       	push	r16
    767e:	1f 93       	push	r17
    7680:	cf 93       	push	r28
    7682:	df 93       	push	r29
    7684:	ec 01       	movw	r28, r24
    7686:	4b 01       	movw	r8, r22
    7688:	3a 01       	movw	r6, r20
    768a:	59 01       	movw	r10, r18
    768c:	68 01       	movw	r12, r16
    768e:	e8 81       	ld	r30, Y
    7690:	f9 81       	ldd	r31, Y+1	; 0x01
    7692:	02 84       	ldd	r0, Z+10	; 0x0a
    7694:	f3 85       	ldd	r31, Z+11	; 0x0b
    7696:	e0 2d       	mov	r30, r0
    7698:	09 95       	icall
    769a:	95 01       	movw	r18, r10
    769c:	22 0f       	add	r18, r18
    769e:	33 1f       	adc	r19, r19
    76a0:	2f 5f       	subi	r18, 0xFF	; 255
    76a2:	3f 4f       	sbci	r19, 0xFF	; 255
    76a4:	a3 01       	movw	r20, r6
    76a6:	4a 19       	sub	r20, r10
    76a8:	5b 09       	sbc	r21, r11
    76aa:	e8 81       	ld	r30, Y
    76ac:	f9 81       	ldd	r31, Y+1	; 0x01
    76ae:	00 88       	ldd	r0, Z+16	; 0x10
    76b0:	f1 89       	ldd	r31, Z+17	; 0x11
    76b2:	e0 2d       	mov	r30, r0
    76b4:	b4 01       	movw	r22, r8
    76b6:	ce 01       	movw	r24, r28
    76b8:	09 95       	icall
    76ba:	f1 2c       	mov	r15, r1
    76bc:	e1 2c       	mov	r14, r1
    76be:	03 e0       	ldi	r16, 0x03	; 3
    76c0:	95 01       	movw	r18, r10
    76c2:	a3 01       	movw	r20, r6
    76c4:	b4 01       	movw	r22, r8
    76c6:	ce 01       	movw	r24, r28
    76c8:	e0 de       	rcall	.-576    	; 0x748a <Adafruit_GFX::fillCircleHelper(int, int, int, unsigned char, int, unsigned int)>
    76ca:	e8 81       	ld	r30, Y
    76cc:	f9 81       	ldd	r31, Y+1	; 0x01
    76ce:	06 88       	ldd	r0, Z+22	; 0x16
    76d0:	f7 89       	ldd	r31, Z+23	; 0x17
    76d2:	e0 2d       	mov	r30, r0
    76d4:	ce 01       	movw	r24, r28
    76d6:	df 91       	pop	r29
    76d8:	cf 91       	pop	r28
    76da:	1f 91       	pop	r17
    76dc:	0f 91       	pop	r16
    76de:	ff 90       	pop	r15
    76e0:	ef 90       	pop	r14
    76e2:	df 90       	pop	r13
    76e4:	cf 90       	pop	r12
    76e6:	bf 90       	pop	r11
    76e8:	af 90       	pop	r10
    76ea:	9f 90       	pop	r9
    76ec:	8f 90       	pop	r8
    76ee:	7f 90       	pop	r7
    76f0:	6f 90       	pop	r6
    76f2:	09 94       	ijmp

000076f4 <Adafruit_GFX::drawRGBBitmap(int, int, unsigned int*, int, int)>:
    76f4:	2f 92       	push	r2
    76f6:	3f 92       	push	r3
    76f8:	4f 92       	push	r4
    76fa:	5f 92       	push	r5
    76fc:	6f 92       	push	r6
    76fe:	7f 92       	push	r7
    7700:	8f 92       	push	r8
    7702:	9f 92       	push	r9
    7704:	af 92       	push	r10
    7706:	bf 92       	push	r11
    7708:	cf 92       	push	r12
    770a:	df 92       	push	r13
    770c:	ef 92       	push	r14
    770e:	ff 92       	push	r15
    7710:	0f 93       	push	r16
    7712:	1f 93       	push	r17
    7714:	cf 93       	push	r28
    7716:	df 93       	push	r29
    7718:	00 d0       	rcall	.+0      	; 0x771a <Adafruit_GFX::drawRGBBitmap(int, int, unsigned int*, int, int)+0x26>
    771a:	00 d0       	rcall	.+0      	; 0x771c <Adafruit_GFX::drawRGBBitmap(int, int, unsigned int*, int, int)+0x28>
    771c:	00 d0       	rcall	.+0      	; 0x771e <Adafruit_GFX::drawRGBBitmap(int, int, unsigned int*, int, int)+0x2a>
    771e:	cd b7       	in	r28, 0x3d	; 61
    7720:	de b7       	in	r29, 0x3e	; 62
    7722:	9e 83       	std	Y+6, r25	; 0x06
    7724:	8d 83       	std	Y+5, r24	; 0x05
    7726:	1b 01       	movw	r2, r22
    7728:	2a 01       	movw	r4, r20
    772a:	69 01       	movw	r12, r18
    772c:	37 01       	movw	r6, r14
    772e:	dc 01       	movw	r26, r24
    7730:	ed 91       	ld	r30, X+
    7732:	fc 91       	ld	r31, X
    7734:	02 84       	ldd	r0, Z+10	; 0x0a
    7736:	f3 85       	ldd	r31, Z+11	; 0x0b
    7738:	e0 2d       	mov	r30, r0
    773a:	09 95       	icall
    773c:	c8 01       	movw	r24, r16
    773e:	88 0f       	add	r24, r24
    7740:	99 1f       	adc	r25, r25
    7742:	9a 83       	std	Y+2, r25	; 0x02
    7744:	89 83       	std	Y+1, r24	; 0x01
    7746:	76 01       	movw	r14, r12
    7748:	d1 2c       	mov	r13, r1
    774a:	c1 2c       	mov	r12, r1
    774c:	d6 01       	movw	r26, r12
    774e:	a4 0d       	add	r26, r4
    7750:	b5 1d       	adc	r27, r5
    7752:	bc 83       	std	Y+4, r27	; 0x04
    7754:	ab 83       	std	Y+3, r26	; 0x03
    7756:	c6 14       	cp	r12, r6
    7758:	d7 04       	cpc	r13, r7
    775a:	2c f5       	brge	.+74     	; 0x77a6 <Adafruit_GFX::drawRGBBitmap(int, int, unsigned int*, int, int)+0xb2>
    775c:	47 01       	movw	r8, r14
    775e:	b1 2c       	mov	r11, r1
    7760:	a1 2c       	mov	r10, r1
    7762:	ad 81       	ldd	r26, Y+5	; 0x05
    7764:	be 81       	ldd	r27, Y+6	; 0x06
    7766:	ed 91       	ld	r30, X+
    7768:	fc 91       	ld	r31, X
    776a:	a0 16       	cp	r10, r16
    776c:	b1 06       	cpc	r11, r17
    776e:	9c f4       	brge	.+38     	; 0x7796 <Adafruit_GFX::drawRGBBitmap(int, int, unsigned int*, int, int)+0xa2>
    7770:	d4 01       	movw	r26, r8
    7772:	2d 91       	ld	r18, X+
    7774:	3d 91       	ld	r19, X+
    7776:	4d 01       	movw	r8, r26
    7778:	b5 01       	movw	r22, r10
    777a:	62 0d       	add	r22, r2
    777c:	73 1d       	adc	r23, r3
    777e:	04 84       	ldd	r0, Z+12	; 0x0c
    7780:	f5 85       	ldd	r31, Z+13	; 0x0d
    7782:	e0 2d       	mov	r30, r0
    7784:	4b 81       	ldd	r20, Y+3	; 0x03
    7786:	5c 81       	ldd	r21, Y+4	; 0x04
    7788:	8d 81       	ldd	r24, Y+5	; 0x05
    778a:	9e 81       	ldd	r25, Y+6	; 0x06
    778c:	09 95       	icall
    778e:	bf ef       	ldi	r27, 0xFF	; 255
    7790:	ab 1a       	sub	r10, r27
    7792:	bb 0a       	sbc	r11, r27
    7794:	e6 cf       	rjmp	.-52     	; 0x7762 <Adafruit_GFX::drawRGBBitmap(int, int, unsigned int*, int, int)+0x6e>
    7796:	8f ef       	ldi	r24, 0xFF	; 255
    7798:	c8 1a       	sub	r12, r24
    779a:	d8 0a       	sbc	r13, r24
    779c:	a9 81       	ldd	r26, Y+1	; 0x01
    779e:	ba 81       	ldd	r27, Y+2	; 0x02
    77a0:	ea 0e       	add	r14, r26
    77a2:	fb 1e       	adc	r15, r27
    77a4:	d3 cf       	rjmp	.-90     	; 0x774c <Adafruit_GFX::drawRGBBitmap(int, int, unsigned int*, int, int)+0x58>
    77a6:	ad 81       	ldd	r26, Y+5	; 0x05
    77a8:	be 81       	ldd	r27, Y+6	; 0x06
    77aa:	ed 91       	ld	r30, X+
    77ac:	fc 91       	ld	r31, X
    77ae:	11 97       	sbiw	r26, 0x01	; 1
    77b0:	06 88       	ldd	r0, Z+22	; 0x16
    77b2:	f7 89       	ldd	r31, Z+23	; 0x17
    77b4:	e0 2d       	mov	r30, r0
    77b6:	cd 01       	movw	r24, r26
    77b8:	26 96       	adiw	r28, 0x06	; 6
    77ba:	0f b6       	in	r0, 0x3f	; 63
    77bc:	f8 94       	cli
    77be:	de bf       	out	0x3e, r29	; 62
    77c0:	0f be       	out	0x3f, r0	; 63
    77c2:	cd bf       	out	0x3d, r28	; 61
    77c4:	df 91       	pop	r29
    77c6:	cf 91       	pop	r28
    77c8:	1f 91       	pop	r17
    77ca:	0f 91       	pop	r16
    77cc:	ff 90       	pop	r15
    77ce:	ef 90       	pop	r14
    77d0:	df 90       	pop	r13
    77d2:	cf 90       	pop	r12
    77d4:	bf 90       	pop	r11
    77d6:	af 90       	pop	r10
    77d8:	9f 90       	pop	r9
    77da:	8f 90       	pop	r8
    77dc:	7f 90       	pop	r7
    77de:	6f 90       	pop	r6
    77e0:	5f 90       	pop	r5
    77e2:	4f 90       	pop	r4
    77e4:	3f 90       	pop	r3
    77e6:	2f 90       	pop	r2
    77e8:	09 94       	ijmp

000077ea <Adafruit_GFX::drawChar(int, int, unsigned char, unsigned int, unsigned int, unsigned char, unsigned char)>:
    77ea:	2f 92       	push	r2
    77ec:	3f 92       	push	r3
    77ee:	4f 92       	push	r4
    77f0:	5f 92       	push	r5
    77f2:	6f 92       	push	r6
    77f4:	7f 92       	push	r7
    77f6:	8f 92       	push	r8
    77f8:	9f 92       	push	r9
    77fa:	af 92       	push	r10
    77fc:	bf 92       	push	r11
    77fe:	cf 92       	push	r12
    7800:	df 92       	push	r13
    7802:	ef 92       	push	r14
    7804:	ff 92       	push	r15
    7806:	0f 93       	push	r16
    7808:	1f 93       	push	r17
    780a:	cf 93       	push	r28
    780c:	df 93       	push	r29
    780e:	cd b7       	in	r28, 0x3d	; 61
    7810:	de b7       	in	r29, 0x3e	; 62
    7812:	6a 97       	sbiw	r28, 0x1a	; 26
    7814:	0f b6       	in	r0, 0x3f	; 63
    7816:	f8 94       	cli
    7818:	de bf       	out	0x3e, r29	; 62
    781a:	0f be       	out	0x3f, r0	; 63
    781c:	cd bf       	out	0x3d, r28	; 61
    781e:	9a 8f       	std	Y+26, r25	; 0x1a
    7820:	89 8f       	std	Y+25, r24	; 0x19
    7822:	7a 83       	std	Y+2, r23	; 0x02
    7824:	69 83       	std	Y+1, r22	; 0x01
    7826:	4a 01       	movw	r8, r20
    7828:	d2 2e       	mov	r13, r18
    782a:	18 87       	std	Y+8, r17	; 0x08
    782c:	0f 83       	std	Y+7, r16	; 0x07
    782e:	37 01       	movw	r6, r14
    7830:	bc 2c       	mov	r11, r12
    7832:	dc 01       	movw	r26, r24
    7834:	58 96       	adiw	r26, 0x18	; 24
    7836:	2d 91       	ld	r18, X+
    7838:	3c 91       	ld	r19, X
    783a:	59 97       	sbiw	r26, 0x19	; 25
    783c:	21 15       	cp	r18, r1
    783e:	31 05       	cpc	r19, r1
    7840:	09 f0       	breq	.+2      	; 0x7844 <Adafruit_GFX::drawChar(int, int, unsigned char, unsigned int, unsigned int, unsigned char, unsigned char)+0x5a>
    7842:	15 c1       	rjmp	.+554    	; 0x7a6e <Adafruit_GFX::drawChar(int, int, unsigned char, unsigned int, unsigned int, unsigned char, unsigned char)+0x284>
    7844:	17 96       	adiw	r26, 0x07	; 7
    7846:	8d 91       	ld	r24, X+
    7848:	9c 91       	ld	r25, X
    784a:	18 97       	sbiw	r26, 0x08	; 8
    784c:	68 17       	cp	r22, r24
    784e:	79 07       	cpc	r23, r25
    7850:	0c f0       	brlt	.+2      	; 0x7854 <Adafruit_GFX::drawChar(int, int, unsigned char, unsigned int, unsigned int, unsigned char, unsigned char)+0x6a>
    7852:	d7 c1       	rjmp	.+942    	; 0x7c02 <Adafruit_GFX::drawChar(int, int, unsigned char, unsigned int, unsigned int, unsigned char, unsigned char)+0x418>
    7854:	19 96       	adiw	r26, 0x09	; 9
    7856:	8d 91       	ld	r24, X+
    7858:	9c 91       	ld	r25, X
    785a:	48 17       	cp	r20, r24
    785c:	59 07       	cpc	r21, r25
    785e:	0c f0       	brlt	.+2      	; 0x7862 <Adafruit_GFX::drawChar(int, int, unsigned char, unsigned int, unsigned int, unsigned char, unsigned char)+0x78>
    7860:	d0 c1       	rjmp	.+928    	; 0x7c02 <Adafruit_GFX::drawChar(int, int, unsigned char, unsigned int, unsigned int, unsigned char, unsigned char)+0x418>
    7862:	4c 2c       	mov	r4, r12
    7864:	51 2c       	mov	r5, r1
    7866:	b6 e0       	ldi	r27, 0x06	; 6
    7868:	cb 9e       	mul	r12, r27
    786a:	60 0d       	add	r22, r0
    786c:	71 1d       	adc	r23, r1
    786e:	11 24       	eor	r1, r1
    7870:	7c 87       	std	Y+12, r23	; 0x0c
    7872:	6b 87       	std	Y+11, r22	; 0x0b
    7874:	16 16       	cp	r1, r22
    7876:	17 06       	cpc	r1, r23
    7878:	0c f0       	brlt	.+2      	; 0x787c <Adafruit_GFX::drawChar(int, int, unsigned char, unsigned int, unsigned int, unsigned char, unsigned char)+0x92>
    787a:	c3 c1       	rjmp	.+902    	; 0x7c02 <Adafruit_GFX::drawChar(int, int, unsigned char, unsigned int, unsigned int, unsigned char, unsigned char)+0x418>
    787c:	ea 2d       	mov	r30, r10
    787e:	f0 e0       	ldi	r31, 0x00	; 0
    7880:	fa 87       	std	Y+10, r31	; 0x0a
    7882:	e9 87       	std	Y+9, r30	; 0x09
    7884:	93 e0       	ldi	r25, 0x03	; 3
    7886:	ee 0f       	add	r30, r30
    7888:	ff 1f       	adc	r31, r31
    788a:	9a 95       	dec	r25
    788c:	e1 f7       	brne	.-8      	; 0x7886 <Adafruit_GFX::drawChar(int, int, unsigned char, unsigned int, unsigned int, unsigned char, unsigned char)+0x9c>
    788e:	f8 8b       	std	Y+16, r31	; 0x10
    7890:	ef 87       	std	Y+15, r30	; 0x0f
    7892:	cf 01       	movw	r24, r30
    7894:	84 0f       	add	r24, r20
    7896:	95 1f       	adc	r25, r21
    7898:	18 16       	cp	r1, r24
    789a:	19 06       	cpc	r1, r25
    789c:	0c f0       	brlt	.+2      	; 0x78a0 <Adafruit_GFX::drawChar(int, int, unsigned char, unsigned int, unsigned int, unsigned char, unsigned char)+0xb6>
    789e:	b1 c1       	rjmp	.+866    	; 0x7c02 <Adafruit_GFX::drawChar(int, int, unsigned char, unsigned int, unsigned int, unsigned char, unsigned char)+0x418>
    78a0:	a9 8d       	ldd	r26, Y+25	; 0x19
    78a2:	ba 8d       	ldd	r27, Y+26	; 0x1a
    78a4:	57 96       	adiw	r26, 0x17	; 23
    78a6:	8c 91       	ld	r24, X
    78a8:	81 11       	cpse	r24, r1
    78aa:	04 c0       	rjmp	.+8      	; 0x78b4 <Adafruit_GFX::drawChar(int, int, unsigned char, unsigned int, unsigned int, unsigned char, unsigned char)+0xca>
    78ac:	bf ea       	ldi	r27, 0xAF	; 175
    78ae:	bd 15       	cp	r27, r13
    78b0:	08 f4       	brcc	.+2      	; 0x78b4 <Adafruit_GFX::drawChar(int, int, unsigned char, unsigned int, unsigned int, unsigned char, unsigned char)+0xca>
    78b2:	d3 94       	inc	r13
    78b4:	a9 8d       	ldd	r26, Y+25	; 0x19
    78b6:	ba 8d       	ldd	r27, Y+26	; 0x1a
    78b8:	ed 91       	ld	r30, X+
    78ba:	fc 91       	ld	r31, X
    78bc:	11 97       	sbiw	r26, 0x01	; 1
    78be:	02 84       	ldd	r0, Z+10	; 0x0a
    78c0:	f3 85       	ldd	r31, Z+11	; 0x0b
    78c2:	e0 2d       	mov	r30, r0
    78c4:	cd 01       	movw	r24, r26
    78c6:	09 95       	icall
    78c8:	b5 e0       	ldi	r27, 0x05	; 5
    78ca:	db 9e       	mul	r13, r27
    78cc:	c0 01       	movw	r24, r0
    78ce:	11 24       	eor	r1, r1
    78d0:	e9 81       	ldd	r30, Y+1	; 0x01
    78d2:	fa 81       	ldd	r31, Y+2	; 0x02
    78d4:	fc 83       	std	Y+4, r31	; 0x04
    78d6:	eb 83       	std	Y+3, r30	; 0x03
    78d8:	31 2c       	mov	r3, r1
    78da:	21 2c       	mov	r2, r1
    78dc:	9c 01       	movw	r18, r24
    78de:	28 5a       	subi	r18, 0xA8	; 168
    78e0:	39 4f       	sbci	r19, 0xF9	; 249
    78e2:	38 8f       	std	Y+24, r19	; 0x18
    78e4:	2f 8b       	std	Y+23, r18	; 0x17
    78e6:	4a 2d       	mov	r20, r10
    78e8:	50 e0       	ldi	r21, 0x00	; 0
    78ea:	5e 8b       	std	Y+22, r21	; 0x16
    78ec:	4d 8b       	std	Y+21, r20	; 0x15
    78ee:	ef 89       	ldd	r30, Y+23	; 0x17
    78f0:	f8 8d       	ldd	r31, Y+24	; 0x18
    78f2:	e2 0d       	add	r30, r2
    78f4:	f3 1d       	adc	r31, r3
    78f6:	44 91       	lpm	r20, Z
    78f8:	9e 82       	std	Y+6, r9	; 0x06
    78fa:	8d 82       	std	Y+5, r8	; 0x05
    78fc:	d1 2c       	mov	r13, r1
    78fe:	c1 2c       	mov	r12, r1
    7900:	69 81       	ldd	r22, Y+1	; 0x01
    7902:	7a 81       	ldd	r23, Y+2	; 0x02
    7904:	62 0d       	add	r22, r2
    7906:	73 1d       	adc	r23, r3
    7908:	7a 8b       	std	Y+18, r23	; 0x12
    790a:	69 8b       	std	Y+17, r22	; 0x11
    790c:	84 2f       	mov	r24, r20
    790e:	90 e0       	ldi	r25, 0x00	; 0
    7910:	9c 8b       	std	Y+20, r25	; 0x14
    7912:	8b 8b       	std	Y+19, r24	; 0x13
    7914:	e9 8d       	ldd	r30, Y+25	; 0x19
    7916:	fa 8d       	ldd	r31, Y+26	; 0x1a
    7918:	a0 81       	ld	r26, Z
    791a:	b1 81       	ldd	r27, Z+1	; 0x01
    791c:	40 ff       	sbrs	r20, 0
    791e:	82 c0       	rjmp	.+260    	; 0x7a24 <Adafruit_GFX::drawChar(int, int, unsigned char, unsigned int, unsigned int, unsigned char, unsigned char)+0x23a>
    7920:	f1 e0       	ldi	r31, 0x01	; 1
    7922:	bf 12       	cpse	r11, r31
    7924:	6f c0       	rjmp	.+222    	; 0x7a04 <Adafruit_GFX::drawChar(int, int, unsigned char, unsigned int, unsigned int, unsigned char, unsigned char)+0x21a>
    7926:	af 12       	cpse	r10, r31
    7928:	6d c0       	rjmp	.+218    	; 0x7a04 <Adafruit_GFX::drawChar(int, int, unsigned char, unsigned int, unsigned int, unsigned char, unsigned char)+0x21a>
    792a:	1c 96       	adiw	r26, 0x0c	; 12
    792c:	ed 91       	ld	r30, X+
    792e:	fc 91       	ld	r31, X
    7930:	2f 81       	ldd	r18, Y+7	; 0x07
    7932:	38 85       	ldd	r19, Y+8	; 0x08
    7934:	a4 01       	movw	r20, r8
    7936:	4c 0d       	add	r20, r12
    7938:	5d 1d       	adc	r21, r13
    793a:	69 89       	ldd	r22, Y+17	; 0x11
    793c:	7a 89       	ldd	r23, Y+18	; 0x12
    793e:	89 8d       	ldd	r24, Y+25	; 0x19
    7940:	9a 8d       	ldd	r25, Y+26	; 0x1a
    7942:	09 95       	icall
    7944:	eb 89       	ldd	r30, Y+19	; 0x13
    7946:	fc 89       	ldd	r31, Y+20	; 0x14
    7948:	f5 95       	asr	r31
    794a:	e7 95       	ror	r30
    794c:	4e 2f       	mov	r20, r30
    794e:	5f ef       	ldi	r21, 0xFF	; 255
    7950:	c5 1a       	sub	r12, r21
    7952:	d5 0a       	sbc	r13, r21
    7954:	6d 81       	ldd	r22, Y+5	; 0x05
    7956:	7e 81       	ldd	r23, Y+6	; 0x06
    7958:	8d 89       	ldd	r24, Y+21	; 0x15
    795a:	9e 89       	ldd	r25, Y+22	; 0x16
    795c:	68 0f       	add	r22, r24
    795e:	79 1f       	adc	r23, r25
    7960:	7e 83       	std	Y+6, r23	; 0x06
    7962:	6d 83       	std	Y+5, r22	; 0x05
    7964:	98 e0       	ldi	r25, 0x08	; 8
    7966:	c9 16       	cp	r12, r25
    7968:	d1 04       	cpc	r13, r1
    796a:	81 f6       	brne	.-96     	; 0x790c <Adafruit_GFX::drawChar(int, int, unsigned char, unsigned int, unsigned int, unsigned char, unsigned char)+0x122>
    796c:	af ef       	ldi	r26, 0xFF	; 255
    796e:	2a 1a       	sub	r2, r26
    7970:	3a 0a       	sbc	r3, r26
    7972:	eb 81       	ldd	r30, Y+3	; 0x03
    7974:	fc 81       	ldd	r31, Y+4	; 0x04
    7976:	e4 0d       	add	r30, r4
    7978:	f5 1d       	adc	r31, r5
    797a:	fc 83       	std	Y+4, r31	; 0x04
    797c:	eb 83       	std	Y+3, r30	; 0x03
    797e:	f5 e0       	ldi	r31, 0x05	; 5
    7980:	2f 16       	cp	r2, r31
    7982:	31 04       	cpc	r3, r1
    7984:	09 f0       	breq	.+2      	; 0x7988 <Adafruit_GFX::drawChar(int, int, unsigned char, unsigned int, unsigned int, unsigned char, unsigned char)+0x19e>
    7986:	b3 cf       	rjmp	.-154    	; 0x78ee <Adafruit_GFX::drawChar(int, int, unsigned char, unsigned int, unsigned int, unsigned char, unsigned char)+0x104>
    7988:	2f 81       	ldd	r18, Y+7	; 0x07
    798a:	38 85       	ldd	r19, Y+8	; 0x08
    798c:	26 15       	cp	r18, r6
    798e:	37 05       	cpc	r19, r7
    7990:	b9 f0       	breq	.+46     	; 0x79c0 <Adafruit_GFX::drawChar(int, int, unsigned char, unsigned int, unsigned int, unsigned char, unsigned char)+0x1d6>
    7992:	a9 8d       	ldd	r26, Y+25	; 0x19
    7994:	ba 8d       	ldd	r27, Y+26	; 0x1a
    7996:	ed 91       	ld	r30, X+
    7998:	fc 91       	ld	r31, X
    799a:	b1 e0       	ldi	r27, 0x01	; 1
    799c:	bb 12       	cpse	r11, r27
    799e:	57 c0       	rjmp	.+174    	; 0x7a4e <Adafruit_GFX::drawChar(int, int, unsigned char, unsigned int, unsigned int, unsigned char, unsigned char)+0x264>
    79a0:	ab 12       	cpse	r10, r27
    79a2:	55 c0       	rjmp	.+170    	; 0x7a4e <Adafruit_GFX::drawChar(int, int, unsigned char, unsigned int, unsigned int, unsigned char, unsigned char)+0x264>
    79a4:	69 81       	ldd	r22, Y+1	; 0x01
    79a6:	7a 81       	ldd	r23, Y+2	; 0x02
    79a8:	6b 5f       	subi	r22, 0xFB	; 251
    79aa:	7f 4f       	sbci	r23, 0xFF	; 255
    79ac:	00 88       	ldd	r0, Z+16	; 0x10
    79ae:	f1 89       	ldd	r31, Z+17	; 0x11
    79b0:	e0 2d       	mov	r30, r0
    79b2:	83 01       	movw	r16, r6
    79b4:	28 e0       	ldi	r18, 0x08	; 8
    79b6:	30 e0       	ldi	r19, 0x00	; 0
    79b8:	a4 01       	movw	r20, r8
    79ba:	89 8d       	ldd	r24, Y+25	; 0x19
    79bc:	9a 8d       	ldd	r25, Y+26	; 0x1a
    79be:	09 95       	icall
    79c0:	a9 8d       	ldd	r26, Y+25	; 0x19
    79c2:	ba 8d       	ldd	r27, Y+26	; 0x1a
    79c4:	ed 91       	ld	r30, X+
    79c6:	fc 91       	ld	r31, X
    79c8:	11 97       	sbiw	r26, 0x01	; 1
    79ca:	06 88       	ldd	r0, Z+22	; 0x16
    79cc:	f7 89       	ldd	r31, Z+23	; 0x17
    79ce:	e0 2d       	mov	r30, r0
    79d0:	cd 01       	movw	r24, r26
    79d2:	6a 96       	adiw	r28, 0x1a	; 26
    79d4:	0f b6       	in	r0, 0x3f	; 63
    79d6:	f8 94       	cli
    79d8:	de bf       	out	0x3e, r29	; 62
    79da:	0f be       	out	0x3f, r0	; 63
    79dc:	cd bf       	out	0x3d, r28	; 61
    79de:	df 91       	pop	r29
    79e0:	cf 91       	pop	r28
    79e2:	1f 91       	pop	r17
    79e4:	0f 91       	pop	r16
    79e6:	ff 90       	pop	r15
    79e8:	ef 90       	pop	r14
    79ea:	df 90       	pop	r13
    79ec:	cf 90       	pop	r12
    79ee:	bf 90       	pop	r11
    79f0:	af 90       	pop	r10
    79f2:	9f 90       	pop	r9
    79f4:	8f 90       	pop	r8
    79f6:	7f 90       	pop	r7
    79f8:	6f 90       	pop	r6
    79fa:	5f 90       	pop	r5
    79fc:	4f 90       	pop	r4
    79fe:	3f 90       	pop	r3
    7a00:	2f 90       	pop	r2
    7a02:	09 94       	ijmp
    7a04:	1e 96       	adiw	r26, 0x0e	; 14
    7a06:	ed 91       	ld	r30, X+
    7a08:	fc 91       	ld	r31, X
    7a0a:	ef 80       	ldd	r14, Y+7	; 0x07
    7a0c:	f8 84       	ldd	r15, Y+8	; 0x08
    7a0e:	09 85       	ldd	r16, Y+9	; 0x09
    7a10:	1a 85       	ldd	r17, Y+10	; 0x0a
    7a12:	92 01       	movw	r18, r4
    7a14:	4d 81       	ldd	r20, Y+5	; 0x05
    7a16:	5e 81       	ldd	r21, Y+6	; 0x06
    7a18:	6b 81       	ldd	r22, Y+3	; 0x03
    7a1a:	7c 81       	ldd	r23, Y+4	; 0x04
    7a1c:	89 8d       	ldd	r24, Y+25	; 0x19
    7a1e:	9a 8d       	ldd	r25, Y+26	; 0x1a
    7a20:	09 95       	icall
    7a22:	90 cf       	rjmp	.-224    	; 0x7944 <Adafruit_GFX::drawChar(int, int, unsigned char, unsigned int, unsigned int, unsigned char, unsigned char)+0x15a>
    7a24:	2f 81       	ldd	r18, Y+7	; 0x07
    7a26:	38 85       	ldd	r19, Y+8	; 0x08
    7a28:	26 15       	cp	r18, r6
    7a2a:	37 05       	cpc	r19, r7
    7a2c:	09 f4       	brne	.+2      	; 0x7a30 <Adafruit_GFX::drawChar(int, int, unsigned char, unsigned int, unsigned int, unsigned char, unsigned char)+0x246>
    7a2e:	8a cf       	rjmp	.-236    	; 0x7944 <Adafruit_GFX::drawChar(int, int, unsigned char, unsigned int, unsigned int, unsigned char, unsigned char)+0x15a>
    7a30:	31 e0       	ldi	r19, 0x01	; 1
    7a32:	b3 12       	cpse	r11, r19
    7a34:	07 c0       	rjmp	.+14     	; 0x7a44 <Adafruit_GFX::drawChar(int, int, unsigned char, unsigned int, unsigned int, unsigned char, unsigned char)+0x25a>
    7a36:	a3 12       	cpse	r10, r19
    7a38:	05 c0       	rjmp	.+10     	; 0x7a44 <Adafruit_GFX::drawChar(int, int, unsigned char, unsigned int, unsigned int, unsigned char, unsigned char)+0x25a>
    7a3a:	1c 96       	adiw	r26, 0x0c	; 12
    7a3c:	ed 91       	ld	r30, X+
    7a3e:	fc 91       	ld	r31, X
    7a40:	93 01       	movw	r18, r6
    7a42:	78 cf       	rjmp	.-272    	; 0x7934 <Adafruit_GFX::drawChar(int, int, unsigned char, unsigned int, unsigned int, unsigned char, unsigned char)+0x14a>
    7a44:	1e 96       	adiw	r26, 0x0e	; 14
    7a46:	ed 91       	ld	r30, X+
    7a48:	fc 91       	ld	r31, X
    7a4a:	73 01       	movw	r14, r6
    7a4c:	e0 cf       	rjmp	.-64     	; 0x7a0e <Adafruit_GFX::drawChar(int, int, unsigned char, unsigned int, unsigned int, unsigned char, unsigned char)+0x224>
    7a4e:	6b 85       	ldd	r22, Y+11	; 0x0b
    7a50:	7c 85       	ldd	r23, Y+12	; 0x0c
    7a52:	64 19       	sub	r22, r4
    7a54:	75 09       	sbc	r23, r5
    7a56:	06 84       	ldd	r0, Z+14	; 0x0e
    7a58:	f7 85       	ldd	r31, Z+15	; 0x0f
    7a5a:	e0 2d       	mov	r30, r0
    7a5c:	73 01       	movw	r14, r6
    7a5e:	0f 85       	ldd	r16, Y+15	; 0x0f
    7a60:	18 89       	ldd	r17, Y+16	; 0x10
    7a62:	92 01       	movw	r18, r4
    7a64:	a4 01       	movw	r20, r8
    7a66:	89 8d       	ldd	r24, Y+25	; 0x19
    7a68:	9a 8d       	ldd	r25, Y+26	; 0x1a
    7a6a:	09 95       	icall
    7a6c:	a9 cf       	rjmp	.-174    	; 0x79c0 <Adafruit_GFX::drawChar(int, int, unsigned char, unsigned int, unsigned int, unsigned char, unsigned char)+0x1d6>
    7a6e:	f9 01       	movw	r30, r18
    7a70:	34 96       	adiw	r30, 0x04	; 4
    7a72:	94 91       	lpm	r25, Z
    7a74:	32 97       	sbiw	r30, 0x02	; 2
    7a76:	45 91       	lpm	r20, Z+
    7a78:	54 91       	lpm	r21, Z
    7a7a:	d9 1a       	sub	r13, r25
    7a7c:	b7 e0       	ldi	r27, 0x07	; 7
    7a7e:	db 9e       	mul	r13, r27
    7a80:	40 0d       	add	r20, r0
    7a82:	51 1d       	adc	r21, r1
    7a84:	11 24       	eor	r1, r1
    7a86:	f9 01       	movw	r30, r18
    7a88:	25 91       	lpm	r18, Z+
    7a8a:	34 91       	lpm	r19, Z
    7a8c:	3c 8b       	std	Y+20, r19	; 0x14
    7a8e:	2b 8b       	std	Y+19, r18	; 0x13
    7a90:	fa 01       	movw	r30, r20
    7a92:	25 90       	lpm	r2, Z+
    7a94:	34 90       	lpm	r3, Z
    7a96:	fa 01       	movw	r30, r20
    7a98:	32 96       	adiw	r30, 0x02	; 2
    7a9a:	74 90       	lpm	r7, Z
    7a9c:	31 96       	adiw	r30, 0x01	; 1
    7a9e:	34 91       	lpm	r19, Z
    7aa0:	39 8b       	std	Y+17, r19	; 0x11
    7aa2:	32 96       	adiw	r30, 0x02	; 2
    7aa4:	64 90       	lpm	r6, Z
    7aa6:	31 96       	adiw	r30, 0x01	; 1
    7aa8:	44 90       	lpm	r4, Z
    7aaa:	41 e0       	ldi	r20, 0x01	; 1
    7aac:	4c 15       	cp	r20, r12
    7aae:	18 f0       	brcs	.+6      	; 0x7ab6 <Adafruit_GFX::drawChar(int, int, unsigned char, unsigned int, unsigned int, unsigned char, unsigned char)+0x2cc>
    7ab0:	4a 15       	cp	r20, r10
    7ab2:	08 f0       	brcs	.+2      	; 0x7ab6 <Adafruit_GFX::drawChar(int, int, unsigned char, unsigned int, unsigned int, unsigned char, unsigned char)+0x2cc>
    7ab4:	7f c0       	rjmp	.+254    	; 0x7bb4 <Adafruit_GFX::drawChar(int, int, unsigned char, unsigned int, unsigned int, unsigned char, unsigned char)+0x3ca>
    7ab6:	66 2d       	mov	r22, r6
    7ab8:	06 2c       	mov	r0, r6
    7aba:	00 0c       	add	r0, r0
    7abc:	77 0b       	sbc	r23, r23
    7abe:	7c 83       	std	Y+4, r23	; 0x04
    7ac0:	6b 83       	std	Y+3, r22	; 0x03
    7ac2:	84 2d       	mov	r24, r4
    7ac4:	04 2c       	mov	r0, r4
    7ac6:	00 0c       	add	r0, r0
    7ac8:	99 0b       	sbc	r25, r25
    7aca:	9e 83       	std	Y+6, r25	; 0x06
    7acc:	8d 83       	std	Y+5, r24	; 0x05
    7ace:	a9 8d       	ldd	r26, Y+25	; 0x19
    7ad0:	ba 8d       	ldd	r27, Y+26	; 0x1a
    7ad2:	ed 91       	ld	r30, X+
    7ad4:	fc 91       	ld	r31, X
    7ad6:	11 97       	sbiw	r26, 0x01	; 1
    7ad8:	02 84       	ldd	r0, Z+10	; 0x0a
    7ada:	f3 85       	ldd	r31, Z+11	; 0x0b
    7adc:	e0 2d       	mov	r30, r0
    7ade:	cd 01       	movw	r24, r26
    7ae0:	09 95       	icall
    7ae2:	51 2c       	mov	r5, r1
    7ae4:	d1 2c       	mov	r13, r1
    7ae6:	c1 2c       	mov	r12, r1
    7ae8:	ea 2d       	mov	r30, r10
    7aea:	f0 e0       	ldi	r31, 0x00	; 0
    7aec:	fa 87       	std	Y+10, r31	; 0x0a
    7aee:	e9 87       	std	Y+9, r30	; 0x09
    7af0:	2b 2d       	mov	r18, r11
    7af2:	30 e0       	ldi	r19, 0x00	; 0
    7af4:	3c 87       	std	Y+12, r19	; 0x0c
    7af6:	2b 87       	std	Y+11, r18	; 0x0b
    7af8:	a4 01       	movw	r20, r8
    7afa:	44 0d       	add	r20, r4
    7afc:	51 1d       	adc	r21, r1
    7afe:	47 fc       	sbrc	r4, 7
    7b00:	5a 95       	dec	r21
    7b02:	58 8f       	std	Y+24, r21	; 0x18
    7b04:	4f 8b       	std	Y+23, r20	; 0x17
    7b06:	69 81       	ldd	r22, Y+1	; 0x01
    7b08:	7a 81       	ldd	r23, Y+2	; 0x02
    7b0a:	66 0d       	add	r22, r6
    7b0c:	71 1d       	adc	r23, r1
    7b0e:	67 fc       	sbrc	r6, 7
    7b10:	7a 95       	dec	r23
    7b12:	7e 87       	std	Y+14, r23	; 0x0e
    7b14:	6d 87       	std	Y+13, r22	; 0x0d
    7b16:	79 89       	ldd	r23, Y+17	; 0x11
    7b18:	c7 16       	cp	r12, r23
    7b1a:	08 f0       	brcs	.+2      	; 0x7b1e <Adafruit_GFX::drawChar(int, int, unsigned char, unsigned int, unsigned int, unsigned char, unsigned char)+0x334>
    7b1c:	51 cf       	rjmp	.-350    	; 0x79c0 <Adafruit_GFX::drawChar(int, int, unsigned char, unsigned int, unsigned int, unsigned char, unsigned char)+0x1d6>
    7b1e:	2c 2d       	mov	r18, r12
    7b20:	30 e0       	ldi	r19, 0x00	; 0
    7b22:	4d 81       	ldd	r20, Y+5	; 0x05
    7b24:	5e 81       	ldd	r21, Y+6	; 0x06
    7b26:	42 0f       	add	r20, r18
    7b28:	53 1f       	adc	r21, r19
    7b2a:	a9 85       	ldd	r26, Y+9	; 0x09
    7b2c:	ba 85       	ldd	r27, Y+10	; 0x0a
    7b2e:	4a 9f       	mul	r20, r26
    7b30:	c0 01       	movw	r24, r0
    7b32:	4b 9f       	mul	r20, r27
    7b34:	90 0d       	add	r25, r0
    7b36:	5a 9f       	mul	r21, r26
    7b38:	90 0d       	add	r25, r0
    7b3a:	11 24       	eor	r1, r1
    7b3c:	fc 01       	movw	r30, r24
    7b3e:	e8 0d       	add	r30, r8
    7b40:	f9 1d       	adc	r31, r9
    7b42:	f8 8b       	std	Y+16, r31	; 0x10
    7b44:	ef 87       	std	Y+15, r30	; 0x0f
    7b46:	85 2d       	mov	r24, r5
    7b48:	61 2c       	mov	r6, r1
    7b4a:	4f 89       	ldd	r20, Y+23	; 0x17
    7b4c:	58 8d       	ldd	r21, Y+24	; 0x18
    7b4e:	42 0f       	add	r20, r18
    7b50:	53 1f       	adc	r21, r19
    7b52:	5e 8b       	std	Y+22, r21	; 0x16
    7b54:	4d 8b       	std	Y+21, r20	; 0x15
    7b56:	67 14       	cp	r6, r7
    7b58:	08 f0       	brcs	.+2      	; 0x7b5c <Adafruit_GFX::drawChar(int, int, unsigned char, unsigned int, unsigned int, unsigned char, unsigned char)+0x372>
    7b5a:	50 c0       	rjmp	.+160    	; 0x7bfc <Adafruit_GFX::drawChar(int, int, unsigned char, unsigned int, unsigned int, unsigned char, unsigned char)+0x412>
    7b5c:	44 24       	eor	r4, r4
    7b5e:	43 94       	inc	r4
    7b60:	48 0e       	add	r4, r24
    7b62:	87 70       	andi	r24, 0x07	; 7
    7b64:	41 f4       	brne	.+16     	; 0x7b76 <Adafruit_GFX::drawChar(int, int, unsigned char, unsigned int, unsigned int, unsigned char, unsigned char)+0x38c>
    7b66:	c1 01       	movw	r24, r2
    7b68:	01 96       	adiw	r24, 0x01	; 1
    7b6a:	eb 89       	ldd	r30, Y+19	; 0x13
    7b6c:	fc 89       	ldd	r31, Y+20	; 0x14
    7b6e:	e2 0d       	add	r30, r2
    7b70:	f3 1d       	adc	r31, r3
    7b72:	d4 90       	lpm	r13, Z
    7b74:	1c 01       	movw	r2, r24
    7b76:	d7 fe       	sbrs	r13, 7
    7b78:	19 c0       	rjmp	.+50     	; 0x7bac <Adafruit_GFX::drawChar(int, int, unsigned char, unsigned int, unsigned int, unsigned char, unsigned char)+0x3c2>
    7b7a:	a9 8d       	ldd	r26, Y+25	; 0x19
    7b7c:	ba 8d       	ldd	r27, Y+26	; 0x1a
    7b7e:	ed 91       	ld	r30, X+
    7b80:	fc 91       	ld	r31, X
    7b82:	66 2d       	mov	r22, r6
    7b84:	70 e0       	ldi	r23, 0x00	; 0
    7b86:	b1 e0       	ldi	r27, 0x01	; 1
    7b88:	bb 12       	cpse	r11, r27
    7b8a:	19 c0       	rjmp	.+50     	; 0x7bbe <Adafruit_GFX::drawChar(int, int, unsigned char, unsigned int, unsigned int, unsigned char, unsigned char)+0x3d4>
    7b8c:	ab 12       	cpse	r10, r27
    7b8e:	17 c0       	rjmp	.+46     	; 0x7bbe <Adafruit_GFX::drawChar(int, int, unsigned char, unsigned int, unsigned int, unsigned char, unsigned char)+0x3d4>
    7b90:	2d 85       	ldd	r18, Y+13	; 0x0d
    7b92:	3e 85       	ldd	r19, Y+14	; 0x0e
    7b94:	62 0f       	add	r22, r18
    7b96:	73 1f       	adc	r23, r19
    7b98:	04 84       	ldd	r0, Z+12	; 0x0c
    7b9a:	f5 85       	ldd	r31, Z+13	; 0x0d
    7b9c:	e0 2d       	mov	r30, r0
    7b9e:	2f 81       	ldd	r18, Y+7	; 0x07
    7ba0:	38 85       	ldd	r19, Y+8	; 0x08
    7ba2:	4d 89       	ldd	r20, Y+21	; 0x15
    7ba4:	5e 89       	ldd	r21, Y+22	; 0x16
    7ba6:	89 8d       	ldd	r24, Y+25	; 0x19
    7ba8:	9a 8d       	ldd	r25, Y+26	; 0x1a
    7baa:	09 95       	icall
    7bac:	dd 0c       	add	r13, r13
    7bae:	63 94       	inc	r6
    7bb0:	84 2d       	mov	r24, r4
    7bb2:	d1 cf       	rjmp	.-94     	; 0x7b56 <Adafruit_GFX::drawChar(int, int, unsigned char, unsigned int, unsigned int, unsigned char, unsigned char)+0x36c>
    7bb4:	1e 82       	std	Y+6, r1	; 0x06
    7bb6:	1d 82       	std	Y+5, r1	; 0x05
    7bb8:	1c 82       	std	Y+4, r1	; 0x04
    7bba:	1b 82       	std	Y+3, r1	; 0x03
    7bbc:	88 cf       	rjmp	.-240    	; 0x7ace <Adafruit_GFX::drawChar(int, int, unsigned char, unsigned int, unsigned int, unsigned char, unsigned char)+0x2e4>
    7bbe:	4b 81       	ldd	r20, Y+3	; 0x03
    7bc0:	5c 81       	ldd	r21, Y+4	; 0x04
    7bc2:	64 0f       	add	r22, r20
    7bc4:	75 1f       	adc	r23, r21
    7bc6:	ab 85       	ldd	r26, Y+11	; 0x0b
    7bc8:	bc 85       	ldd	r27, Y+12	; 0x0c
    7bca:	6a 9f       	mul	r22, r26
    7bcc:	c0 01       	movw	r24, r0
    7bce:	6b 9f       	mul	r22, r27
    7bd0:	90 0d       	add	r25, r0
    7bd2:	7a 9f       	mul	r23, r26
    7bd4:	90 0d       	add	r25, r0
    7bd6:	11 24       	eor	r1, r1
    7bd8:	69 81       	ldd	r22, Y+1	; 0x01
    7bda:	7a 81       	ldd	r23, Y+2	; 0x02
    7bdc:	68 0f       	add	r22, r24
    7bde:	79 1f       	adc	r23, r25
    7be0:	06 84       	ldd	r0, Z+14	; 0x0e
    7be2:	f7 85       	ldd	r31, Z+15	; 0x0f
    7be4:	e0 2d       	mov	r30, r0
    7be6:	ef 80       	ldd	r14, Y+7	; 0x07
    7be8:	f8 84       	ldd	r15, Y+8	; 0x08
    7bea:	09 85       	ldd	r16, Y+9	; 0x09
    7bec:	1a 85       	ldd	r17, Y+10	; 0x0a
    7bee:	9d 01       	movw	r18, r26
    7bf0:	4f 85       	ldd	r20, Y+15	; 0x0f
    7bf2:	58 89       	ldd	r21, Y+16	; 0x10
    7bf4:	89 8d       	ldd	r24, Y+25	; 0x19
    7bf6:	9a 8d       	ldd	r25, Y+26	; 0x1a
    7bf8:	09 95       	icall
    7bfa:	d8 cf       	rjmp	.-80     	; 0x7bac <Adafruit_GFX::drawChar(int, int, unsigned char, unsigned int, unsigned int, unsigned char, unsigned char)+0x3c2>
    7bfc:	57 0c       	add	r5, r7
    7bfe:	c3 94       	inc	r12
    7c00:	8a cf       	rjmp	.-236    	; 0x7b16 <Adafruit_GFX::drawChar(int, int, unsigned char, unsigned int, unsigned int, unsigned char, unsigned char)+0x32c>
    7c02:	6a 96       	adiw	r28, 0x1a	; 26
    7c04:	0f b6       	in	r0, 0x3f	; 63
    7c06:	f8 94       	cli
    7c08:	de bf       	out	0x3e, r29	; 62
    7c0a:	0f be       	out	0x3f, r0	; 63
    7c0c:	cd bf       	out	0x3d, r28	; 61
    7c0e:	df 91       	pop	r29
    7c10:	cf 91       	pop	r28
    7c12:	1f 91       	pop	r17
    7c14:	0f 91       	pop	r16
    7c16:	ff 90       	pop	r15
    7c18:	ef 90       	pop	r14
    7c1a:	df 90       	pop	r13
    7c1c:	cf 90       	pop	r12
    7c1e:	bf 90       	pop	r11
    7c20:	af 90       	pop	r10
    7c22:	9f 90       	pop	r9
    7c24:	8f 90       	pop	r8
    7c26:	7f 90       	pop	r7
    7c28:	6f 90       	pop	r6
    7c2a:	5f 90       	pop	r5
    7c2c:	4f 90       	pop	r4
    7c2e:	3f 90       	pop	r3
    7c30:	2f 90       	pop	r2
    7c32:	08 95       	ret

00007c34 <Adafruit_GFX::write(unsigned char)>:
/*!
    @brief  Print one byte/character of data, used to support print()
    @param  c  The 8-bit ascii character to write
*/
/**************************************************************************/
size_t Adafruit_GFX::write(uint8_t c) {
    7c34:	8f 92       	push	r8
    7c36:	9f 92       	push	r9
    7c38:	af 92       	push	r10
    7c3a:	cf 92       	push	r12
    7c3c:	ef 92       	push	r14
    7c3e:	ff 92       	push	r15
    7c40:	0f 93       	push	r16
    7c42:	1f 93       	push	r17
    7c44:	cf 93       	push	r28
    7c46:	df 93       	push	r29
    7c48:	ec 01       	movw	r28, r24
    7c4a:	26 2f       	mov	r18, r22
    if(!gfxFont) { // 'Classic' built-in font
    7c4c:	88 8d       	ldd	r24, Y+24	; 0x18
    7c4e:	99 8d       	ldd	r25, Y+25	; 0x19
    7c50:	00 97       	sbiw	r24, 0x00	; 0
    7c52:	09 f0       	breq	.+2      	; 0x7c56 <Adafruit_GFX::write(unsigned char)+0x22>
    7c54:	50 c0       	rjmp	.+160    	; 0x7cf6 <Adafruit_GFX::write(unsigned char)+0xc2>

        if(c == '\n') {                        // Newline?
    7c56:	6a 30       	cpi	r22, 0x0A	; 10
    7c58:	d1 f4       	brne	.+52     	; 0x7c8e <Adafruit_GFX::write(unsigned char)+0x5a>
            cursor_x  = 0;                     // Reset x to zero,
    7c5a:	1c 86       	std	Y+12, r1	; 0x0c
    7c5c:	1b 86       	std	Y+11, r1	; 0x0b
            cursor_y += textsize_y * 8;        // advance y one line
    7c5e:	8c 89       	ldd	r24, Y+20	; 0x14
    7c60:	48 e0       	ldi	r20, 0x08	; 8
    7c62:	84 9f       	mul	r24, r20
    7c64:	90 01       	movw	r18, r0
    7c66:	11 24       	eor	r1, r1
    7c68:	8d 85       	ldd	r24, Y+13	; 0x0d
    7c6a:	9e 85       	ldd	r25, Y+14	; 0x0e
    7c6c:	82 0f       	add	r24, r18
    7c6e:	93 1f       	adc	r25, r19

    } else { // Custom font

        if(c == '\n') {
            cursor_x  = 0;
            cursor_y += (int16_t)textsize_y *
    7c70:	9e 87       	std	Y+14, r25	; 0x0e
    7c72:	8d 87       	std	Y+13, r24	; 0x0d
            }
        }

    }
    return 1;
}
    7c74:	81 e0       	ldi	r24, 0x01	; 1
    7c76:	90 e0       	ldi	r25, 0x00	; 0
    7c78:	df 91       	pop	r29
    7c7a:	cf 91       	pop	r28
    7c7c:	1f 91       	pop	r17
    7c7e:	0f 91       	pop	r16
    7c80:	ff 90       	pop	r15
    7c82:	ef 90       	pop	r14
    7c84:	cf 90       	pop	r12
    7c86:	af 90       	pop	r10
    7c88:	9f 90       	pop	r9
    7c8a:	8f 90       	pop	r8
    7c8c:	08 95       	ret
    if(!gfxFont) { // 'Classic' built-in font

        if(c == '\n') {                        // Newline?
            cursor_x  = 0;                     // Reset x to zero,
            cursor_y += textsize_y * 8;        // advance y one line
        } else if(c != '\r') {                 // Ignore carriage returns
    7c8e:	6d 30       	cpi	r22, 0x0D	; 13
    7c90:	89 f3       	breq	.-30     	; 0x7c74 <Adafruit_GFX::write(unsigned char)+0x40>
    7c92:	cb 88       	ldd	r12, Y+19	; 0x13
    7c94:	ac 88       	ldd	r10, Y+20	; 0x14
            if(wrap && ((cursor_x + textsize_x * 6) > _width)) { // Off right?
    7c96:	8e 89       	ldd	r24, Y+22	; 0x16
    7c98:	88 23       	and	r24, r24
    7c9a:	c1 f0       	breq	.+48     	; 0x7ccc <Adafruit_GFX::write(unsigned char)+0x98>
    7c9c:	8b 85       	ldd	r24, Y+11	; 0x0b
    7c9e:	9c 85       	ldd	r25, Y+12	; 0x0c
    7ca0:	36 e0       	ldi	r19, 0x06	; 6
    7ca2:	c3 9e       	mul	r12, r19
    7ca4:	80 0d       	add	r24, r0
    7ca6:	91 1d       	adc	r25, r1
    7ca8:	11 24       	eor	r1, r1
    7caa:	4f 81       	ldd	r20, Y+7	; 0x07
    7cac:	58 85       	ldd	r21, Y+8	; 0x08
    7cae:	48 17       	cp	r20, r24
    7cb0:	59 07       	cpc	r21, r25
    7cb2:	64 f4       	brge	.+24     	; 0x7ccc <Adafruit_GFX::write(unsigned char)+0x98>
    7cb4:	4d 85       	ldd	r20, Y+13	; 0x0d
    7cb6:	5e 85       	ldd	r21, Y+14	; 0x0e
                cursor_x  = 0;                 // Reset x to zero,
    7cb8:	1c 86       	std	Y+12, r1	; 0x0c
    7cba:	1b 86       	std	Y+11, r1	; 0x0b
                cursor_y += textsize_y * 8;    // advance y one line
    7cbc:	38 e0       	ldi	r19, 0x08	; 8
    7cbe:	a3 9e       	mul	r10, r19
    7cc0:	c0 01       	movw	r24, r0
    7cc2:	11 24       	eor	r1, r1
    7cc4:	84 0f       	add	r24, r20
    7cc6:	95 1f       	adc	r25, r21
    7cc8:	9e 87       	std	Y+14, r25	; 0x0e
    7cca:	8d 87       	std	Y+13, r24	; 0x0d
            }
            drawChar(cursor_x, cursor_y, c, textcolor, textbgcolor, textsize_x, textsize_y);
    7ccc:	e9 88       	ldd	r14, Y+17	; 0x11
    7cce:	fa 88       	ldd	r15, Y+18	; 0x12
    7cd0:	0f 85       	ldd	r16, Y+15	; 0x0f
    7cd2:	18 89       	ldd	r17, Y+16	; 0x10
    7cd4:	4d 85       	ldd	r20, Y+13	; 0x0d
    7cd6:	5e 85       	ldd	r21, Y+14	; 0x0e
    7cd8:	6b 85       	ldd	r22, Y+11	; 0x0b
    7cda:	7c 85       	ldd	r23, Y+12	; 0x0c
    7cdc:	ce 01       	movw	r24, r28
    7cde:	85 dd       	rcall	.-1270   	; 0x77ea <Adafruit_GFX::drawChar(int, int, unsigned char, unsigned int, unsigned int, unsigned char, unsigned char)>
            cursor_x += textsize_x * 6;          // Advance x one char
    7ce0:	2b 89       	ldd	r18, Y+19	; 0x13
    7ce2:	8b 85       	ldd	r24, Y+11	; 0x0b
    7ce4:	9c 85       	ldd	r25, Y+12	; 0x0c
    7ce6:	46 e0       	ldi	r20, 0x06	; 6
    7ce8:	24 9f       	mul	r18, r20
    7cea:	80 0d       	add	r24, r0
    7cec:	91 1d       	adc	r25, r1
    7cee:	11 24       	eor	r1, r1
                        cursor_y += (int16_t)textsize_y *
                          (uint8_t)pgm_read_byte(&gfxFont->yAdvance);
                    }
                    drawChar(cursor_x, cursor_y, c, textcolor, textbgcolor, textsize_x, textsize_y);
                }
                cursor_x += (uint8_t)pgm_read_byte(&glyph->xAdvance) * (int16_t)textsize_x;
    7cf0:	9c 87       	std	Y+12, r25	; 0x0c
    7cf2:	8b 87       	std	Y+11, r24	; 0x0b
    7cf4:	bf cf       	rjmp	.-130    	; 0x7c74 <Adafruit_GFX::write(unsigned char)+0x40>
            cursor_x += textsize_x * 6;          // Advance x one char
        }

    } else { // Custom font

        if(c == '\n') {
    7cf6:	6a 30       	cpi	r22, 0x0A	; 10
    7cf8:	69 f4       	brne	.+26     	; 0x7d14 <Adafruit_GFX::write(unsigned char)+0xe0>
            cursor_x  = 0;
    7cfa:	1c 86       	std	Y+12, r1	; 0x0c
    7cfc:	1b 86       	std	Y+11, r1	; 0x0b
            cursor_y += (int16_t)textsize_y *
                        (uint8_t)pgm_read_byte(&gfxFont->yAdvance);
    7cfe:	fc 01       	movw	r30, r24
    7d00:	36 96       	adiw	r30, 0x06	; 6
    7d02:	e4 91       	lpm	r30, Z

    } else { // Custom font

        if(c == '\n') {
            cursor_x  = 0;
            cursor_y += (int16_t)textsize_y *
    7d04:	2c 89       	ldd	r18, Y+20	; 0x14
    7d06:	8d 85       	ldd	r24, Y+13	; 0x0d
    7d08:	9e 85       	ldd	r25, Y+14	; 0x0e
    7d0a:	e2 9f       	mul	r30, r18
    7d0c:	80 0d       	add	r24, r0
    7d0e:	91 1d       	adc	r25, r1
    7d10:	11 24       	eor	r1, r1
    7d12:	ae cf       	rjmp	.-164    	; 0x7c70 <Adafruit_GFX::write(unsigned char)+0x3c>
                        (uint8_t)pgm_read_byte(&gfxFont->yAdvance);
        } else if(c != '\r') {
    7d14:	6d 30       	cpi	r22, 0x0D	; 13
    7d16:	09 f4       	brne	.+2      	; 0x7d1a <Adafruit_GFX::write(unsigned char)+0xe6>
    7d18:	ad cf       	rjmp	.-166    	; 0x7c74 <Adafruit_GFX::write(unsigned char)+0x40>
            uint8_t first = pgm_read_byte(&gfxFont->first);
    7d1a:	fc 01       	movw	r30, r24
    7d1c:	34 96       	adiw	r30, 0x04	; 4
    7d1e:	34 91       	lpm	r19, Z
            if((c >= first) && (c <= (uint8_t)pgm_read_byte(&gfxFont->last))) {
    7d20:	63 17       	cp	r22, r19
    7d22:	08 f4       	brcc	.+2      	; 0x7d26 <Adafruit_GFX::write(unsigned char)+0xf2>
    7d24:	a7 cf       	rjmp	.-178    	; 0x7c74 <Adafruit_GFX::write(unsigned char)+0x40>
    7d26:	31 96       	adiw	r30, 0x01	; 1
    7d28:	e4 91       	lpm	r30, Z
    7d2a:	e6 17       	cp	r30, r22
    7d2c:	08 f4       	brcc	.+2      	; 0x7d30 <Adafruit_GFX::write(unsigned char)+0xfc>
    7d2e:	a2 cf       	rjmp	.-188    	; 0x7c74 <Adafruit_GFX::write(unsigned char)+0x40>
#endif

inline GFXglyph * pgm_read_glyph_ptr(const GFXfont *gfxFont, uint8_t c)
{
#ifdef __AVR__
    return &(((GFXglyph *)pgm_read_pointer(&gfxFont->glyph))[c]);
    7d30:	fc 01       	movw	r30, r24
    7d32:	32 96       	adiw	r30, 0x02	; 2
    7d34:	85 90       	lpm	r8, Z+
    7d36:	94 90       	lpm	r9, Z
            cursor_y += (int16_t)textsize_y *
                        (uint8_t)pgm_read_byte(&gfxFont->yAdvance);
        } else if(c != '\r') {
            uint8_t first = pgm_read_byte(&gfxFont->first);
            if((c >= first) && (c <= (uint8_t)pgm_read_byte(&gfxFont->last))) {
                GFXglyph *glyph  = pgm_read_glyph_ptr(gfxFont, c - first);
    7d38:	46 2f       	mov	r20, r22
    7d3a:	43 1b       	sub	r20, r19
    7d3c:	34 2f       	mov	r19, r20
#endif

inline GFXglyph * pgm_read_glyph_ptr(const GFXfont *gfxFont, uint8_t c)
{
#ifdef __AVR__
    return &(((GFXglyph *)pgm_read_pointer(&gfxFont->glyph))[c]);
    7d3e:	47 e0       	ldi	r20, 0x07	; 7
    7d40:	34 9f       	mul	r19, r20
    7d42:	80 0c       	add	r8, r0
    7d44:	91 1c       	adc	r9, r1
    7d46:	11 24       	eor	r1, r1
                        (uint8_t)pgm_read_byte(&gfxFont->yAdvance);
        } else if(c != '\r') {
            uint8_t first = pgm_read_byte(&gfxFont->first);
            if((c >= first) && (c <= (uint8_t)pgm_read_byte(&gfxFont->last))) {
                GFXglyph *glyph  = pgm_read_glyph_ptr(gfxFont, c - first);
                uint8_t   w     = pgm_read_byte(&glyph->width),
    7d48:	f4 01       	movw	r30, r8
    7d4a:	32 96       	adiw	r30, 0x02	; 2
    7d4c:	34 91       	lpm	r19, Z
                          h     = pgm_read_byte(&glyph->height);
    7d4e:	31 96       	adiw	r30, 0x01	; 1
    7d50:	e4 91       	lpm	r30, Z
                if((w > 0) && (h > 0)) { // Is there an associated bitmap?
    7d52:	33 23       	and	r19, r19
    7d54:	a1 f1       	breq	.+104    	; 0x7dbe <Adafruit_GFX::write(unsigned char)+0x18a>
    7d56:	ee 23       	and	r30, r30
    7d58:	91 f1       	breq	.+100    	; 0x7dbe <Adafruit_GFX::write(unsigned char)+0x18a>
    7d5a:	cb 88       	ldd	r12, Y+19	; 0x13
                    int16_t xo = (int8_t)pgm_read_byte(&glyph->xOffset); // sic
    7d5c:	f4 01       	movw	r30, r8
    7d5e:	35 96       	adiw	r30, 0x05	; 5
    7d60:	e4 91       	lpm	r30, Z
    7d62:	ac 88       	ldd	r10, Y+20	; 0x14
                    if(wrap && ((cursor_x + textsize_x * (xo + w)) > _width)) {
    7d64:	4e 89       	ldd	r20, Y+22	; 0x16
    7d66:	44 23       	and	r20, r20
    7d68:	01 f1       	breq	.+64     	; 0x7daa <Adafruit_GFX::write(unsigned char)+0x176>
            if((c >= first) && (c <= (uint8_t)pgm_read_byte(&gfxFont->last))) {
                GFXglyph *glyph  = pgm_read_glyph_ptr(gfxFont, c - first);
                uint8_t   w     = pgm_read_byte(&glyph->width),
                          h     = pgm_read_byte(&glyph->height);
                if((w > 0) && (h > 0)) { // Is there an associated bitmap?
                    int16_t xo = (int8_t)pgm_read_byte(&glyph->xOffset); // sic
    7d6a:	0e 2e       	mov	r0, r30
    7d6c:	00 0c       	add	r0, r0
    7d6e:	ff 0b       	sbc	r31, r31
                    if(wrap && ((cursor_x + textsize_x * (xo + w)) > _width)) {
    7d70:	e3 0f       	add	r30, r19
    7d72:	f1 1d       	adc	r31, r1
    7d74:	ce 9e       	mul	r12, r30
    7d76:	a0 01       	movw	r20, r0
    7d78:	cf 9e       	mul	r12, r31
    7d7a:	50 0d       	add	r21, r0
    7d7c:	11 24       	eor	r1, r1
    7d7e:	6b 85       	ldd	r22, Y+11	; 0x0b
    7d80:	7c 85       	ldd	r23, Y+12	; 0x0c
    7d82:	46 0f       	add	r20, r22
    7d84:	57 1f       	adc	r21, r23
    7d86:	6f 81       	ldd	r22, Y+7	; 0x07
    7d88:	78 85       	ldd	r23, Y+8	; 0x08
    7d8a:	64 17       	cp	r22, r20
    7d8c:	75 07       	cpc	r23, r21
    7d8e:	6c f4       	brge	.+26     	; 0x7daa <Adafruit_GFX::write(unsigned char)+0x176>
    7d90:	4d 85       	ldd	r20, Y+13	; 0x0d
    7d92:	5e 85       	ldd	r21, Y+14	; 0x0e
                        cursor_x  = 0;
    7d94:	1c 86       	std	Y+12, r1	; 0x0c
    7d96:	1b 86       	std	Y+11, r1	; 0x0b
                        cursor_y += (int16_t)textsize_y *
                          (uint8_t)pgm_read_byte(&gfxFont->yAdvance);
    7d98:	fc 01       	movw	r30, r24
    7d9a:	36 96       	adiw	r30, 0x06	; 6
    7d9c:	e4 91       	lpm	r30, Z
                          h     = pgm_read_byte(&glyph->height);
                if((w > 0) && (h > 0)) { // Is there an associated bitmap?
                    int16_t xo = (int8_t)pgm_read_byte(&glyph->xOffset); // sic
                    if(wrap && ((cursor_x + textsize_x * (xo + w)) > _width)) {
                        cursor_x  = 0;
                        cursor_y += (int16_t)textsize_y *
    7d9e:	ae 9e       	mul	r10, r30
    7da0:	40 0d       	add	r20, r0
    7da2:	51 1d       	adc	r21, r1
    7da4:	11 24       	eor	r1, r1
    7da6:	5e 87       	std	Y+14, r21	; 0x0e
    7da8:	4d 87       	std	Y+13, r20	; 0x0d
                          (uint8_t)pgm_read_byte(&gfxFont->yAdvance);
                    }
                    drawChar(cursor_x, cursor_y, c, textcolor, textbgcolor, textsize_x, textsize_y);
    7daa:	e9 88       	ldd	r14, Y+17	; 0x11
    7dac:	fa 88       	ldd	r15, Y+18	; 0x12
    7dae:	0f 85       	ldd	r16, Y+15	; 0x0f
    7db0:	18 89       	ldd	r17, Y+16	; 0x10
    7db2:	4d 85       	ldd	r20, Y+13	; 0x0d
    7db4:	5e 85       	ldd	r21, Y+14	; 0x0e
    7db6:	6b 85       	ldd	r22, Y+11	; 0x0b
    7db8:	7c 85       	ldd	r23, Y+12	; 0x0c
    7dba:	ce 01       	movw	r24, r28
    7dbc:	16 dd       	rcall	.-1492   	; 0x77ea <Adafruit_GFX::drawChar(int, int, unsigned char, unsigned int, unsigned int, unsigned char, unsigned char)>
                }
                cursor_x += (uint8_t)pgm_read_byte(&glyph->xAdvance) * (int16_t)textsize_x;
    7dbe:	f4 01       	movw	r30, r8
    7dc0:	34 96       	adiw	r30, 0x04	; 4
    7dc2:	e4 91       	lpm	r30, Z
    7dc4:	2b 89       	ldd	r18, Y+19	; 0x13
    7dc6:	8b 85       	ldd	r24, Y+11	; 0x0b
    7dc8:	9c 85       	ldd	r25, Y+12	; 0x0c
    7dca:	e2 9f       	mul	r30, r18
    7dcc:	80 0d       	add	r24, r0
    7dce:	91 1d       	adc	r25, r1
    7dd0:	11 24       	eor	r1, r1
    7dd2:	8e cf       	rjmp	.-228    	; 0x7cf0 <Adafruit_GFX::write(unsigned char)+0xbc>

00007dd4 <Adafruit_GFX::setTextSize(unsigned char, unsigned char)>:
    @param  s_x  Desired text width magnification level in X-axis. 1 is default
    @param  s_y  Desired text width magnification level in Y-axis. 1 is default
*/
/**************************************************************************/
void Adafruit_GFX::setTextSize(uint8_t s_x, uint8_t s_y) {
    textsize_x = (s_x > 0) ? s_x : 1;
    7dd4:	61 11       	cpse	r22, r1
    7dd6:	01 c0       	rjmp	.+2      	; 0x7dda <Adafruit_GFX::setTextSize(unsigned char, unsigned char)+0x6>
    7dd8:	61 e0       	ldi	r22, 0x01	; 1
    7dda:	fc 01       	movw	r30, r24
    7ddc:	63 8b       	std	Z+19, r22	; 0x13
    textsize_y = (s_y > 0) ? s_y : 1;
    7dde:	41 11       	cpse	r20, r1
    7de0:	01 c0       	rjmp	.+2      	; 0x7de4 <Adafruit_GFX::setTextSize(unsigned char, unsigned char)+0x10>
    7de2:	41 e0       	ldi	r20, 0x01	; 1
    7de4:	fc 01       	movw	r30, r24
    7de6:	44 8b       	std	Z+20, r20	; 0x14
}
    7de8:	08 95       	ret

00007dea <Adafruit_GFX::setTextSize(unsigned char)>:
    @brief   Set text 'magnification' size. Each increase in s makes 1 pixel that much bigger.
    @param  s  Desired text size. 1 is default 6x8, 2 is 12x16, 3 is 18x24, etc
*/
/**************************************************************************/
void Adafruit_GFX::setTextSize(uint8_t s) {
    setTextSize(s, s);
    7dea:	46 2f       	mov	r20, r22
    7dec:	f3 cf       	rjmp	.-26     	; 0x7dd4 <Adafruit_GFX::setTextSize(unsigned char, unsigned char)>

00007dee <FastLED_NeoMatrix::FastLED_NeoMatrix(CRGB*, unsigned int, unsigned int, unsigned char)>:
    matrixWidth = mW;
    matrixHeight = mH;
    type = matrixType;
    tilesX = tX;
    tilesY = tY;
}
    7dee:	ff 92       	push	r15
    7df0:	0f 93       	push	r16
    7df2:	1f 93       	push	r17
    7df4:	cf 93       	push	r28
    7df6:	df 93       	push	r29
    7df8:	ec 01       	movw	r28, r24
    7dfa:	f0 2e       	mov	r15, r16
    7dfc:	10 e0       	ldi	r17, 0x00	; 0
    7dfe:	00 e0       	ldi	r16, 0x00	; 0
    7e00:	20 d0       	rcall	.+64     	; 0x7e42 <Framebuffer_GFX::Framebuffer_GFX(CRGB*, unsigned int, unsigned int, void (*)())>
    7e02:	83 e3       	ldi	r24, 0x33	; 51
    7e04:	99 e0       	ldi	r25, 0x09	; 9
    7e06:	99 83       	std	Y+1, r25	; 0x01
    7e08:	88 83       	st	Y, r24
    7e0a:	fe 01       	movw	r30, r28
    7e0c:	e6 5e       	subi	r30, 0xE6	; 230
    7e0e:	fe 4f       	sbci	r31, 0xFE	; 254
    7e10:	f0 82       	st	Z, r15
    7e12:	31 96       	adiw	r30, 0x01	; 1
    7e14:	10 82       	st	Z, r1
    7e16:	c4 5e       	subi	r28, 0xE4	; 228
    7e18:	de 4f       	sbci	r29, 0xFE	; 254
    7e1a:	18 82       	st	Y, r1
    7e1c:	df 91       	pop	r29
    7e1e:	cf 91       	pop	r28
    7e20:	1f 91       	pop	r17
    7e22:	0f 91       	pop	r16
    7e24:	ff 90       	pop	r15
    7e26:	08 95       	ret

00007e28 <FastLED_NeoMatrix::show()>:

void FastLED_NeoMatrix::show() {
  if (_show) { _show(); return; };
    7e28:	8d 5d       	subi	r24, 0xDD	; 221
    7e2a:	9e 4f       	sbci	r25, 0xFE	; 254
    7e2c:	dc 01       	movw	r26, r24
    7e2e:	ed 91       	ld	r30, X+
    7e30:	fc 91       	ld	r31, X
    7e32:	30 97       	sbiw	r30, 0x00	; 0
    7e34:	09 f0       	breq	.+2      	; 0x7e38 <FastLED_NeoMatrix::show()+0x10>
    7e36:	09 94       	ijmp
	/// Update all our controllers with the current led colors, using the passed in brightness
	/// @param scale temporarily override the scale
	void show(uint8_t scale);

	/// Update all our controllers with the current led colors
	void show() { show(m_Scale); }
    7e38:	60 91 da 10 	lds	r22, 0x10DA	; 0x8010da <FastLED>
    7e3c:	8a ed       	ldi	r24, 0xDA	; 218
    7e3e:	90 e1       	ldi	r25, 0x10	; 16
    7e40:	48 c4       	rjmp	.+2192   	; 0x86d2 <CFastLED::show(unsigned char)>

00007e42 <Framebuffer_GFX::Framebuffer_GFX(CRGB*, unsigned int, unsigned int, void (*)())>:
}

// Call without a value to reset (disable passthrough)
void Framebuffer_GFX::setPassThruColor(void) {
  passThruFlag = false;
}
    7e42:	af 92       	push	r10
    7e44:	bf 92       	push	r11
    7e46:	cf 92       	push	r12
    7e48:	df 92       	push	r13
    7e4a:	ef 92       	push	r14
    7e4c:	ff 92       	push	r15
    7e4e:	0f 93       	push	r16
    7e50:	1f 93       	push	r17
    7e52:	cf 93       	push	r28
    7e54:	df 93       	push	r29
    7e56:	ec 01       	movw	r28, r24
    7e58:	5b 01       	movw	r10, r22
    7e5a:	7a 01       	movw	r14, r20
    7e5c:	69 01       	movw	r12, r18
    7e5e:	a9 01       	movw	r20, r18
    7e60:	b7 01       	movw	r22, r14
    7e62:	f2 da       	rcall	.-2588   	; 0x7448 <Adafruit_GFX::Adafruit_GFX(int, int)>
    7e64:	86 e9       	ldi	r24, 0x96	; 150
    7e66:	99 e0       	ldi	r25, 0x09	; 9
    7e68:	99 83       	std	Y+1, r25	; 0x01
    7e6a:	88 83       	st	Y, r24
    7e6c:	fe 01       	movw	r30, r28
    7e6e:	e3 5e       	subi	r30, 0xE3	; 227
    7e70:	fe 4f       	sbci	r31, 0xFE	; 254
    7e72:	f1 82       	std	Z+1, r15	; 0x01
    7e74:	e0 82       	st	Z, r14
    7e76:	32 96       	adiw	r30, 0x02	; 2
    7e78:	d1 82       	std	Z+1, r13	; 0x01
    7e7a:	c0 82       	st	Z, r12
    7e7c:	32 96       	adiw	r30, 0x02	; 2
    7e7e:	80 e1       	ldi	r24, 0x10	; 16
    7e80:	97 e2       	ldi	r25, 0x27	; 39
    7e82:	91 83       	std	Z+1, r25	; 0x01
    7e84:	80 83       	st	Z, r24
    7e86:	36 96       	adiw	r30, 0x06	; 6
    7e88:	11 82       	std	Z+1, r1	; 0x01
    7e8a:	10 82       	st	Z, r1
    7e8c:	3a 96       	adiw	r30, 0x0a	; 10
    7e8e:	10 82       	st	Z, r1
    7e90:	3c 97       	sbiw	r30, 0x0c	; 12
    7e92:	b1 82       	std	Z+1, r11	; 0x01
    7e94:	a0 82       	st	Z, r10
    7e96:	32 97       	sbiw	r30, 0x02	; 2
    7e98:	11 83       	std	Z+1, r17	; 0x01
    7e9a:	00 83       	st	Z, r16
    7e9c:	39 97       	sbiw	r30, 0x09	; 9
    7e9e:	10 82       	st	Z, r1
    7ea0:	31 96       	adiw	r30, 0x01	; 1
    7ea2:	10 82       	st	Z, r1
    7ea4:	31 96       	adiw	r30, 0x01	; 1
    7ea6:	10 82       	st	Z, r1
    7ea8:	c7 5d       	subi	r28, 0xD7	; 215
    7eaa:	de 4f       	sbci	r29, 0xFE	; 254
    7eac:	ce 9c       	mul	r12, r14
    7eae:	c0 01       	movw	r24, r0
    7eb0:	cf 9c       	mul	r12, r15
    7eb2:	90 0d       	add	r25, r0
    7eb4:	de 9c       	mul	r13, r14
    7eb6:	90 0d       	add	r25, r0
    7eb8:	11 24       	eor	r1, r1
    7eba:	b0 e0       	ldi	r27, 0x00	; 0
    7ebc:	a0 e0       	ldi	r26, 0x00	; 0
    7ebe:	88 83       	st	Y, r24
    7ec0:	99 83       	std	Y+1, r25	; 0x01
    7ec2:	aa 83       	std	Y+2, r26	; 0x02
    7ec4:	bb 83       	std	Y+3, r27	; 0x03
    7ec6:	df 91       	pop	r29
    7ec8:	cf 91       	pop	r28
    7eca:	1f 91       	pop	r17
    7ecc:	0f 91       	pop	r16
    7ece:	ff 90       	pop	r15
    7ed0:	ef 90       	pop	r14
    7ed2:	df 90       	pop	r13
    7ed4:	cf 90       	pop	r12
    7ed6:	bf 90       	pop	r11
    7ed8:	af 90       	pop	r10
    7eda:	08 95       	ret

00007edc <Framebuffer_GFX::begin()>:
    7edc:	cf 93       	push	r28
    7ede:	df 93       	push	r29
    7ee0:	ec 01       	movw	r28, r24
    7ee2:	6b e5       	ldi	r22, 0x5B	; 91
    7ee4:	79 e0       	ldi	r23, 0x09	; 9
    7ee6:	8a e6       	ldi	r24, 0x6A	; 106
    7ee8:	91 e1       	ldi	r25, 0x11	; 17
    7eea:	0e 94 44 08 	call	0x1088	; 0x1088 <Print::write(char const*)>
    7eee:	fe 01       	movw	r30, r28
    7ef0:	e3 5e       	subi	r30, 0xE3	; 227
    7ef2:	fe 4f       	sbci	r31, 0xFE	; 254
    7ef4:	40 81       	ld	r20, Z
    7ef6:	51 81       	ldd	r21, Z+1	; 0x01
    7ef8:	70 e0       	ldi	r23, 0x00	; 0
    7efa:	60 e0       	ldi	r22, 0x00	; 0
    7efc:	20 e0       	ldi	r18, 0x00	; 0
    7efe:	8a e6       	ldi	r24, 0x6A	; 106
    7f00:	91 e1       	ldi	r25, 0x11	; 17
    7f02:	0e 94 38 4e 	call	0x9c70	; 0x9c70 <Print::printNumberDec(unsigned long, unsigned char)>
    7f06:	6a e7       	ldi	r22, 0x7A	; 122
    7f08:	79 e0       	ldi	r23, 0x09	; 9
    7f0a:	8a e6       	ldi	r24, 0x6A	; 106
    7f0c:	91 e1       	ldi	r25, 0x11	; 17
    7f0e:	0e 94 44 08 	call	0x1088	; 0x1088 <Print::write(char const*)>
    7f12:	fe 01       	movw	r30, r28
    7f14:	e1 5e       	subi	r30, 0xE1	; 225
    7f16:	fe 4f       	sbci	r31, 0xFE	; 254
    7f18:	40 81       	ld	r20, Z
    7f1a:	51 81       	ldd	r21, Z+1	; 0x01
    7f1c:	70 e0       	ldi	r23, 0x00	; 0
    7f1e:	60 e0       	ldi	r22, 0x00	; 0
    7f20:	20 e0       	ldi	r18, 0x00	; 0
    7f22:	8a e6       	ldi	r24, 0x6A	; 106
    7f24:	91 e1       	ldi	r25, 0x11	; 17
    7f26:	0e 94 38 4e 	call	0x9c70	; 0x9c70 <Print::printNumberDec(unsigned long, unsigned char)>
    7f2a:	64 e8       	ldi	r22, 0x84	; 132
    7f2c:	79 e0       	ldi	r23, 0x09	; 9
    7f2e:	8a e6       	ldi	r24, 0x6A	; 106
    7f30:	91 e1       	ldi	r25, 0x11	; 17
    7f32:	0e 94 44 08 	call	0x1088	; 0x1088 <Print::write(char const*)>
    7f36:	c7 5d       	subi	r28, 0xD7	; 215
    7f38:	de 4f       	sbci	r29, 0xFE	; 254
    7f3a:	48 81       	ld	r20, Y
    7f3c:	59 81       	ldd	r21, Y+1	; 0x01
    7f3e:	6a 81       	ldd	r22, Y+2	; 0x02
    7f40:	7b 81       	ldd	r23, Y+3	; 0x03
    7f42:	20 e0       	ldi	r18, 0x00	; 0
    7f44:	8a e6       	ldi	r24, 0x6A	; 106
    7f46:	91 e1       	ldi	r25, 0x11	; 17
    7f48:	0e 94 38 4e 	call	0x9c70	; 0x9c70 <Print::printNumberDec(unsigned long, unsigned char)>
    7f4c:	8a e6       	ldi	r24, 0x6A	; 106
    7f4e:	91 e1       	ldi	r25, 0x11	; 17
    7f50:	df 91       	pop	r29
    7f52:	cf 91       	pop	r28
    7f54:	0c 94 1e 4e 	jmp	0x9c3c	; 0x9c3c <Print::println()>

00007f58 <Framebuffer_GFX::expandColor(unsigned int)>:
    7f58:	fc 01       	movw	r30, r24
    7f5a:	ef 2f       	mov	r30, r31
    7f5c:	ff 27       	eor	r31, r31
    7f5e:	e6 95       	lsr	r30
    7f60:	e6 95       	lsr	r30
    7f62:	e6 95       	lsr	r30
    7f64:	e8 56       	subi	r30, 0x68	; 104
    7f66:	f4 4f       	sbci	r31, 0xF4	; 244
    7f68:	24 91       	lpm	r18, Z
    7f6a:	fc 01       	movw	r30, r24
    7f6c:	35 e0       	ldi	r19, 0x05	; 5
    7f6e:	f6 95       	lsr	r31
    7f70:	e7 95       	ror	r30
    7f72:	3a 95       	dec	r19
    7f74:	e1 f7       	brne	.-8      	; 0x7f6e <Framebuffer_GFX::expandColor(unsigned int)+0x16>
    7f76:	ef 73       	andi	r30, 0x3F	; 63
    7f78:	ff 27       	eor	r31, r31
    7f7a:	e8 5a       	subi	r30, 0xA8	; 168
    7f7c:	f4 4f       	sbci	r31, 0xF4	; 244
    7f7e:	64 91       	lpm	r22, Z
    7f80:	8f 71       	andi	r24, 0x1F	; 31
    7f82:	99 27       	eor	r25, r25
    7f84:	fc 01       	movw	r30, r24
    7f86:	e8 56       	subi	r30, 0x68	; 104
    7f88:	f4 4f       	sbci	r31, 0xF4	; 244
    7f8a:	e4 91       	lpm	r30, Z
    7f8c:	70 e0       	ldi	r23, 0x00	; 0
    7f8e:	90 e0       	ldi	r25, 0x00	; 0
    7f90:	80 e0       	ldi	r24, 0x00	; 0
    7f92:	98 2f       	mov	r25, r24
    7f94:	87 2f       	mov	r24, r23
    7f96:	76 2f       	mov	r23, r22
    7f98:	66 27       	eor	r22, r22
    7f9a:	82 2b       	or	r24, r18
    7f9c:	6e 2b       	or	r22, r30
    7f9e:	08 95       	ret

00007fa0 <Framebuffer_GFX::fillScreen(unsigned int)>:
    7fa0:	8f 92       	push	r8
    7fa2:	9f 92       	push	r9
    7fa4:	af 92       	push	r10
    7fa6:	bf 92       	push	r11
    7fa8:	cf 92       	push	r12
    7faa:	df 92       	push	r13
    7fac:	ef 92       	push	r14
    7fae:	ff 92       	push	r15
    7fb0:	cf 93       	push	r28
    7fb2:	df 93       	push	r29
    7fb4:	ec 01       	movw	r28, r24
    7fb6:	cb 01       	movw	r24, r22
    7fb8:	fe 01       	movw	r30, r28
    7fba:	ef 5c       	subi	r30, 0xCF	; 207
    7fbc:	fe 4f       	sbci	r31, 0xFE	; 254
    7fbe:	20 81       	ld	r18, Z
    7fc0:	22 23       	and	r18, r18
    7fc2:	39 f1       	breq	.+78     	; 0x8012 <Framebuffer_GFX::fillScreen(unsigned int)+0x72>
    7fc4:	34 97       	sbiw	r30, 0x04	; 4
    7fc6:	60 81       	ld	r22, Z
    7fc8:	71 81       	ldd	r23, Z+1	; 0x01
    7fca:	82 81       	ldd	r24, Z+2	; 0x02
    7fcc:	30 e0       	ldi	r19, 0x00	; 0
    7fce:	20 e0       	ldi	r18, 0x00	; 0
    7fd0:	c1 2c       	mov	r12, r1
    7fd2:	d1 2c       	mov	r13, r1
    7fd4:	76 01       	movw	r14, r12
    7fd6:	de 01       	movw	r26, r28
    7fd8:	a7 5d       	subi	r26, 0xD7	; 215
    7fda:	be 4f       	sbci	r27, 0xFE	; 254
    7fdc:	cb 5d       	subi	r28, 0xDB	; 219
    7fde:	de 4f       	sbci	r29, 0xFE	; 254
    7fe0:	8d 90       	ld	r8, X+
    7fe2:	9d 90       	ld	r9, X+
    7fe4:	ad 90       	ld	r10, X+
    7fe6:	bc 90       	ld	r11, X
    7fe8:	13 97       	sbiw	r26, 0x03	; 3
    7fea:	c8 14       	cp	r12, r8
    7fec:	d9 04       	cpc	r13, r9
    7fee:	ea 04       	cpc	r14, r10
    7ff0:	fb 04       	cpc	r15, r11
    7ff2:	88 f4       	brcc	.+34     	; 0x8016 <Framebuffer_GFX::fillScreen(unsigned int)+0x76>
    7ff4:	e8 81       	ld	r30, Y
    7ff6:	f9 81       	ldd	r31, Y+1	; 0x01
    7ff8:	e2 0f       	add	r30, r18
    7ffa:	f3 1f       	adc	r31, r19
    7ffc:	80 83       	st	Z, r24
    7ffe:	71 83       	std	Z+1, r23	; 0x01
    8000:	62 83       	std	Z+2, r22	; 0x02
    8002:	9f ef       	ldi	r25, 0xFF	; 255
    8004:	c9 1a       	sub	r12, r25
    8006:	d9 0a       	sbc	r13, r25
    8008:	e9 0a       	sbc	r14, r25
    800a:	f9 0a       	sbc	r15, r25
    800c:	2d 5f       	subi	r18, 0xFD	; 253
    800e:	3f 4f       	sbci	r19, 0xFF	; 255
    8010:	e7 cf       	rjmp	.-50     	; 0x7fe0 <Framebuffer_GFX::fillScreen(unsigned int)+0x40>
    8012:	a2 df       	rcall	.-188    	; 0x7f58 <Framebuffer_GFX::expandColor(unsigned int)>
    8014:	db cf       	rjmp	.-74     	; 0x7fcc <Framebuffer_GFX::fillScreen(unsigned int)+0x2c>
    8016:	df 91       	pop	r29
    8018:	cf 91       	pop	r28
    801a:	ff 90       	pop	r15
    801c:	ef 90       	pop	r14
    801e:	df 90       	pop	r13
    8020:	cf 90       	pop	r12
    8022:	bf 90       	pop	r11
    8024:	af 90       	pop	r10
    8026:	9f 90       	pop	r9
    8028:	8f 90       	pop	r8
    802a:	08 95       	ret

0000802c <Framebuffer_GFX::CRGBtoint32(CRGB)>:
    802c:	0f 93       	push	r16
    802e:	1f 93       	push	r17
    8030:	fc 01       	movw	r30, r24
    8032:	60 81       	ld	r22, Z
    8034:	70 e0       	ldi	r23, 0x00	; 0
    8036:	90 e0       	ldi	r25, 0x00	; 0
    8038:	80 e0       	ldi	r24, 0x00	; 0
    803a:	cb 01       	movw	r24, r22
    803c:	77 27       	eor	r23, r23
    803e:	66 27       	eor	r22, r22
    8040:	01 81       	ldd	r16, Z+1	; 0x01
    8042:	10 e0       	ldi	r17, 0x00	; 0
    8044:	10 2f       	mov	r17, r16
    8046:	00 27       	eor	r16, r16
    8048:	01 2e       	mov	r0, r17
    804a:	00 0c       	add	r0, r0
    804c:	22 0b       	sbc	r18, r18
    804e:	33 0b       	sbc	r19, r19
    8050:	60 0f       	add	r22, r16
    8052:	71 1f       	adc	r23, r17
    8054:	82 1f       	adc	r24, r18
    8056:	93 1f       	adc	r25, r19
    8058:	22 81       	ldd	r18, Z+2	; 0x02
    805a:	62 0f       	add	r22, r18
    805c:	71 1d       	adc	r23, r1
    805e:	81 1d       	adc	r24, r1
    8060:	91 1d       	adc	r25, r1
    8062:	1f 91       	pop	r17
    8064:	0f 91       	pop	r16
    8066:	08 95       	ret

00008068 <Framebuffer_GFX::XY(int, int)>:

int Framebuffer_GFX::XY(int16_t x, int16_t y) {
    8068:	6f 92       	push	r6
    806a:	7f 92       	push	r7
    806c:	9f 92       	push	r9
    806e:	af 92       	push	r10
    8070:	bf 92       	push	r11
    8072:	cf 92       	push	r12
    8074:	df 92       	push	r13
    8076:	ef 92       	push	r14
    8078:	ff 92       	push	r15
    807a:	0f 93       	push	r16
    807c:	1f 93       	push	r17
    807e:	cf 93       	push	r28
    8080:	df 93       	push	r29
    8082:	ec 01       	movw	r28, r24
    8084:	cb 01       	movw	r24, r22
    8086:	8a 01       	movw	r16, r20
  // If you send an out of bounds value, you get an special result 
  // pointing to the last pixel. It doesn't look great, but better
  // than crashing. Still, fix the upstream code.
  // DrawPixel is able to reject the write, but here we have to return an index
  // which has to be inbounds.
  if((x < 0) || (y < 0) || (x >= _width) || (y >= _height)) return numpix-1;
    8088:	77 fd       	sbrc	r23, 7
    808a:	0c c0       	rjmp	.+24     	; 0x80a4 <Framebuffer_GFX::XY(int, int)+0x3c>
    808c:	57 fd       	sbrc	r21, 7
    808e:	0a c0       	rjmp	.+20     	; 0x80a4 <Framebuffer_GFX::XY(int, int)+0x3c>
    8090:	2f 81       	ldd	r18, Y+7	; 0x07
    8092:	38 85       	ldd	r19, Y+8	; 0x08
    8094:	62 17       	cp	r22, r18
    8096:	73 07       	cpc	r23, r19
    8098:	2c f4       	brge	.+10     	; 0x80a4 <Framebuffer_GFX::XY(int, int)+0x3c>
    809a:	29 85       	ldd	r18, Y+9	; 0x09
    809c:	3a 85       	ldd	r19, Y+10	; 0x0a
    809e:	42 17       	cp	r20, r18
    80a0:	53 07       	cpc	r21, r19
    80a2:	9c f0       	brlt	.+38     	; 0x80ca <Framebuffer_GFX::XY(int, int)+0x62>
    80a4:	c7 5d       	subi	r28, 0xD7	; 215
    80a6:	de 4f       	sbci	r29, 0xFE	; 254
    80a8:	88 81       	ld	r24, Y
    80aa:	99 81       	ldd	r25, Y+1	; 0x01
    80ac:	01 97       	sbiw	r24, 0x01	; 1
  Serial.print(y);
  Serial.print(" ");
  Serial.println(tileOffset + pixelOffset);
#endif
  return(tileOffset + pixelOffset);
}
    80ae:	df 91       	pop	r29
    80b0:	cf 91       	pop	r28
    80b2:	1f 91       	pop	r17
    80b4:	0f 91       	pop	r16
    80b6:	ff 90       	pop	r15
    80b8:	ef 90       	pop	r14
    80ba:	df 90       	pop	r13
    80bc:	cf 90       	pop	r12
    80be:	bf 90       	pop	r11
    80c0:	af 90       	pop	r10
    80c2:	9f 90       	pop	r9
    80c4:	7f 90       	pop	r7
    80c6:	6f 90       	pop	r6
    80c8:	08 95       	ret
  // DrawPixel is able to reject the write, but here we have to return an index
  // which has to be inbounds.
  if((x < 0) || (y < 0) || (x >= _width) || (y >= _height)) return numpix-1;

  int16_t t;
  switch(rotation) {
    80ca:	2d 89       	ldd	r18, Y+21	; 0x15
    80cc:	22 30       	cpi	r18, 0x02	; 2
    80ce:	d9 f0       	breq	.+54     	; 0x8106 <Framebuffer_GFX::XY(int, int)+0x9e>
    80d0:	23 30       	cpi	r18, 0x03	; 3
    80d2:	51 f1       	breq	.+84     	; 0x8128 <Framebuffer_GFX::XY(int, int)+0xc0>
    80d4:	21 30       	cpi	r18, 0x01	; 1
    80d6:	41 f4       	brne	.+16     	; 0x80e8 <Framebuffer_GFX::XY(int, int)+0x80>
   case 1:
    t = x;
    x = WIDTH  - 1 - y;
    80d8:	2b 81       	ldd	r18, Y+3	; 0x03
    80da:	3c 81       	ldd	r19, Y+4	; 0x04
    80dc:	21 50       	subi	r18, 0x01	; 1
    80de:	31 09       	sbc	r19, r1
    80e0:	24 1b       	sub	r18, r20
    80e2:	35 0b       	sbc	r19, r21
    80e4:	8b 01       	movw	r16, r22
    80e6:	c9 01       	movw	r24, r18
    break;
  }

  int tileOffset = 0, pixelOffset;

  if(remapFn) { // Custom X/Y remapping function
    80e8:	fe 01       	movw	r30, r28
    80ea:	e9 5d       	subi	r30, 0xD9	; 217
    80ec:	fe 4f       	sbci	r31, 0xFE	; 254
    80ee:	01 90       	ld	r0, Z+
    80f0:	f0 81       	ld	r31, Z
    80f2:	e0 2d       	mov	r30, r0
    80f4:	30 97       	sbiw	r30, 0x00	; 0
    80f6:	09 f1       	breq	.+66     	; 0x813a <Framebuffer_GFX::XY(int, int)+0xd2>
    pixelOffset = (*remapFn)(x, y);
    80f8:	b8 01       	movw	r22, r16
    80fa:	09 95       	icall
    x = y;
    y = HEIGHT - 1 - t;
    break;
  }

  int tileOffset = 0, pixelOffset;
    80fc:	50 e0       	ldi	r21, 0x00	; 0
    80fe:	40 e0       	ldi	r20, 0x00	; 0
  Serial.print(" ");
  Serial.print(y);
  Serial.print(" ");
  Serial.println(tileOffset + pixelOffset);
#endif
  return(tileOffset + pixelOffset);
    8100:	84 0f       	add	r24, r20
    8102:	95 1f       	adc	r25, r21
    8104:	d4 cf       	rjmp	.-88     	; 0x80ae <Framebuffer_GFX::XY(int, int)+0x46>
    t = x;
    x = WIDTH  - 1 - y;
    y = t;
    break;
   case 2:
    x = WIDTH  - 1 - x;
    8106:	2b 81       	ldd	r18, Y+3	; 0x03
    8108:	3c 81       	ldd	r19, Y+4	; 0x04
    810a:	21 50       	subi	r18, 0x01	; 1
    810c:	31 09       	sbc	r19, r1
    810e:	a9 01       	movw	r20, r18
    8110:	46 1b       	sub	r20, r22
    8112:	57 0b       	sbc	r21, r23
    8114:	ca 01       	movw	r24, r20
    y = HEIGHT - 1 - y;
    8116:	2d 81       	ldd	r18, Y+5	; 0x05
    8118:	3e 81       	ldd	r19, Y+6	; 0x06
    811a:	21 50       	subi	r18, 0x01	; 1
    811c:	31 09       	sbc	r19, r1
    811e:	f9 01       	movw	r30, r18
    8120:	e0 1b       	sub	r30, r16
    8122:	f1 0b       	sbc	r31, r17
    8124:	8f 01       	movw	r16, r30
    8126:	e0 cf       	rjmp	.-64     	; 0x80e8 <Framebuffer_GFX::XY(int, int)+0x80>
    break;
   case 3:
    t = x;
    x = y;
    y = HEIGHT - 1 - t;
    8128:	2d 81       	ldd	r18, Y+5	; 0x05
    812a:	3e 81       	ldd	r19, Y+6	; 0x06
    812c:	21 50       	subi	r18, 0x01	; 1
    812e:	31 09       	sbc	r19, r1
    8130:	26 1b       	sub	r18, r22
    8132:	37 0b       	sbc	r19, r23
    8134:	ca 01       	movw	r24, r20
    8136:	89 01       	movw	r16, r18
    8138:	d7 cf       	rjmp	.-82     	; 0x80e8 <Framebuffer_GFX::XY(int, int)+0x80>

  if(remapFn) { // Custom X/Y remapping function
    pixelOffset = (*remapFn)(x, y);
  } else {      // Standard single matrix or tiled matrices

    uint8_t  corner = type & NEO_MATRIX_CORNER;
    813a:	fe 01       	movw	r30, r28
    813c:	e6 5e       	subi	r30, 0xE6	; 230
    813e:	fe 4f       	sbci	r31, 0xFE	; 254
    8140:	d0 80       	ld	r13, Z
    8142:	fd 2d       	mov	r31, r13
    8144:	f3 70       	andi	r31, 0x03	; 3
    8146:	cf 2e       	mov	r12, r31
    uint16_t minor, major, majorScale;

    if(tilesX) { // Tiled display, multiple matrices
    8148:	fe 01       	movw	r30, r28
    814a:	e5 5e       	subi	r30, 0xE5	; 229
    814c:	fe 4f       	sbci	r31, 0xFE	; 254
    814e:	b0 80       	ld	r11, Z
    x = y;
    y = HEIGHT - 1 - t;
    break;
  }

  int tileOffset = 0, pixelOffset;
    8150:	50 e0       	ldi	r21, 0x00	; 0
    8152:	40 e0       	ldi	r20, 0x00	; 0
  } else {      // Standard single matrix or tiled matrices

    uint8_t  corner = type & NEO_MATRIX_CORNER;
    uint16_t minor, major, majorScale;

    if(tilesX) { // Tiled display, multiple matrices
    8154:	bb 20       	and	r11, r11
    8156:	09 f4       	brne	.+2      	; 0x815a <Framebuffer_GFX::XY(int, int)+0xf2>
    8158:	64 c0       	rjmp	.+200    	; 0x8222 <Framebuffer_GFX::XY(int, int)+0x1ba>
      uint16_t tile;

      minor = x / matrixWidth;            // Tile # X/Y; presume row major to
    815a:	32 96       	adiw	r30, 0x02	; 2
    815c:	e0 80       	ld	r14, Z
    815e:	f1 80       	ldd	r15, Z+1	; 0x01
    8160:	b7 01       	movw	r22, r14
    8162:	0e 94 03 53 	call	0xa606	; 0xa606 <__udivmodhi4>
    8166:	9b 01       	movw	r18, r22
    8168:	98 2e       	mov	r9, r24
    816a:	a9 2e       	mov	r10, r25
      major = y / matrixHeight,           // start (will swap later if needed)
    816c:	32 96       	adiw	r30, 0x02	; 2
    816e:	60 80       	ld	r6, Z
    8170:	71 80       	ldd	r7, Z+1	; 0x01
    8172:	c8 01       	movw	r24, r16
    8174:	b3 01       	movw	r22, r6
    8176:	0e 94 03 53 	call	0xa606	; 0xa606 <__udivmodhi4>
    817a:	db 01       	movw	r26, r22
    817c:	58 2f       	mov	r21, r24
    817e:	49 2f       	mov	r20, r25
      x     = x - (minor * matrixWidth);  // Pixel X/Y within tile
    8180:	89 2d       	mov	r24, r9
    8182:	9a 2d       	mov	r25, r10
      y     = y - (major * matrixHeight); // (-* is less math than modulo)
    8184:	05 2f       	mov	r16, r21
    8186:	14 2f       	mov	r17, r20

      // Determine corner of entry, flip axes if needed
      if(type & NEO_TILE_RIGHT)  minor = tilesX - 1 - minor;
    8188:	d5 fe       	sbrs	r13, 5
    818a:	06 c0       	rjmp	.+12     	; 0x8198 <Framebuffer_GFX::XY(int, int)+0x130>
    818c:	4b 2d       	mov	r20, r11
    818e:	41 50       	subi	r20, 0x01	; 1
    8190:	55 0b       	sbc	r21, r21
    8192:	42 1b       	sub	r20, r18
    8194:	53 0b       	sbc	r21, r19
    8196:	9a 01       	movw	r18, r20
      if(type & NEO_TILE_BOTTOM) major = tilesY - 1 - major;
    8198:	d4 fe       	sbrs	r13, 4
    819a:	09 c0       	rjmp	.+18     	; 0x81ae <Framebuffer_GFX::XY(int, int)+0x146>
    819c:	ae 01       	movw	r20, r28
    819e:	44 5e       	subi	r20, 0xE4	; 228
    81a0:	5e 4f       	sbci	r21, 0xFE	; 254
    81a2:	fa 01       	movw	r30, r20
    81a4:	60 81       	ld	r22, Z
    81a6:	61 50       	subi	r22, 0x01	; 1
    81a8:	77 0b       	sbc	r23, r23
    81aa:	6a 1b       	sub	r22, r26
    81ac:	7b 0b       	sbc	r23, r27

      // Determine actual major axis of tiling
      if((type & NEO_TILE_AXIS) == NEO_TILE_ROWS) {
    81ae:	d6 fc       	sbrc	r13, 6
    81b0:	11 c0       	rjmp	.+34     	; 0x81d4 <Framebuffer_GFX::XY(int, int)+0x16c>
        majorScale = tilesX;
    81b2:	4b 2d       	mov	r20, r11
    81b4:	50 e0       	ldi	r21, 0x00	; 0
    81b6:	b6 2f       	mov	r27, r22
    81b8:	a7 2f       	mov	r26, r23
    81ba:	b9 01       	movw	r22, r18
    81bc:	2b 2f       	mov	r18, r27
    81be:	3a 2f       	mov	r19, r26
        _swap_uint16_t(major, minor);
        majorScale = tilesY;
      }

      // Determine tile number
      if((type & NEO_TILE_SEQUENCE) == NEO_TILE_PROGRESSIVE) {
    81c0:	d7 fc       	sbrc	r13, 7
    81c2:	0e c0       	rjmp	.+28     	; 0x81e0 <Framebuffer_GFX::XY(int, int)+0x178>
        // pixel math later.
        if(major & 1) {
          corner ^= NEO_MATRIX_CORNER;
          tile = (major + 1) * majorScale - 1 - minor;
        } else {
          tile =  major      * majorScale     + minor;
    81c4:	24 9f       	mul	r18, r20
    81c6:	d0 01       	movw	r26, r0
    81c8:	25 9f       	mul	r18, r21
    81ca:	b0 0d       	add	r27, r0
    81cc:	34 9f       	mul	r19, r20
    81ce:	b0 0d       	add	r27, r0
    81d0:	11 24       	eor	r1, r1
    81d2:	17 c0       	rjmp	.+46     	; 0x8202 <Framebuffer_GFX::XY(int, int)+0x19a>
      // Determine actual major axis of tiling
      if((type & NEO_TILE_AXIS) == NEO_TILE_ROWS) {
        majorScale = tilesX;
      } else {
        _swap_uint16_t(major, minor);
        majorScale = tilesY;
    81d4:	de 01       	movw	r26, r28
    81d6:	a4 5e       	subi	r26, 0xE4	; 228
    81d8:	be 4f       	sbci	r27, 0xFE	; 254
    81da:	4c 91       	ld	r20, X
    81dc:	50 e0       	ldi	r21, 0x00	; 0
    81de:	f0 cf       	rjmp	.-32     	; 0x81c0 <Framebuffer_GFX::XY(int, int)+0x158>
        tile = major * majorScale + minor;
      } else {
        // Zigzag; alternate rows change direction.  On these rows,
        // this also flips the starting corner of the matrix for the
        // pixel math later.
        if(major & 1) {
    81e0:	20 ff       	sbrs	r18, 0
    81e2:	f0 cf       	rjmp	.-32     	; 0x81c4 <Framebuffer_GFX::XY(int, int)+0x15c>
          corner ^= NEO_MATRIX_CORNER;
    81e4:	ad 2d       	mov	r26, r13
    81e6:	a0 95       	com	r26
    81e8:	a3 70       	andi	r26, 0x03	; 3
    81ea:	ca 2e       	mov	r12, r26
          tile = (major + 1) * majorScale - 1 - minor;
    81ec:	2f 5f       	subi	r18, 0xFF	; 255
    81ee:	3f 4f       	sbci	r19, 0xFF	; 255
    81f0:	24 9f       	mul	r18, r20
    81f2:	d0 01       	movw	r26, r0
    81f4:	25 9f       	mul	r18, r21
    81f6:	b0 0d       	add	r27, r0
    81f8:	34 9f       	mul	r19, r20
    81fa:	b0 0d       	add	r27, r0
    81fc:	11 24       	eor	r1, r1
    81fe:	60 95       	com	r22
    8200:	70 95       	com	r23
        } else {
          tile =  major      * majorScale     + minor;
    8202:	6a 0f       	add	r22, r26
    8204:	7b 1f       	adc	r23, r27
        }
      }

      // Index of first pixel in tile
      tileOffset = tile * matrixWidth * matrixHeight;
    8206:	e6 9c       	mul	r14, r6
    8208:	90 01       	movw	r18, r0
    820a:	e7 9c       	mul	r14, r7
    820c:	30 0d       	add	r19, r0
    820e:	f6 9c       	mul	r15, r6
    8210:	30 0d       	add	r19, r0
    8212:	11 24       	eor	r1, r1
    8214:	26 9f       	mul	r18, r22
    8216:	a0 01       	movw	r20, r0
    8218:	27 9f       	mul	r18, r23
    821a:	50 0d       	add	r21, r0
    821c:	36 9f       	mul	r19, r22
    821e:	50 0d       	add	r21, r0
    8220:	11 24       	eor	r1, r1

    } // else no tiling (handle as single tile)

    // Find pixel number within tile
    minor = x; // Presume row major to start (will swap later if needed)
    major = y;
    8222:	98 01       	movw	r18, r16

    // Determine corner of entry, flip axes if needed
    if(corner & NEO_MATRIX_RIGHT)  minor = matrixWidth  - 1 - minor;
    8224:	6c 2d       	mov	r22, r12
    8226:	62 70       	andi	r22, 0x02	; 2
    8228:	59 f0       	breq	.+22     	; 0x8240 <Framebuffer_GFX::XY(int, int)+0x1d8>
    822a:	fe 01       	movw	r30, r28
    822c:	e3 5e       	subi	r30, 0xE3	; 227
    822e:	fe 4f       	sbci	r31, 0xFE	; 254
    8230:	60 81       	ld	r22, Z
    8232:	71 81       	ldd	r23, Z+1	; 0x01
    8234:	61 50       	subi	r22, 0x01	; 1
    8236:	71 09       	sbc	r23, r1
    8238:	fb 01       	movw	r30, r22
    823a:	e8 1b       	sub	r30, r24
    823c:	f9 0b       	sbc	r31, r25
    823e:	cf 01       	movw	r24, r30
    if(corner & NEO_MATRIX_BOTTOM) major = matrixHeight - 1 - major;
    8240:	c0 fe       	sbrs	r12, 0
    8242:	09 c0       	rjmp	.+18     	; 0x8256 <Framebuffer_GFX::XY(int, int)+0x1ee>
    8244:	fe 01       	movw	r30, r28
    8246:	e1 5e       	subi	r30, 0xE1	; 225
    8248:	fe 4f       	sbci	r31, 0xFE	; 254
    824a:	20 81       	ld	r18, Z
    824c:	31 81       	ldd	r19, Z+1	; 0x01
    824e:	21 50       	subi	r18, 0x01	; 1
    8250:	31 09       	sbc	r19, r1
    8252:	20 1b       	sub	r18, r16
    8254:	31 0b       	sbc	r19, r17

    // Determine actual major axis of matrix
    if((type & NEO_MATRIX_AXIS) == NEO_MATRIX_ROWS) {
    8256:	d2 fc       	sbrc	r13, 2
    8258:	13 c0       	rjmp	.+38     	; 0x8280 <Framebuffer_GFX::XY(int, int)+0x218>
      majorScale = matrixWidth;
    825a:	c3 5e       	subi	r28, 0xE3	; 227
    825c:	de 4f       	sbci	r29, 0xFE	; 254
    825e:	68 81       	ld	r22, Y
    8260:	79 81       	ldd	r23, Y+1	; 0x01
    8262:	f2 2f       	mov	r31, r18
    8264:	e3 2f       	mov	r30, r19
    8266:	9c 01       	movw	r18, r24
    8268:	8f 2f       	mov	r24, r31
    826a:	9e 2f       	mov	r25, r30
      _swap_uint16_t(major, minor);
      majorScale = matrixHeight;
    }

    // Determine pixel number within tile/matrix
    if((type & NEO_MATRIX_SEQUENCE) == NEO_MATRIX_PROGRESSIVE) {
    826c:	d3 fc       	sbrc	r13, 3
    826e:	0d c0       	rjmp	.+26     	; 0x828a <Framebuffer_GFX::XY(int, int)+0x222>
      // All lines in same order
      pixelOffset = major * majorScale + minor;
    } else {
      // Zigzag; alternate rows change direction.
      if(major & 1) pixelOffset = (major + 1) * majorScale - 1 - minor;
      else          pixelOffset =  major      * majorScale     + minor;
    8270:	86 9f       	mul	r24, r22
    8272:	f0 01       	movw	r30, r0
    8274:	87 9f       	mul	r24, r23
    8276:	f0 0d       	add	r31, r0
    8278:	96 9f       	mul	r25, r22
    827a:	f0 0d       	add	r31, r0
    827c:	11 24       	eor	r1, r1
    827e:	11 c0       	rjmp	.+34     	; 0x82a2 <Framebuffer_GFX::XY(int, int)+0x23a>
    // Determine actual major axis of matrix
    if((type & NEO_MATRIX_AXIS) == NEO_MATRIX_ROWS) {
      majorScale = matrixWidth;
    } else {
      _swap_uint16_t(major, minor);
      majorScale = matrixHeight;
    8280:	c1 5e       	subi	r28, 0xE1	; 225
    8282:	de 4f       	sbci	r29, 0xFE	; 254
    8284:	68 81       	ld	r22, Y
    8286:	79 81       	ldd	r23, Y+1	; 0x01
    8288:	f1 cf       	rjmp	.-30     	; 0x826c <Framebuffer_GFX::XY(int, int)+0x204>
    if((type & NEO_MATRIX_SEQUENCE) == NEO_MATRIX_PROGRESSIVE) {
      // All lines in same order
      pixelOffset = major * majorScale + minor;
    } else {
      // Zigzag; alternate rows change direction.
      if(major & 1) pixelOffset = (major + 1) * majorScale - 1 - minor;
    828a:	80 ff       	sbrs	r24, 0
    828c:	f1 cf       	rjmp	.-30     	; 0x8270 <Framebuffer_GFX::XY(int, int)+0x208>
    828e:	01 96       	adiw	r24, 0x01	; 1
    8290:	86 9f       	mul	r24, r22
    8292:	f0 01       	movw	r30, r0
    8294:	87 9f       	mul	r24, r23
    8296:	f0 0d       	add	r31, r0
    8298:	96 9f       	mul	r25, r22
    829a:	f0 0d       	add	r31, r0
    829c:	11 24       	eor	r1, r1
    829e:	20 95       	com	r18
    82a0:	30 95       	com	r19
      else          pixelOffset =  major      * majorScale     + minor;
    82a2:	cf 01       	movw	r24, r30
    82a4:	82 0f       	add	r24, r18
    82a6:	93 1f       	adc	r25, r19
    82a8:	2b cf       	rjmp	.-426    	; 0x8100 <Framebuffer_GFX::XY(int, int)+0x98>

000082aa <Framebuffer_GFX::drawPixel(int, int, unsigned int)>:
  Serial.println(tileOffset + pixelOffset);
#endif
  return(tileOffset + pixelOffset);
}

void Framebuffer_GFX::drawPixel(int16_t x, int16_t y, uint16_t color) {
    82aa:	9f 92       	push	r9
    82ac:	af 92       	push	r10
    82ae:	bf 92       	push	r11
    82b0:	cf 92       	push	r12
    82b2:	df 92       	push	r13
    82b4:	ef 92       	push	r14
    82b6:	ff 92       	push	r15
    82b8:	0f 93       	push	r16
    82ba:	1f 93       	push	r17
    82bc:	cf 93       	push	r28
    82be:	df 93       	push	r29
    82c0:	ec 01       	movw	r28, r24

  if((x < 0) || (y < 0) || (x >= _width) || (y >= _height)) return;
    82c2:	77 fd       	sbrc	r23, 7
    82c4:	2b c0       	rjmp	.+86     	; 0x831c <Framebuffer_GFX::drawPixel(int, int, unsigned int)+0x72>
    82c6:	57 fd       	sbrc	r21, 7
    82c8:	29 c0       	rjmp	.+82     	; 0x831c <Framebuffer_GFX::drawPixel(int, int, unsigned int)+0x72>
    82ca:	8f 81       	ldd	r24, Y+7	; 0x07
    82cc:	98 85       	ldd	r25, Y+8	; 0x08
    82ce:	68 17       	cp	r22, r24
    82d0:	79 07       	cpc	r23, r25
    82d2:	24 f5       	brge	.+72     	; 0x831c <Framebuffer_GFX::drawPixel(int, int, unsigned int)+0x72>
    82d4:	89 85       	ldd	r24, Y+9	; 0x09
    82d6:	9a 85       	ldd	r25, Y+10	; 0x0a
    82d8:	48 17       	cp	r20, r24
    82da:	59 07       	cpc	r21, r25
    82dc:	fc f4       	brge	.+62     	; 0x831c <Framebuffer_GFX::drawPixel(int, int, unsigned int)+0x72>
    82de:	6a 01       	movw	r12, r20
    82e0:	7b 01       	movw	r14, r22

  _fb[XY(x,y)] = passThruFlag ? passThruColor : expandColor(color);
    82e2:	fe 01       	movw	r30, r28
    82e4:	ef 5c       	subi	r30, 0xCF	; 207
    82e6:	fe 4f       	sbci	r31, 0xFE	; 254
    82e8:	80 81       	ld	r24, Z
    82ea:	88 23       	and	r24, r24
    82ec:	19 f1       	breq	.+70     	; 0x8334 <Framebuffer_GFX::drawPixel(int, int, unsigned int)+0x8a>
    82ee:	34 97       	sbiw	r30, 0x04	; 4
    82f0:	b0 80       	ld	r11, Z
    82f2:	a1 80       	ldd	r10, Z+1	; 0x01
    82f4:	92 80       	ldd	r9, Z+2	; 0x02
    82f6:	fe 01       	movw	r30, r28
    82f8:	eb 5d       	subi	r30, 0xDB	; 219
    82fa:	fe 4f       	sbci	r31, 0xFE	; 254
    82fc:	00 81       	ld	r16, Z
    82fe:	11 81       	ldd	r17, Z+1	; 0x01
    8300:	a6 01       	movw	r20, r12
    8302:	b7 01       	movw	r22, r14
    8304:	ce 01       	movw	r24, r28
    8306:	b0 de       	rcall	.-672    	; 0x8068 <Framebuffer_GFX::XY(int, int)>
    8308:	fc 01       	movw	r30, r24
    830a:	ee 0f       	add	r30, r30
    830c:	ff 1f       	adc	r31, r31
    830e:	e8 0f       	add	r30, r24
    8310:	f9 1f       	adc	r31, r25
    8312:	e0 0f       	add	r30, r16
    8314:	f1 1f       	adc	r31, r17
    }

    /// allow assignment from 32-bit (really 24-bit) 0xRRGGBB color code
	inline CRGB& operator= (const uint32_t colorcode) __attribute__((always_inline))
    {
        r = (colorcode >> 16) & 0xFF;
    8316:	90 82       	st	Z, r9
        g = (colorcode >>  8) & 0xFF;
    8318:	a1 82       	std	Z+1, r10	; 0x01
        b = (colorcode >>  0) & 0xFF;
    831a:	b2 82       	std	Z+2, r11	; 0x02
}
    831c:	df 91       	pop	r29
    831e:	cf 91       	pop	r28
    8320:	1f 91       	pop	r17
    8322:	0f 91       	pop	r16
    8324:	ff 90       	pop	r15
    8326:	ef 90       	pop	r14
    8328:	df 90       	pop	r13
    832a:	cf 90       	pop	r12
    832c:	bf 90       	pop	r11
    832e:	af 90       	pop	r10
    8330:	9f 90       	pop	r9
    8332:	08 95       	ret

void Framebuffer_GFX::drawPixel(int16_t x, int16_t y, uint16_t color) {

  if((x < 0) || (y < 0) || (x >= _width) || (y >= _height)) return;

  _fb[XY(x,y)] = passThruFlag ? passThruColor : expandColor(color);
    8334:	c9 01       	movw	r24, r18
    8336:	10 de       	rcall	.-992    	; 0x7f58 <Framebuffer_GFX::expandColor(unsigned int)>
    8338:	b6 2e       	mov	r11, r22
    833a:	a7 2e       	mov	r10, r23
    833c:	98 2e       	mov	r9, r24
    833e:	db cf       	rjmp	.-74     	; 0x82f6 <Framebuffer_GFX::drawPixel(int, int, unsigned int)+0x4c>

00008340 <Framebuffer_GFX::drawPixel(int, int, unsigned long)>:
}

void Framebuffer_GFX::drawPixel(int16_t x, int16_t y, uint32_t color) {
    8340:	ff 92       	push	r15
    8342:	0f 93       	push	r16
    8344:	1f 93       	push	r17
    8346:	cf 93       	push	r28
    8348:	df 93       	push	r29
  Serial.print(" ");
  Serial.print(y);
  Serial.print(" ");
  Serial.println(color, HEX);
#endif
  if((x < 0) || (y < 0) || (x >= _width) || (y >= _height)) return;
    834a:	77 fd       	sbrc	r23, 7
    834c:	21 c0       	rjmp	.+66     	; 0x8390 <Framebuffer_GFX::drawPixel(int, int, unsigned long)+0x50>
    834e:	57 fd       	sbrc	r21, 7
    8350:	1f c0       	rjmp	.+62     	; 0x8390 <Framebuffer_GFX::drawPixel(int, int, unsigned long)+0x50>
    8352:	dc 01       	movw	r26, r24
    8354:	17 96       	adiw	r26, 0x07	; 7
    8356:	ed 91       	ld	r30, X+
    8358:	fc 91       	ld	r31, X
    835a:	18 97       	sbiw	r26, 0x08	; 8
    835c:	6e 17       	cp	r22, r30
    835e:	7f 07       	cpc	r23, r31
    8360:	bc f4       	brge	.+46     	; 0x8390 <Framebuffer_GFX::drawPixel(int, int, unsigned long)+0x50>
    8362:	19 96       	adiw	r26, 0x09	; 9
    8364:	ed 91       	ld	r30, X+
    8366:	fc 91       	ld	r31, X
    8368:	4e 17       	cp	r20, r30
    836a:	5f 07       	cpc	r21, r31
    836c:	8c f4       	brge	.+34     	; 0x8390 <Framebuffer_GFX::drawPixel(int, int, unsigned long)+0x50>
    836e:	f2 2e       	mov	r15, r18
  Serial.print(y);
  Serial.print(" ");
  Serial.println(color, HEX);
#endif

  _fb[XY(x,y)] = color;
    8370:	fc 01       	movw	r30, r24
    8372:	eb 5d       	subi	r30, 0xDB	; 219
    8374:	fe 4f       	sbci	r31, 0xFE	; 254
    8376:	c0 81       	ld	r28, Z
    8378:	d1 81       	ldd	r29, Z+1	; 0x01
    837a:	76 de       	rcall	.-788    	; 0x8068 <Framebuffer_GFX::XY(int, int)>
    837c:	fc 01       	movw	r30, r24
    837e:	ee 0f       	add	r30, r30
    8380:	ff 1f       	adc	r31, r31
    8382:	e8 0f       	add	r30, r24
    8384:	f9 1f       	adc	r31, r25
    8386:	ec 0f       	add	r30, r28
    8388:	fd 1f       	adc	r31, r29
    }

    /// allow assignment from 32-bit (really 24-bit) 0xRRGGBB color code
	inline CRGB& operator= (const uint32_t colorcode) __attribute__((always_inline))
    {
        r = (colorcode >> 16) & 0xFF;
    838a:	f0 82       	st	Z, r15
        g = (colorcode >>  8) & 0xFF;
    838c:	11 83       	std	Z+1, r17	; 0x01
        b = (colorcode >>  0) & 0xFF;
    838e:	02 83       	std	Z+2, r16	; 0x02
}
    8390:	df 91       	pop	r29
    8392:	cf 91       	pop	r28
    8394:	1f 91       	pop	r17
    8396:	0f 91       	pop	r16
    8398:	ff 90       	pop	r15
    839a:	08 95       	ret

0000839c <Framebuffer_GFX::drawPixel(int, int, CRGB)>:

void Framebuffer_GFX::drawPixel(int16_t x, int16_t y, CRGB c) {
    839c:	af 92       	push	r10
    839e:	bf 92       	push	r11
    83a0:	cf 92       	push	r12
    83a2:	df 92       	push	r13
    83a4:	ef 92       	push	r14
    83a6:	ff 92       	push	r15
    83a8:	0f 93       	push	r16
    83aa:	1f 93       	push	r17
    83ac:	cf 93       	push	r28
    83ae:	df 93       	push	r29
    83b0:	00 d0       	rcall	.+0      	; 0x83b2 <Framebuffer_GFX::drawPixel(int, int, CRGB)+0x16>
    83b2:	1f 92       	push	r1
    83b4:	cd b7       	in	r28, 0x3d	; 61
    83b6:	de b7       	in	r29, 0x3e	; 62
    83b8:	7c 01       	movw	r14, r24
    83ba:	6b 01       	movw	r12, r22
    83bc:	5a 01       	movw	r10, r20
    83be:	f9 01       	movw	r30, r18
    }

    /// allow copy construction
	inline CRGB(const CRGB& rhs) __attribute__((always_inline))
    {
        r = rhs.r;
    83c0:	80 81       	ld	r24, Z
    83c2:	89 83       	std	Y+1, r24	; 0x01
        g = rhs.g;
    83c4:	81 81       	ldd	r24, Z+1	; 0x01
    83c6:	8a 83       	std	Y+2, r24	; 0x02
        b = rhs.b;
    83c8:	82 81       	ldd	r24, Z+2	; 0x02
    83ca:	8b 83       	std	Y+3, r24	; 0x03
  drawPixel(x, y, CRGBtoint32(c));
    83cc:	ce 01       	movw	r24, r28
    83ce:	01 96       	adiw	r24, 0x01	; 1
    83d0:	2d de       	rcall	.-934    	; 0x802c <Framebuffer_GFX::CRGBtoint32(CRGB)>
    83d2:	8b 01       	movw	r16, r22
    83d4:	9c 01       	movw	r18, r24
    83d6:	a5 01       	movw	r20, r10
    83d8:	b6 01       	movw	r22, r12
    83da:	c7 01       	movw	r24, r14
    83dc:	b1 df       	rcall	.-158    	; 0x8340 <Framebuffer_GFX::drawPixel(int, int, unsigned long)>
}
    83de:	0f 90       	pop	r0
    83e0:	0f 90       	pop	r0
    83e2:	0f 90       	pop	r0
    83e4:	df 91       	pop	r29
    83e6:	cf 91       	pop	r28
    83e8:	1f 91       	pop	r17
    83ea:	0f 91       	pop	r16
    83ec:	ff 90       	pop	r15
    83ee:	ef 90       	pop	r14
    83f0:	df 90       	pop	r13
    83f2:	cf 90       	pop	r12
    83f4:	bf 90       	pop	r11
    83f6:	af 90       	pop	r10
    83f8:	08 95       	ret

000083fa <Framebuffer_GFX::setRemapFunction(unsigned int (*)(unsigned int, unsigned int))>:
  c = passThruFlag ? passThruColor : expandColor(color);
  for (uint32_t i=0; i<numpix; i++) { _fb[i]=c; }
}

void Framebuffer_GFX::setRemapFunction(uint16_t (*fn)(uint16_t, uint16_t)) {
  remapFn = fn;
    83fa:	89 5d       	subi	r24, 0xD9	; 217
    83fc:	9e 4f       	sbci	r25, 0xFE	; 254
    83fe:	fc 01       	movw	r30, r24
    8400:	71 83       	std	Z+1, r23	; 0x01
    8402:	60 83       	st	Z, r22
}
    8404:	08 95       	ret

00008406 <fill_solid(CRGB*, int, CRGB const&)>:
        heatcolor.b = 0; // no blue

    } else {
        // we're in the coolest third
        heatcolor.r = heatramp; // ramp up red
        heatcolor.g = 0; // no green
    8406:	da 01       	movw	r26, r20
    8408:	fc 01       	movw	r30, r24
    840a:	90 e0       	ldi	r25, 0x00	; 0
    840c:	80 e0       	ldi	r24, 0x00	; 0
    840e:	86 17       	cp	r24, r22
    8410:	97 07       	cpc	r25, r23
    8412:	6c f4       	brge	.+26     	; 0x842e <fill_solid(CRGB*, int, CRGB const&)+0x28>
    8414:	2c 91       	ld	r18, X
    8416:	20 83       	st	Z, r18
    8418:	11 96       	adiw	r26, 0x01	; 1
    841a:	2c 91       	ld	r18, X
    841c:	11 97       	sbiw	r26, 0x01	; 1
    841e:	21 83       	std	Z+1, r18	; 0x01
    8420:	12 96       	adiw	r26, 0x02	; 2
    8422:	2c 91       	ld	r18, X
    8424:	12 97       	sbiw	r26, 0x02	; 2
    8426:	22 83       	std	Z+2, r18	; 0x02
    8428:	01 96       	adiw	r24, 0x01	; 1
    842a:	33 96       	adiw	r30, 0x03	; 3
    842c:	f0 cf       	rjmp	.-32     	; 0x840e <fill_solid(CRGB*, int, CRGB const&)+0x8>
    842e:	08 95       	ret

00008430 <ColorFromPalette(CRGBPalette16 const&, unsigned char, unsigned char, TBlendType)>:
    return dividend;
}


CRGB ColorFromPalette( const CRGBPalette16& pal, uint8_t index, uint8_t brightness, TBlendType blendType)
{
    8430:	0f 93       	push	r16
    8432:	1f 93       	push	r17
    8434:	cf 93       	push	r28
    8436:	df 93       	push	r29
    8438:	fc 01       	movw	r30, r24
{
#if defined(__AVR__)
    dividend /= 2;
    dividend /= 2;
    dividend /= 2;
    dividend /= 2;
    843a:	84 2f       	mov	r24, r20
    843c:	82 95       	swap	r24
    843e:	8f 70       	andi	r24, 0x0F	; 15

CRGB ColorFromPalette( const CRGBPalette16& pal, uint8_t index, uint8_t brightness, TBlendType blendType)
{
    //      hi4 = index >> 4;
    uint8_t hi4 = lsrX4(index);
    uint8_t lo4 = index & 0x0F;
    8440:	4f 70       	andi	r20, 0x0F	; 15
    {
        return entries[(uint8_t)x];
    }
    inline const CRGB& operator[] (int x) const __attribute__((always_inline))
    {
        return entries[(uint8_t)x];
    8442:	eb 01       	movw	r28, r22
    
    // const CRGB* entry = &(pal[0]) + hi4;
    // since hi4 is always 0..15, hi4 * sizeof(CRGB) can be a single-byte value,
    // instead of the two byte 'int' that avr-gcc defaults to.
    // So, we multiply hi4 X sizeof(CRGB), giving hi4XsizeofCRGB;
    uint8_t hi4XsizeofCRGB = hi4 * sizeof(CRGB);
    8444:	a8 2f       	mov	r26, r24
    8446:	aa 0f       	add	r26, r26
    8448:	a8 0f       	add	r26, r24
    // We then add that to a base array pointer.
    const CRGB* entry = (CRGB*)( (uint8_t*)(&(pal[0])) + hi4XsizeofCRGB);
    844a:	a6 0f       	add	r26, r22
    844c:	b7 2f       	mov	r27, r23
    844e:	b1 1d       	adc	r27, r1
    
    uint8_t blend = lo4 && (blendType != NOBLEND);
    8450:	44 23       	and	r20, r20
    8452:	19 f0       	breq	.+6      	; 0x845a <ColorFromPalette(CRGBPalette16 const&, unsigned char, unsigned char, TBlendType)+0x2a>
    8454:	31 e0       	ldi	r19, 0x01	; 1
    8456:	01 2b       	or	r16, r17
    8458:	09 f4       	brne	.+2      	; 0x845c <ColorFromPalette(CRGBPalette16 const&, unsigned char, unsigned char, TBlendType)+0x2c>
    845a:	30 e0       	ldi	r19, 0x00	; 0
    
    uint8_t red1   = entry->red;
    845c:	6c 91       	ld	r22, X
    uint8_t green1 = entry->green;
    845e:	11 96       	adiw	r26, 0x01	; 1
    8460:	5c 91       	ld	r21, X
    8462:	11 97       	sbiw	r26, 0x01	; 1
    uint8_t blue1  = entry->blue;
    8464:	12 96       	adiw	r26, 0x02	; 2
    8466:	9c 91       	ld	r25, X
    8468:	12 97       	sbiw	r26, 0x02	; 2
    
    
    if( blend ) {
    846a:	33 23       	and	r19, r19
    846c:	09 f4       	brne	.+2      	; 0x8470 <ColorFromPalette(CRGBPalette16 const&, unsigned char, unsigned char, TBlendType)+0x40>
    846e:	2a c0       	rjmp	.+84     	; 0x84c4 <ColorFromPalette(CRGBPalette16 const&, unsigned char, unsigned char, TBlendType)+0x94>
        
        if( hi4 == 15 ) {
    8470:	8f 30       	cpi	r24, 0x0F	; 15
    8472:	11 f0       	breq	.+4      	; 0x8478 <ColorFromPalette(CRGBPalette16 const&, unsigned char, unsigned char, TBlendType)+0x48>
            entry = &(pal[0]);
        } else {
            entry++;
    8474:	ed 01       	movw	r28, r26
    8476:	23 96       	adiw	r28, 0x03	; 3
        }
        
        uint8_t f2 = lo4 << 4;
    8478:	42 95       	swap	r20
    847a:	40 7f       	andi	r20, 0xF0	; 240
        uint8_t f1 = 255 - f2;
    847c:	74 2f       	mov	r23, r20
    847e:	70 95       	com	r23
         /* R1 IS LEFT DIRTY HERE; YOU MUST ZERO IT OUT YOURSELF  */
         /* "clr __zero_reg__    \n\t" */

         : "+a" (i)      /* writes to i */
         : "a"  (scale)  /* uses scale */
         : "r0", "r1"    /* clobbers r0, r1 */ );
    8480:	67 9f       	mul	r22, r23
    8482:	06 0e       	add	r0, r22
    8484:	60 e0       	ldi	r22, 0x00	; 0
    8486:	61 1d       	adc	r22, r1
    8488:	38 81       	ld	r19, Y
    848a:	34 9f       	mul	r19, r20
    848c:	03 0e       	add	r0, r19
    848e:	30 e0       	ldi	r19, 0x00	; 0
    8490:	31 1d       	adc	r19, r1
        
        //    rgb1.nscale8(f1);
        uint8_t red2   = entry->red;
        red1   = scale8_LEAVING_R1_DIRTY( red1,   f1);
        red2   = scale8_LEAVING_R1_DIRTY( red2,   f2);
        red1   += red2;
    8492:	63 0f       	add	r22, r19
    8494:	57 9f       	mul	r21, r23
    8496:	05 0e       	add	r0, r21
    8498:	50 e0       	ldi	r21, 0x00	; 0
    849a:	51 1d       	adc	r21, r1
    849c:	39 81       	ldd	r19, Y+1	; 0x01
    849e:	34 9f       	mul	r19, r20
    84a0:	03 0e       	add	r0, r19
    84a2:	30 e0       	ldi	r19, 0x00	; 0
    84a4:	31 1d       	adc	r19, r1

        uint8_t green2 = entry->green;
        green1 = scale8_LEAVING_R1_DIRTY( green1, f1);
        green2 = scale8_LEAVING_R1_DIRTY( green2, f2);
        green1 += green2;
    84a6:	53 0f       	add	r21, r19
    84a8:	39 2f       	mov	r19, r25
    84aa:	37 9f       	mul	r19, r23
    84ac:	03 0e       	add	r0, r19
    84ae:	30 e0       	ldi	r19, 0x00	; 0
    84b0:	31 1d       	adc	r19, r1
    84b2:	9a 81       	ldd	r25, Y+2	; 0x02
    84b4:	79 2f       	mov	r23, r25
    84b6:	74 9f       	mul	r23, r20
    84b8:	07 0e       	add	r0, r23
    84ba:	70 e0       	ldi	r23, 0x00	; 0
    84bc:	71 1d       	adc	r23, r1

        uint8_t blue2  = entry->blue;
        blue1  = scale8_LEAVING_R1_DIRTY( blue1,  f1);
        blue2  = scale8_LEAVING_R1_DIRTY( blue2,  f2);
        blue1  += blue2;
    84be:	93 2f       	mov	r25, r19
    84c0:	97 0f       	add	r25, r23
/// Clean up the r1 register after a series of *LEAVING_R1_DIRTY calls
LIB8STATIC_ALWAYS_INLINE void cleanup_R1()
{
#if CLEANUP_R1_AVRASM == 1
    // Restore r1 to "0"; it's expected to always be that
    asm volatile( "clr __zero_reg__  \n\t" : : : "r1" );
    84c2:	11 24       	eor	r1, r1
        
        cleanup_R1();
    }
    
    if( brightness != 255) {
    84c4:	2f 3f       	cpi	r18, 0xFF	; 255
    84c6:	c1 f0       	breq	.+48     	; 0x84f8 <ColorFromPalette(CRGBPalette16 const&, unsigned char, unsigned char, TBlendType)+0xc8>
        if( brightness ) {
    84c8:	22 23       	and	r18, r18
    84ca:	f9 f0       	breq	.+62     	; 0x850a <ColorFromPalette(CRGBPalette16 const&, unsigned char, unsigned char, TBlendType)+0xda>
            brightness++; // adjust for rounding
    84cc:	2f 5f       	subi	r18, 0xFF	; 255
            // Now, since brightness is nonzero, we don't need the full scale8_video logic;
            // we can just to scale8 and then add one (unless scale8 fixed) to all nonzero inputs.
            if( red1 )   {
    84ce:	66 23       	and	r22, r22
    84d0:	21 f0       	breq	.+8      	; 0x84da <ColorFromPalette(CRGBPalette16 const&, unsigned char, unsigned char, TBlendType)+0xaa>
         /* R1 IS LEFT DIRTY HERE; YOU MUST ZERO IT OUT YOURSELF  */
         /* "clr __zero_reg__    \n\t" */

         : "+a" (i)      /* writes to i */
         : "a"  (scale)  /* uses scale */
         : "r0", "r1"    /* clobbers r0, r1 */ );
    84d2:	62 9f       	mul	r22, r18
    84d4:	06 0e       	add	r0, r22
    84d6:	60 e0       	ldi	r22, 0x00	; 0
    84d8:	61 1d       	adc	r22, r1
                red1 = scale8_LEAVING_R1_DIRTY( red1, brightness);
#if !(FASTLED_SCALE8_FIXED==1)
                red1++;
#endif
            }
            if( green1 ) {
    84da:	55 23       	and	r21, r21
    84dc:	21 f0       	breq	.+8      	; 0x84e6 <ColorFromPalette(CRGBPalette16 const&, unsigned char, unsigned char, TBlendType)+0xb6>
    84de:	52 9f       	mul	r21, r18
    84e0:	05 0e       	add	r0, r21
    84e2:	50 e0       	ldi	r21, 0x00	; 0
    84e4:	51 1d       	adc	r21, r1
                green1 = scale8_LEAVING_R1_DIRTY( green1, brightness);
#if !(FASTLED_SCALE8_FIXED==1)
                green1++;
#endif
            }
            if( blue1 )  {
    84e6:	99 23       	and	r25, r25
    84e8:	31 f0       	breq	.+12     	; 0x84f6 <ColorFromPalette(CRGBPalette16 const&, unsigned char, unsigned char, TBlendType)+0xc6>
    84ea:	39 2f       	mov	r19, r25
    84ec:	32 9f       	mul	r19, r18
    84ee:	03 0e       	add	r0, r19
    84f0:	30 e0       	ldi	r19, 0x00	; 0
    84f2:	31 1d       	adc	r19, r1
    84f4:	93 2f       	mov	r25, r19
/// Clean up the r1 register after a series of *LEAVING_R1_DIRTY calls
LIB8STATIC_ALWAYS_INLINE void cleanup_R1()
{
#if CLEANUP_R1_AVRASM == 1
    // Restore r1 to "0"; it's expected to always be that
    asm volatile( "clr __zero_reg__  \n\t" : : : "r1" );
    84f6:	11 24       	eor	r1, r1
    {
    }

    /// allow construction from R, G, B
    inline CRGB( uint8_t ir, uint8_t ig, uint8_t ib)  __attribute__((always_inline))
        : r(ir), g(ig), b(ib)
    84f8:	60 83       	st	Z, r22
    84fa:	51 83       	std	Z+1, r21	; 0x01
    84fc:	92 83       	std	Z+2, r25	; 0x02
            blue1 = 0;
        }
    }
    
    return CRGB( red1, green1, blue1);
}
    84fe:	cf 01       	movw	r24, r30
    8500:	df 91       	pop	r29
    8502:	cf 91       	pop	r28
    8504:	1f 91       	pop	r17
    8506:	0f 91       	pop	r16
    8508:	08 95       	ret
            }
            cleanup_R1();
        } else {
            red1 = 0;
            green1 = 0;
            blue1 = 0;
    850a:	90 e0       	ldi	r25, 0x00	; 0
#endif
            }
            cleanup_R1();
        } else {
            red1 = 0;
            green1 = 0;
    850c:	50 e0       	ldi	r21, 0x00	; 0
                blue1++;
#endif
            }
            cleanup_R1();
        } else {
            red1 = 0;
    850e:	60 e0       	ldi	r22, 0x00	; 0
    8510:	f3 cf       	rjmp	.-26     	; 0x84f8 <ColorFromPalette(CRGBPalette16 const&, unsigned char, unsigned char, TBlendType)+0xc8>

00008512 <CLEDController::computeAdjustment(unsigned char, CRGB const&, CRGB const&)>:
  } else {
    m_nMinMicros = 0;
  }
}

extern "C" int atexit(void (* /*func*/ )()) { return 0; }
    8512:	7f 92       	push	r7
    8514:	8f 92       	push	r8
    8516:	9f 92       	push	r9
    8518:	af 92       	push	r10
    851a:	bf 92       	push	r11
    851c:	cf 92       	push	r12
    851e:	df 92       	push	r13
    8520:	ef 92       	push	r14
    8522:	ff 92       	push	r15
    8524:	0f 93       	push	r16
    8526:	1f 93       	push	r17
    8528:	cf 93       	push	r28
    852a:	df 93       	push	r29
    852c:	fc 01       	movw	r30, r24
    852e:	69 01       	movw	r12, r18
    8530:	10 82       	st	Z, r1
    8532:	11 82       	std	Z+1, r1	; 0x01
    8534:	12 82       	std	Z+2, r1	; 0x02
    8536:	66 23       	and	r22, r22
    8538:	b9 f1       	breq	.+110    	; 0x85a8 <CLEDController::computeAdjustment(unsigned char, CRGB const&, CRGB const&)+0x96>
    853a:	8a 01       	movw	r16, r20
    853c:	c1 e0       	ldi	r28, 0x01	; 1
    853e:	d0 e0       	ldi	r29, 0x00	; 0
    8540:	86 2e       	mov	r8, r22
    8542:	91 2c       	mov	r9, r1
    8544:	b1 2c       	mov	r11, r1
    8546:	a1 2c       	mov	r10, r1
    8548:	d8 01       	movw	r26, r16
    854a:	2d 91       	ld	r18, X+
    854c:	8d 01       	movw	r16, r26
    854e:	22 23       	and	r18, r18
    8550:	39 f1       	breq	.+78     	; 0x85a0 <CLEDController::computeAdjustment(unsigned char, CRGB const&, CRGB const&)+0x8e>
    8552:	7e 01       	movw	r14, r28
    8554:	b1 e0       	ldi	r27, 0x01	; 1
    8556:	eb 1a       	sub	r14, r27
    8558:	f1 08       	sbc	r15, r1
    855a:	d6 01       	movw	r26, r12
    855c:	ae 0d       	add	r26, r14
    855e:	bf 1d       	adc	r27, r15
    8560:	7c 90       	ld	r7, X
    8562:	77 20       	and	r7, r7
    8564:	e9 f0       	breq	.+58     	; 0x85a0 <CLEDController::computeAdjustment(unsigned char, CRGB const&, CRGB const&)+0x8e>
    8566:	30 e0       	ldi	r19, 0x00	; 0
    8568:	50 e0       	ldi	r21, 0x00	; 0
    856a:	40 e0       	ldi	r20, 0x00	; 0
    856c:	2f 5f       	subi	r18, 0xFF	; 255
    856e:	3f 4f       	sbci	r19, 0xFF	; 255
    8570:	4f 4f       	sbci	r20, 0xFF	; 255
    8572:	5f 4f       	sbci	r21, 0xFF	; 255
    8574:	c5 01       	movw	r24, r10
    8576:	b4 01       	movw	r22, r8
    8578:	0e 94 f4 52 	call	0xa5e8	; 0xa5e8 <__mulsi3>
    857c:	9b 01       	movw	r18, r22
    857e:	ac 01       	movw	r20, r24
    8580:	87 2d       	mov	r24, r7
    8582:	90 e0       	ldi	r25, 0x00	; 0
    8584:	b0 e0       	ldi	r27, 0x00	; 0
    8586:	a0 e0       	ldi	r26, 0x00	; 0
    8588:	bc 01       	movw	r22, r24
    858a:	cd 01       	movw	r24, r26
    858c:	6f 5f       	subi	r22, 0xFF	; 255
    858e:	7f 4f       	sbci	r23, 0xFF	; 255
    8590:	8f 4f       	sbci	r24, 0xFF	; 255
    8592:	9f 4f       	sbci	r25, 0xFF	; 255
    8594:	0e 94 f4 52 	call	0xa5e8	; 0xa5e8 <__mulsi3>
    8598:	df 01       	movw	r26, r30
    859a:	ae 0d       	add	r26, r14
    859c:	bf 1d       	adc	r27, r15
    859e:	8c 93       	st	X, r24
    85a0:	21 96       	adiw	r28, 0x01	; 1
    85a2:	c4 30       	cpi	r28, 0x04	; 4
    85a4:	d1 05       	cpc	r29, r1
    85a6:	81 f6       	brne	.-96     	; 0x8548 <CLEDController::computeAdjustment(unsigned char, CRGB const&, CRGB const&)+0x36>
    85a8:	cf 01       	movw	r24, r30
    85aa:	df 91       	pop	r29
    85ac:	cf 91       	pop	r28
    85ae:	1f 91       	pop	r17
    85b0:	0f 91       	pop	r16
    85b2:	ff 90       	pop	r15
    85b4:	ef 90       	pop	r14
    85b6:	df 90       	pop	r13
    85b8:	cf 90       	pop	r12
    85ba:	bf 90       	pop	r11
    85bc:	af 90       	pop	r10
    85be:	9f 90       	pop	r9
    85c0:	8f 90       	pop	r8
    85c2:	7f 90       	pop	r7
    85c4:	08 95       	ret

000085c6 <CFastLED::CFastLED()>:
    85c6:	fc 01       	movw	r30, r24
    85c8:	8f ef       	ldi	r24, 0xFF	; 255
    85ca:	80 83       	st	Z, r24
    85cc:	12 82       	std	Z+2, r1	; 0x02
    85ce:	11 82       	std	Z+1, r1	; 0x01
    85d0:	14 86       	std	Z+12, r1	; 0x0c
    85d2:	13 86       	std	Z+11, r1	; 0x0b
    85d4:	8f ef       	ldi	r24, 0xFF	; 255
    85d6:	9f ef       	ldi	r25, 0xFF	; 255
    85d8:	dc 01       	movw	r26, r24
    85da:	87 83       	std	Z+7, r24	; 0x07
    85dc:	90 87       	std	Z+8, r25	; 0x08
    85de:	a1 87       	std	Z+9, r26	; 0x09
    85e0:	b2 87       	std	Z+10, r27	; 0x0a
    85e2:	08 95       	ret

000085e4 <CFastLED::clearData()>:
    85e4:	cf 93       	push	r28
    85e6:	df 93       	push	r29
    85e8:	c0 91 d8 10 	lds	r28, 0x10D8	; 0x8010d8 <CLEDController::m_pHead>
    85ec:	d0 91 d9 10 	lds	r29, 0x10D9	; 0x8010d9 <CLEDController::m_pHead+0x1>
    85f0:	20 97       	sbiw	r28, 0x00	; 0
    85f2:	89 f0       	breq	.+34     	; 0x8616 <CFastLED::clearData()+0x32>
    85f4:	8a 81       	ldd	r24, Y+2	; 0x02
    85f6:	9b 81       	ldd	r25, Y+3	; 0x03
    85f8:	00 97       	sbiw	r24, 0x00	; 0
    85fa:	49 f0       	breq	.+18     	; 0x860e <CFastLED::clearData()+0x2a>
    85fc:	2d 85       	ldd	r18, Y+13	; 0x0d
    85fe:	3e 85       	ldd	r19, Y+14	; 0x0e
    8600:	a9 01       	movw	r20, r18
    8602:	44 0f       	add	r20, r20
    8604:	55 1f       	adc	r21, r21
    8606:	42 0f       	add	r20, r18
    8608:	53 1f       	adc	r21, r19
    860a:	60 e0       	ldi	r22, 0x00	; 0
    860c:	d0 d2       	rcall	.+1440   	; 0x8bae <memset8>
    860e:	0c 80       	ldd	r0, Y+4	; 0x04
    8610:	dd 81       	ldd	r29, Y+5	; 0x05
    8612:	c0 2d       	mov	r28, r0
    8614:	ed cf       	rjmp	.-38     	; 0x85f0 <CFastLED::clearData()+0xc>
    8616:	df 91       	pop	r29
    8618:	cf 91       	pop	r28
    861a:	08 95       	ret

0000861c <CFastLED::countFPS(int)>:
    861c:	cf 92       	push	r12
    861e:	df 92       	push	r13
    8620:	ef 92       	push	r14
    8622:	ff 92       	push	r15
    8624:	cf 93       	push	r28
    8626:	df 93       	push	r29
    8628:	ec 01       	movw	r28, r24
    862a:	20 91 d0 10 	lds	r18, 0x10D0	; 0x8010d0 <CFastLED::countFPS(int)::br>
    862e:	30 91 d1 10 	lds	r19, 0x10D1	; 0x8010d1 <CFastLED::countFPS(int)::br+0x1>
    8632:	c9 01       	movw	r24, r18
    8634:	01 96       	adiw	r24, 0x01	; 1
    8636:	90 93 d1 10 	sts	0x10D1, r25	; 0x8010d1 <CFastLED::countFPS(int)::br+0x1>
    863a:	80 93 d0 10 	sts	0x10D0, r24	; 0x8010d0 <CFastLED::countFPS(int)::br>
    863e:	26 17       	cp	r18, r22
    8640:	37 07       	cpc	r19, r23
    8642:	0c f4       	brge	.+2      	; 0x8646 <CFastLED::countFPS(int)+0x2a>
    8644:	3f c0       	rjmp	.+126    	; 0x86c4 <CFastLED::countFPS(int)+0xa8>
    8646:	0f b6       	in	r0, 0x3f	; 63
    8648:	f8 94       	cli
    864a:	20 91 ea 10 	lds	r18, 0x10EA	; 0x8010ea <timer0_millis_count>
    864e:	30 91 eb 10 	lds	r19, 0x10EB	; 0x8010eb <timer0_millis_count+0x1>
    8652:	40 91 ec 10 	lds	r20, 0x10EC	; 0x8010ec <timer0_millis_count+0x2>
    8656:	50 91 ed 10 	lds	r21, 0x10ED	; 0x8010ed <timer0_millis_count+0x3>
    865a:	0f be       	out	0x3f, r0	; 63
    865c:	e8 ee       	ldi	r30, 0xE8	; 232
    865e:	f3 e0       	ldi	r31, 0x03	; 3
    8660:	8e 9f       	mul	r24, r30
    8662:	b0 01       	movw	r22, r0
    8664:	8f 9f       	mul	r24, r31
    8666:	70 0d       	add	r23, r0
    8668:	9e 9f       	mul	r25, r30
    866a:	70 0d       	add	r23, r0
    866c:	11 24       	eor	r1, r1
    866e:	07 2e       	mov	r0, r23
    8670:	00 0c       	add	r0, r0
    8672:	88 0b       	sbc	r24, r24
    8674:	99 0b       	sbc	r25, r25
    8676:	c0 90 cc 10 	lds	r12, 0x10CC	; 0x8010cc <CFastLED::countFPS(int)::lastframe>
    867a:	d0 90 cd 10 	lds	r13, 0x10CD	; 0x8010cd <CFastLED::countFPS(int)::lastframe+0x1>
    867e:	e0 90 ce 10 	lds	r14, 0x10CE	; 0x8010ce <CFastLED::countFPS(int)::lastframe+0x2>
    8682:	f0 90 cf 10 	lds	r15, 0x10CF	; 0x8010cf <CFastLED::countFPS(int)::lastframe+0x3>
    8686:	2c 19       	sub	r18, r12
    8688:	3d 09       	sbc	r19, r13
    868a:	4e 09       	sbc	r20, r14
    868c:	5f 09       	sbc	r21, r15
    868e:	0e 94 2a 53 	call	0xa654	; 0xa654 <__udivmodsi4>
    8692:	3a 83       	std	Y+2, r19	; 0x02
    8694:	29 83       	std	Y+1, r18	; 0x01
    8696:	10 92 d1 10 	sts	0x10D1, r1	; 0x8010d1 <CFastLED::countFPS(int)::br+0x1>
    869a:	10 92 d0 10 	sts	0x10D0, r1	; 0x8010d0 <CFastLED::countFPS(int)::br>
    869e:	0f b6       	in	r0, 0x3f	; 63
    86a0:	f8 94       	cli
    86a2:	80 91 ea 10 	lds	r24, 0x10EA	; 0x8010ea <timer0_millis_count>
    86a6:	90 91 eb 10 	lds	r25, 0x10EB	; 0x8010eb <timer0_millis_count+0x1>
    86aa:	a0 91 ec 10 	lds	r26, 0x10EC	; 0x8010ec <timer0_millis_count+0x2>
    86ae:	b0 91 ed 10 	lds	r27, 0x10ED	; 0x8010ed <timer0_millis_count+0x3>
    86b2:	0f be       	out	0x3f, r0	; 63
    86b4:	80 93 cc 10 	sts	0x10CC, r24	; 0x8010cc <CFastLED::countFPS(int)::lastframe>
    86b8:	90 93 cd 10 	sts	0x10CD, r25	; 0x8010cd <CFastLED::countFPS(int)::lastframe+0x1>
    86bc:	a0 93 ce 10 	sts	0x10CE, r26	; 0x8010ce <CFastLED::countFPS(int)::lastframe+0x2>
    86c0:	b0 93 cf 10 	sts	0x10CF, r27	; 0x8010cf <CFastLED::countFPS(int)::lastframe+0x3>
    86c4:	df 91       	pop	r29
    86c6:	cf 91       	pop	r28
    86c8:	ff 90       	pop	r15
    86ca:	ef 90       	pop	r14
    86cc:	df 90       	pop	r13
    86ce:	cf 90       	pop	r12
    86d0:	08 95       	ret

000086d2 <CFastLED::show(unsigned char)>:
    86d2:	8f 92       	push	r8
    86d4:	9f 92       	push	r9
    86d6:	af 92       	push	r10
    86d8:	bf 92       	push	r11
    86da:	cf 92       	push	r12
    86dc:	df 92       	push	r13
    86de:	ef 92       	push	r14
    86e0:	ff 92       	push	r15
    86e2:	0f 93       	push	r16
    86e4:	1f 93       	push	r17
    86e6:	cf 93       	push	r28
    86e8:	df 93       	push	r29
    86ea:	00 d0       	rcall	.+0      	; 0x86ec <CFastLED::show(unsigned char)+0x1a>
    86ec:	1f 92       	push	r1
    86ee:	cd b7       	in	r28, 0x3d	; 61
    86f0:	de b7       	in	r29, 0x3e	; 62
    86f2:	7c 01       	movw	r14, r24
    86f4:	d6 2e       	mov	r13, r22
    86f6:	d7 01       	movw	r26, r14
    86f8:	13 96       	adiw	r26, 0x03	; 3
    86fa:	0d 91       	ld	r16, X+
    86fc:	1d 91       	ld	r17, X+
    86fe:	2d 91       	ld	r18, X+
    8700:	3c 91       	ld	r19, X
    8702:	16 97       	sbiw	r26, 0x06	; 6
    8704:	01 15       	cp	r16, r1
    8706:	11 05       	cpc	r17, r1
    8708:	21 05       	cpc	r18, r1
    870a:	31 05       	cpc	r19, r1
    870c:	91 f0       	breq	.+36     	; 0x8732 <CFastLED::show(unsigned char)+0x60>
    870e:	7d d6       	rcall	.+3322   	; 0x940a <_micros>
    8710:	80 90 d2 10 	lds	r8, 0x10D2	; 0x8010d2 <lastshow>
    8714:	90 90 d3 10 	lds	r9, 0x10D3	; 0x8010d3 <lastshow+0x1>
    8718:	a0 90 d4 10 	lds	r10, 0x10D4	; 0x8010d4 <lastshow+0x2>
    871c:	b0 90 d5 10 	lds	r11, 0x10D5	; 0x8010d5 <lastshow+0x3>
    8720:	68 19       	sub	r22, r8
    8722:	79 09       	sbc	r23, r9
    8724:	8a 09       	sbc	r24, r10
    8726:	9b 09       	sbc	r25, r11
    8728:	60 17       	cp	r22, r16
    872a:	71 07       	cpc	r23, r17
    872c:	82 07       	cpc	r24, r18
    872e:	93 07       	cpc	r25, r19
    8730:	10 f3       	brcs	.-60     	; 0x86f6 <CFastLED::show(unsigned char)+0x24>
    8732:	6b d6       	rcall	.+3286   	; 0x940a <_micros>
    8734:	60 93 d2 10 	sts	0x10D2, r22	; 0x8010d2 <lastshow>
    8738:	70 93 d3 10 	sts	0x10D3, r23	; 0x8010d3 <lastshow+0x1>
    873c:	80 93 d4 10 	sts	0x10D4, r24	; 0x8010d4 <lastshow+0x2>
    8740:	90 93 d5 10 	sts	0x10D5, r25	; 0x8010d5 <lastshow+0x3>
    8744:	d7 01       	movw	r26, r14
    8746:	1b 96       	adiw	r26, 0x0b	; 11
    8748:	ed 91       	ld	r30, X+
    874a:	fc 91       	ld	r31, X
    874c:	1c 97       	sbiw	r26, 0x0c	; 12
    874e:	30 97       	sbiw	r30, 0x00	; 0
    8750:	49 f0       	breq	.+18     	; 0x8764 <CFastLED::show(unsigned char)+0x92>
    8752:	17 96       	adiw	r26, 0x07	; 7
    8754:	4d 91       	ld	r20, X+
    8756:	5d 91       	ld	r21, X+
    8758:	6d 91       	ld	r22, X+
    875a:	7c 91       	ld	r23, X
    875c:	1a 97       	sbiw	r26, 0x0a	; 10
    875e:	8d 2d       	mov	r24, r13
    8760:	09 95       	icall
    8762:	d8 2e       	mov	r13, r24
    8764:	00 91 d8 10 	lds	r16, 0x10D8	; 0x8010d8 <CLEDController::m_pHead>
    8768:	10 91 d9 10 	lds	r17, 0x10D9	; 0x8010d9 <CLEDController::m_pHead+0x1>
    876c:	01 15       	cp	r16, r1
    876e:	11 05       	cpc	r17, r1
    8770:	61 f1       	breq	.+88     	; 0x87ca <CFastLED::show(unsigned char)+0xf8>
    8772:	f8 01       	movw	r30, r16
    8774:	c4 84       	ldd	r12, Z+12	; 0x0c
    8776:	d7 01       	movw	r26, r14
    8778:	11 96       	adiw	r26, 0x01	; 1
    877a:	8d 91       	ld	r24, X+
    877c:	9c 91       	ld	r25, X
    877e:	84 36       	cpi	r24, 0x64	; 100
    8780:	91 05       	cpc	r25, r1
    8782:	08 f4       	brcc	.+2      	; 0x8786 <CFastLED::show(unsigned char)+0xb4>
    8784:	14 86       	std	Z+12, r1	; 0x0c
    8786:	d8 01       	movw	r26, r16
    8788:	ed 91       	ld	r30, X+
    878a:	fc 91       	ld	r31, X
    878c:	a2 80       	ldd	r10, Z+2	; 0x02
    878e:	b3 80       	ldd	r11, Z+3	; 0x03
    8790:	98 01       	movw	r18, r16
    8792:	27 5f       	subi	r18, 0xF7	; 247
    8794:	3f 4f       	sbci	r19, 0xFF	; 255
    8796:	a8 01       	movw	r20, r16
    8798:	4a 5f       	subi	r20, 0xFA	; 250
    879a:	5f 4f       	sbci	r21, 0xFF	; 255
    879c:	6d 2d       	mov	r22, r13
    879e:	ce 01       	movw	r24, r28
    87a0:	01 96       	adiw	r24, 0x01	; 1
    87a2:	b7 de       	rcall	.-658    	; 0x8512 <CLEDController::computeAdjustment(unsigned char, CRGB const&, CRGB const&)>
    87a4:	f8 01       	movw	r30, r16
    87a6:	45 85       	ldd	r20, Z+13	; 0x0d
    87a8:	56 85       	ldd	r21, Z+14	; 0x0e
    87aa:	62 81       	ldd	r22, Z+2	; 0x02
    87ac:	73 81       	ldd	r23, Z+3	; 0x03
    87ae:	9e 01       	movw	r18, r28
    87b0:	2f 5f       	subi	r18, 0xFF	; 255
    87b2:	3f 4f       	sbci	r19, 0xFF	; 255
    87b4:	c8 01       	movw	r24, r16
    87b6:	f5 01       	movw	r30, r10
    87b8:	09 95       	icall
    87ba:	d8 01       	movw	r26, r16
    87bc:	1c 96       	adiw	r26, 0x0c	; 12
    87be:	cc 92       	st	X, r12
    87c0:	1c 97       	sbiw	r26, 0x0c	; 12
    87c2:	14 96       	adiw	r26, 0x04	; 4
    87c4:	0d 91       	ld	r16, X+
    87c6:	1c 91       	ld	r17, X
    87c8:	d1 cf       	rjmp	.-94     	; 0x876c <CFastLED::show(unsigned char)+0x9a>
    87ca:	69 e1       	ldi	r22, 0x19	; 25
    87cc:	70 e0       	ldi	r23, 0x00	; 0
    87ce:	c7 01       	movw	r24, r14
    87d0:	25 df       	rcall	.-438    	; 0x861c <CFastLED::countFPS(int)>
    87d2:	0f 90       	pop	r0
    87d4:	0f 90       	pop	r0
    87d6:	0f 90       	pop	r0
    87d8:	df 91       	pop	r29
    87da:	cf 91       	pop	r28
    87dc:	1f 91       	pop	r17
    87de:	0f 91       	pop	r16
    87e0:	ff 90       	pop	r15
    87e2:	ef 90       	pop	r14
    87e4:	df 90       	pop	r13
    87e6:	cf 90       	pop	r12
    87e8:	bf 90       	pop	r11
    87ea:	af 90       	pop	r10
    87ec:	9f 90       	pop	r9
    87ee:	8f 90       	pop	r8
    87f0:	08 95       	ret

000087f2 <CFastLED::showColor(CRGB const&, unsigned char)>:
    87f2:	4f 92       	push	r4
    87f4:	5f 92       	push	r5
    87f6:	6f 92       	push	r6
    87f8:	7f 92       	push	r7
    87fa:	8f 92       	push	r8
    87fc:	9f 92       	push	r9
    87fe:	af 92       	push	r10
    8800:	bf 92       	push	r11
    8802:	cf 92       	push	r12
    8804:	df 92       	push	r13
    8806:	ef 92       	push	r14
    8808:	ff 92       	push	r15
    880a:	0f 93       	push	r16
    880c:	1f 93       	push	r17
    880e:	cf 93       	push	r28
    8810:	df 93       	push	r29
    8812:	00 d0       	rcall	.+0      	; 0x8814 <CFastLED::showColor(CRGB const&, unsigned char)+0x22>
    8814:	1f 92       	push	r1
    8816:	cd b7       	in	r28, 0x3d	; 61
    8818:	de b7       	in	r29, 0x3e	; 62
    881a:	7c 01       	movw	r14, r24
    881c:	5b 01       	movw	r10, r22
    881e:	d4 2e       	mov	r13, r20
    8820:	d7 01       	movw	r26, r14
    8822:	13 96       	adiw	r26, 0x03	; 3
    8824:	0d 91       	ld	r16, X+
    8826:	1d 91       	ld	r17, X+
    8828:	2d 91       	ld	r18, X+
    882a:	3c 91       	ld	r19, X
    882c:	16 97       	sbiw	r26, 0x06	; 6
    882e:	01 15       	cp	r16, r1
    8830:	11 05       	cpc	r17, r1
    8832:	21 05       	cpc	r18, r1
    8834:	31 05       	cpc	r19, r1
    8836:	91 f0       	breq	.+36     	; 0x885c <CFastLED::showColor(CRGB const&, unsigned char)+0x6a>
    8838:	e8 d5       	rcall	.+3024   	; 0x940a <_micros>
    883a:	40 90 d2 10 	lds	r4, 0x10D2	; 0x8010d2 <lastshow>
    883e:	50 90 d3 10 	lds	r5, 0x10D3	; 0x8010d3 <lastshow+0x1>
    8842:	60 90 d4 10 	lds	r6, 0x10D4	; 0x8010d4 <lastshow+0x2>
    8846:	70 90 d5 10 	lds	r7, 0x10D5	; 0x8010d5 <lastshow+0x3>
    884a:	64 19       	sub	r22, r4
    884c:	75 09       	sbc	r23, r5
    884e:	86 09       	sbc	r24, r6
    8850:	97 09       	sbc	r25, r7
    8852:	60 17       	cp	r22, r16
    8854:	71 07       	cpc	r23, r17
    8856:	82 07       	cpc	r24, r18
    8858:	93 07       	cpc	r25, r19
    885a:	10 f3       	brcs	.-60     	; 0x8820 <CFastLED::showColor(CRGB const&, unsigned char)+0x2e>
    885c:	d6 d5       	rcall	.+2988   	; 0x940a <_micros>
    885e:	60 93 d2 10 	sts	0x10D2, r22	; 0x8010d2 <lastshow>
    8862:	70 93 d3 10 	sts	0x10D3, r23	; 0x8010d3 <lastshow+0x1>
    8866:	80 93 d4 10 	sts	0x10D4, r24	; 0x8010d4 <lastshow+0x2>
    886a:	90 93 d5 10 	sts	0x10D5, r25	; 0x8010d5 <lastshow+0x3>
    886e:	d7 01       	movw	r26, r14
    8870:	1b 96       	adiw	r26, 0x0b	; 11
    8872:	ed 91       	ld	r30, X+
    8874:	fc 91       	ld	r31, X
    8876:	1c 97       	sbiw	r26, 0x0c	; 12
    8878:	30 97       	sbiw	r30, 0x00	; 0
    887a:	49 f0       	breq	.+18     	; 0x888e <CFastLED::showColor(CRGB const&, unsigned char)+0x9c>
    887c:	17 96       	adiw	r26, 0x07	; 7
    887e:	4d 91       	ld	r20, X+
    8880:	5d 91       	ld	r21, X+
    8882:	6d 91       	ld	r22, X+
    8884:	7c 91       	ld	r23, X
    8886:	1a 97       	sbiw	r26, 0x0a	; 10
    8888:	8d 2d       	mov	r24, r13
    888a:	09 95       	icall
    888c:	d8 2e       	mov	r13, r24
    888e:	00 91 d8 10 	lds	r16, 0x10D8	; 0x8010d8 <CLEDController::m_pHead>
    8892:	10 91 d9 10 	lds	r17, 0x10D9	; 0x8010d9 <CLEDController::m_pHead+0x1>
    8896:	01 15       	cp	r16, r1
    8898:	11 05       	cpc	r17, r1
    889a:	59 f1       	breq	.+86     	; 0x88f2 <CFastLED::showColor(CRGB const&, unsigned char)+0x100>
    889c:	f8 01       	movw	r30, r16
    889e:	c4 84       	ldd	r12, Z+12	; 0x0c
    88a0:	d7 01       	movw	r26, r14
    88a2:	11 96       	adiw	r26, 0x01	; 1
    88a4:	8d 91       	ld	r24, X+
    88a6:	9c 91       	ld	r25, X
    88a8:	84 36       	cpi	r24, 0x64	; 100
    88aa:	91 05       	cpc	r25, r1
    88ac:	08 f4       	brcc	.+2      	; 0x88b0 <CFastLED::showColor(CRGB const&, unsigned char)+0xbe>
    88ae:	14 86       	std	Z+12, r1	; 0x0c
    88b0:	d8 01       	movw	r26, r16
    88b2:	ed 91       	ld	r30, X+
    88b4:	fc 91       	ld	r31, X
    88b6:	80 80       	ld	r8, Z
    88b8:	91 80       	ldd	r9, Z+1	; 0x01
    88ba:	98 01       	movw	r18, r16
    88bc:	27 5f       	subi	r18, 0xF7	; 247
    88be:	3f 4f       	sbci	r19, 0xFF	; 255
    88c0:	a8 01       	movw	r20, r16
    88c2:	4a 5f       	subi	r20, 0xFA	; 250
    88c4:	5f 4f       	sbci	r21, 0xFF	; 255
    88c6:	6d 2d       	mov	r22, r13
    88c8:	ce 01       	movw	r24, r28
    88ca:	01 96       	adiw	r24, 0x01	; 1
    88cc:	22 de       	rcall	.-956    	; 0x8512 <CLEDController::computeAdjustment(unsigned char, CRGB const&, CRGB const&)>
    88ce:	f8 01       	movw	r30, r16
    88d0:	45 85       	ldd	r20, Z+13	; 0x0d
    88d2:	56 85       	ldd	r21, Z+14	; 0x0e
    88d4:	9e 01       	movw	r18, r28
    88d6:	2f 5f       	subi	r18, 0xFF	; 255
    88d8:	3f 4f       	sbci	r19, 0xFF	; 255
    88da:	b5 01       	movw	r22, r10
    88dc:	c8 01       	movw	r24, r16
    88de:	f4 01       	movw	r30, r8
    88e0:	09 95       	icall
    88e2:	d8 01       	movw	r26, r16
    88e4:	1c 96       	adiw	r26, 0x0c	; 12
    88e6:	cc 92       	st	X, r12
    88e8:	1c 97       	sbiw	r26, 0x0c	; 12
    88ea:	14 96       	adiw	r26, 0x04	; 4
    88ec:	0d 91       	ld	r16, X+
    88ee:	1c 91       	ld	r17, X
    88f0:	d2 cf       	rjmp	.-92     	; 0x8896 <CFastLED::showColor(CRGB const&, unsigned char)+0xa4>
    88f2:	69 e1       	ldi	r22, 0x19	; 25
    88f4:	70 e0       	ldi	r23, 0x00	; 0
    88f6:	c7 01       	movw	r24, r14
    88f8:	91 de       	rcall	.-734    	; 0x861c <CFastLED::countFPS(int)>
    88fa:	0f 90       	pop	r0
    88fc:	0f 90       	pop	r0
    88fe:	0f 90       	pop	r0
    8900:	df 91       	pop	r29
    8902:	cf 91       	pop	r28
    8904:	1f 91       	pop	r17
    8906:	0f 91       	pop	r16
    8908:	ff 90       	pop	r15
    890a:	ef 90       	pop	r14
    890c:	df 90       	pop	r13
    890e:	cf 90       	pop	r12
    8910:	bf 90       	pop	r11
    8912:	af 90       	pop	r10
    8914:	9f 90       	pop	r9
    8916:	8f 90       	pop	r8
    8918:	7f 90       	pop	r7
    891a:	6f 90       	pop	r6
    891c:	5f 90       	pop	r5
    891e:	4f 90       	pop	r4
    8920:	08 95       	ret

00008922 <CFastLED::clear(bool)>:
    8922:	0f 93       	push	r16
    8924:	1f 93       	push	r17
    8926:	cf 93       	push	r28
    8928:	df 93       	push	r29
    892a:	00 d0       	rcall	.+0      	; 0x892c <CFastLED::clear(bool)+0xa>
    892c:	1f 92       	push	r1
    892e:	cd b7       	in	r28, 0x3d	; 61
    8930:	de b7       	in	r29, 0x3e	; 62
    8932:	8c 01       	movw	r16, r24
    8934:	66 23       	and	r22, r22
    8936:	41 f0       	breq	.+16     	; 0x8948 <CFastLED::clear(bool)+0x26>
    8938:	19 82       	std	Y+1, r1	; 0x01
    893a:	1a 82       	std	Y+2, r1	; 0x02
    893c:	1b 82       	std	Y+3, r1	; 0x03
    893e:	40 e0       	ldi	r20, 0x00	; 0
    8940:	be 01       	movw	r22, r28
    8942:	6f 5f       	subi	r22, 0xFF	; 255
    8944:	7f 4f       	sbci	r23, 0xFF	; 255
    8946:	55 df       	rcall	.-342    	; 0x87f2 <CFastLED::showColor(CRGB const&, unsigned char)>
    8948:	c8 01       	movw	r24, r16
    894a:	4c de       	rcall	.-872    	; 0x85e4 <CFastLED::clearData()>
    894c:	0f 90       	pop	r0
    894e:	0f 90       	pop	r0
    8950:	0f 90       	pop	r0
    8952:	df 91       	pop	r29
    8954:	cf 91       	pop	r28
    8956:	1f 91       	pop	r17
    8958:	0f 91       	pop	r16
    895a:	08 95       	ret

0000895c <CFastLED::setMaxRefreshRate(unsigned int, bool)>:
    895c:	cf 93       	push	r28
    895e:	df 93       	push	r29
    8960:	ec 01       	movw	r28, r24
    8962:	44 23       	and	r20, r20
    8964:	f1 f0       	breq	.+60     	; 0x89a2 <CFastLED::setMaxRefreshRate(unsigned int, bool)+0x46>
    8966:	61 15       	cp	r22, r1
    8968:	71 05       	cpc	r23, r1
    896a:	c1 f0       	breq	.+48     	; 0x899c <CFastLED::setMaxRefreshRate(unsigned int, bool)+0x40>
    896c:	9b 01       	movw	r18, r22
    896e:	50 e0       	ldi	r21, 0x00	; 0
    8970:	40 e0       	ldi	r20, 0x00	; 0
    8972:	60 e4       	ldi	r22, 0x40	; 64
    8974:	72 e4       	ldi	r23, 0x42	; 66
    8976:	8f e0       	ldi	r24, 0x0F	; 15
    8978:	90 e0       	ldi	r25, 0x00	; 0
    897a:	0e 94 4c 53 	call	0xa698	; 0xa698 <__divmodsi4>
    897e:	8b 81       	ldd	r24, Y+3	; 0x03
    8980:	9c 81       	ldd	r25, Y+4	; 0x04
    8982:	ad 81       	ldd	r26, Y+5	; 0x05
    8984:	be 81       	ldd	r27, Y+6	; 0x06
    8986:	82 17       	cp	r24, r18
    8988:	93 07       	cpc	r25, r19
    898a:	a4 07       	cpc	r26, r20
    898c:	b5 07       	cpc	r27, r21
    898e:	10 f4       	brcc	.+4      	; 0x8994 <CFastLED::setMaxRefreshRate(unsigned int, bool)+0x38>
    8990:	da 01       	movw	r26, r20
    8992:	c9 01       	movw	r24, r18
    8994:	8b 83       	std	Y+3, r24	; 0x03
    8996:	9c 83       	std	Y+4, r25	; 0x04
    8998:	ad 83       	std	Y+5, r26	; 0x05
    899a:	be 83       	std	Y+6, r27	; 0x06
    899c:	df 91       	pop	r29
    899e:	cf 91       	pop	r28
    89a0:	08 95       	ret
    89a2:	61 15       	cp	r22, r1
    89a4:	71 05       	cpc	r23, r1
    89a6:	71 f0       	breq	.+28     	; 0x89c4 <CFastLED::setMaxRefreshRate(unsigned int, bool)+0x68>
    89a8:	9b 01       	movw	r18, r22
    89aa:	50 e0       	ldi	r21, 0x00	; 0
    89ac:	40 e0       	ldi	r20, 0x00	; 0
    89ae:	60 e4       	ldi	r22, 0x40	; 64
    89b0:	72 e4       	ldi	r23, 0x42	; 66
    89b2:	8f e0       	ldi	r24, 0x0F	; 15
    89b4:	90 e0       	ldi	r25, 0x00	; 0
    89b6:	0e 94 4c 53 	call	0xa698	; 0xa698 <__divmodsi4>
    89ba:	2b 83       	std	Y+3, r18	; 0x03
    89bc:	3c 83       	std	Y+4, r19	; 0x04
    89be:	4d 83       	std	Y+5, r20	; 0x05
    89c0:	5e 83       	std	Y+6, r21	; 0x06
    89c2:	ec cf       	rjmp	.-40     	; 0x899c <CFastLED::setMaxRefreshRate(unsigned int, bool)+0x40>
    89c4:	1b 82       	std	Y+3, r1	; 0x03
    89c6:	1c 82       	std	Y+4, r1	; 0x04
    89c8:	1d 82       	std	Y+5, r1	; 0x05
    89ca:	1e 82       	std	Y+6, r1	; 0x06
    89cc:	e7 cf       	rjmp	.-50     	; 0x899c <CFastLED::setMaxRefreshRate(unsigned int, bool)+0x40>

000089ce <CFastLED::addLeds(CLEDController*, CRGB*, int, int)>:
    89ce:	cf 92       	push	r12
    89d0:	df 92       	push	r13
    89d2:	ef 92       	push	r14
    89d4:	ff 92       	push	r15
    89d6:	0f 93       	push	r16
    89d8:	1f 93       	push	r17
    89da:	cf 93       	push	r28
    89dc:	df 93       	push	r29
    89de:	ec 01       	movw	r28, r24
    89e0:	6b 01       	movw	r12, r22
    89e2:	7a 01       	movw	r14, r20
    89e4:	10 e0       	ldi	r17, 0x00	; 0
    89e6:	00 e0       	ldi	r16, 0x00	; 0
    89e8:	12 16       	cp	r1, r18
    89ea:	13 06       	cpc	r1, r19
    89ec:	14 f4       	brge	.+4      	; 0x89f2 <CFastLED::addLeds(CLEDController*, CRGB*, int, int)+0x24>
    89ee:	8a 01       	movw	r16, r20
    89f0:	79 01       	movw	r14, r18
    89f2:	e8 81       	ld	r30, Y
    89f4:	f9 81       	ldd	r31, Y+1	; 0x01
    89f6:	04 80       	ldd	r0, Z+4	; 0x04
    89f8:	f5 81       	ldd	r31, Z+5	; 0x05
    89fa:	e0 2d       	mov	r30, r0
    89fc:	ce 01       	movw	r24, r28
    89fe:	09 95       	icall
    8a00:	c8 01       	movw	r24, r16
    8a02:	88 0f       	add	r24, r24
    8a04:	99 1f       	adc	r25, r25
    8a06:	08 0f       	add	r16, r24
    8a08:	19 1f       	adc	r17, r25
    8a0a:	c0 0e       	add	r12, r16
    8a0c:	d1 1e       	adc	r13, r17
    8a0e:	db 82       	std	Y+3, r13	; 0x03
    8a10:	ca 82       	std	Y+2, r12	; 0x02
    8a12:	ed 86       	std	Y+13, r14	; 0x0d
    8a14:	fe 86       	std	Y+14, r15	; 0x0e
    8a16:	e8 81       	ld	r30, Y
    8a18:	f9 81       	ldd	r31, Y+1	; 0x01
    8a1a:	02 84       	ldd	r0, Z+10	; 0x0a
    8a1c:	f3 85       	ldd	r31, Z+11	; 0x0b
    8a1e:	e0 2d       	mov	r30, r0
    8a20:	ce 01       	movw	r24, r28
    8a22:	09 95       	icall
    8a24:	41 e0       	ldi	r20, 0x01	; 1
    8a26:	bc 01       	movw	r22, r24
    8a28:	8a ed       	ldi	r24, 0xDA	; 218
    8a2a:	90 e1       	ldi	r25, 0x10	; 16
    8a2c:	97 df       	rcall	.-210    	; 0x895c <CFastLED::setMaxRefreshRate(unsigned int, bool)>
    8a2e:	ce 01       	movw	r24, r28
    8a30:	df 91       	pop	r29
    8a32:	cf 91       	pop	r28
    8a34:	1f 91       	pop	r17
    8a36:	0f 91       	pop	r16
    8a38:	ff 90       	pop	r15
    8a3a:	ef 90       	pop	r14
    8a3c:	df 90       	pop	r13
    8a3e:	cf 90       	pop	r12
    8a40:	08 95       	ret

00008a42 <_GLOBAL__sub_I_pSmartMatrix>:

FASTLED_NAMESPACE_BEGIN

void *pSmartMatrix = NULL;

CFastLED FastLED;
    8a42:	8a ed       	ldi	r24, 0xDA	; 218
    8a44:	90 e1       	ldi	r25, 0x10	; 16
    8a46:	bf cd       	rjmp	.-1154   	; 0x85c6 <CFastLED::CFastLED()>

00008a48 <hsv2rgb_rainbow(CHSV const&, CRGB&)>:
#define K171 171
#define K170 170
#define K85  85

void hsv2rgb_rainbow( const CHSV& hsv, CRGB& rgb)
{
    8a48:	1f 93       	push	r17
    8a4a:	dc 01       	movw	r26, r24
    8a4c:	fb 01       	movw	r30, r22
    // Gscale: what to scale green down by.
    // Depends GREATLY on your particular LEDs
    const uint8_t Gscale = 0;
    
    
    uint8_t hue = hsv.hue;
    8a4e:	7c 91       	ld	r23, X
    uint8_t sat = hsv.sat;
    8a50:	11 96       	adiw	r26, 0x01	; 1
    8a52:	4c 91       	ld	r20, X
    8a54:	11 97       	sbiw	r26, 0x01	; 1
    uint8_t val = hsv.val;
    8a56:	12 96       	adiw	r26, 0x02	; 2
    8a58:	1c 91       	ld	r17, X
        // It's much faster and smaller to just do three single-bit shifts
        // So this business is to force that.
        offset8 <<= 1;
        asm volatile("");
        offset8 <<= 1;
        asm volatile("");
    8a5a:	97 2f       	mov	r25, r23
    8a5c:	99 0f       	add	r25, r25
    8a5e:	99 0f       	add	r25, r25
    8a60:	99 0f       	add	r25, r25
#endif
         "clr __zero_reg__    \n\t"

         : "+a" (i)      /* writes to i */
         : "a"  (scale)  /* uses scale */
         : "r0", "r1"    /* clobbers r0, r1 */ );
    8a62:	35 e5       	ldi	r19, 0x55	; 85
    8a64:	29 2f       	mov	r18, r25
    8a66:	23 9f       	mul	r18, r19
    8a68:	02 0e       	add	r0, r18
    8a6a:	20 e0       	ldi	r18, 0x00	; 0
    8a6c:	21 1d       	adc	r18, r1
    8a6e:	11 24       	eor	r1, r1
    8a70:	82 2f       	mov	r24, r18
    8a72:	67 2f       	mov	r22, r23
    8a74:	60 74       	andi	r22, 0x40	; 64
    8a76:	57 2f       	mov	r21, r23
    8a78:	50 72       	andi	r21, 0x20	; 32
    
    uint8_t third = scale8( offset8, (256 / 3)); // max = 85
    
    uint8_t r, g, b;
    
    if( ! (hue & 0x80) ) {
    8a7a:	77 fd       	sbrc	r23, 7
    8a7c:	6f c0       	rjmp	.+222    	; 0x8b5c <L_630+0x62>
        // 0XX
        if( ! (hue & 0x40) ) {
    8a7e:	61 11       	cpse	r22, r1
    8a80:	5b c0       	rjmp	.+182    	; 0x8b38 <L_630+0x3e>
            // 00X
            //section 0-1
            if( ! (hue & 0x20) ) {
    8a82:	51 11       	cpse	r21, r1
    8a84:	05 c0       	rjmp	.+10     	; 0x8a90 <hsv2rgb_rainbow(CHSV const&, CRGB&)+0x48>
                // 000
                //case 0: // R -> O
                r = K255 - third;
    8a86:	92 2f       	mov	r25, r18
    8a88:	90 95       	com	r25
                // 010
                //case 2: // Y -> G
                if( Y1 ) {
                    //uint8_t twothirds = (third << 1);
                    uint8_t twothirds = scale8( offset8, ((256 * 2) / 3)); // max=170
                    r = K171 - twothirds;
    8a8a:	89 2f       	mov	r24, r25
                    g = K170 + third;
                    b = 0;
    8a8c:	90 e0       	ldi	r25, 0x00	; 0
    8a8e:	04 c0       	rjmp	.+8      	; 0x8a98 <hsv2rgb_rainbow(CHSV const&, CRGB&)+0x50>
            } else {
                // 001
                //case 1: // O -> Y
                if( Y1 ) {
                    r = K171;
                    g = K85 + third ;
    8a90:	25 e5       	ldi	r18, 0x55	; 85
    8a92:	28 0f       	add	r18, r24
                    b = 0;
    8a94:	90 e0       	ldi	r25, 0x00	; 0
                FORCE_REFERENCE(b);
            } else {
                // 001
                //case 1: // O -> Y
                if( Y1 ) {
                    r = K171;
    8a96:	8b ea       	ldi	r24, 0xAB	; 171
    if( G2 ) g = g >> 1;
    if( Gscale ) g = scale8_video_LEAVING_R1_DIRTY( g, Gscale);
    
    // Scale down colors if we're desaturated at all
    // and add the brightness_floor to r, g, and b.
    if( sat != 255 ) {
    8a98:	4f 3f       	cpi	r20, 0xFF	; 255
    8a9a:	09 f4       	brne	.+2      	; 0x8a9e <hsv2rgb_rainbow(CHSV const&, CRGB&)+0x56>
    8a9c:	24 c0       	rjmp	.+72     	; 0x8ae6 <hsv2rgb_rainbow(CHSV const&, CRGB&)+0x9e>
        if( sat == 0) {
    8a9e:	44 23       	and	r20, r20
    8aa0:	09 f4       	brne	.+2      	; 0x8aa4 <hsv2rgb_rainbow(CHSV const&, CRGB&)+0x5c>
    8aa2:	7d c0       	rjmp	.+250    	; 0x8b9e <L_630+0xa4>
            r = 255; b = 255; g = 255;
        } else {
            //nscale8x3_video( r, g, b, sat);
#if (FASTLED_SCALE8_FIXED==1)
            if( r ) r = scale8_LEAVING_R1_DIRTY( r, sat);
    8aa4:	88 23       	and	r24, r24
    8aa6:	31 f0       	breq	.+12     	; 0x8ab4 <hsv2rgb_rainbow(CHSV const&, CRGB&)+0x6c>
         /* R1 IS LEFT DIRTY HERE; YOU MUST ZERO IT OUT YOURSELF  */
         /* "clr __zero_reg__    \n\t" */

         : "+a" (i)      /* writes to i */
         : "a"  (scale)  /* uses scale */
         : "r0", "r1"    /* clobbers r0, r1 */ );
    8aa8:	38 2f       	mov	r19, r24
    8aaa:	34 9f       	mul	r19, r20
    8aac:	03 0e       	add	r0, r19
    8aae:	30 e0       	ldi	r19, 0x00	; 0
    8ab0:	31 1d       	adc	r19, r1
    8ab2:	83 2f       	mov	r24, r19
            if( g ) g = scale8_LEAVING_R1_DIRTY( g, sat);
    8ab4:	22 23       	and	r18, r18
    8ab6:	21 f0       	breq	.+8      	; 0x8ac0 <hsv2rgb_rainbow(CHSV const&, CRGB&)+0x78>
    8ab8:	24 9f       	mul	r18, r20
    8aba:	02 0e       	add	r0, r18
    8abc:	20 e0       	ldi	r18, 0x00	; 0
    8abe:	21 1d       	adc	r18, r1
            if( b ) b = scale8_LEAVING_R1_DIRTY( b, sat);
    8ac0:	99 23       	and	r25, r25
    8ac2:	31 f0       	breq	.+12     	; 0x8ad0 <hsv2rgb_rainbow(CHSV const&, CRGB&)+0x88>
    8ac4:	39 2f       	mov	r19, r25
    8ac6:	34 9f       	mul	r19, r20
    8ac8:	03 0e       	add	r0, r19
    8aca:	30 e0       	ldi	r19, 0x00	; 0
    8acc:	31 1d       	adc	r19, r1
    8ace:	93 2f       	mov	r25, r19
/// Clean up the r1 register after a series of *LEAVING_R1_DIRTY calls
LIB8STATIC_ALWAYS_INLINE void cleanup_R1()
{
#if CLEANUP_R1_AVRASM == 1
    // Restore r1 to "0"; it's expected to always be that
    asm volatile( "clr __zero_reg__  \n\t" : : : "r1" );
    8ad0:	11 24       	eor	r1, r1
            if( g ) g = scale8_LEAVING_R1_DIRTY( g, sat) + 1;
            if( b ) b = scale8_LEAVING_R1_DIRTY( b, sat) + 1;
#endif
            cleanup_R1();
            
            uint8_t desat = 255 - sat;
    8ad2:	34 2f       	mov	r19, r20
    8ad4:	30 95       	com	r19
#endif
         "clr __zero_reg__    \n\t"

         : "+a" (i)      /* writes to i */
         : "a"  (scale)  /* uses scale */
         : "r0", "r1"    /* clobbers r0, r1 */ );
    8ad6:	33 9f       	mul	r19, r19
    8ad8:	03 0e       	add	r0, r19
    8ada:	30 e0       	ldi	r19, 0x00	; 0
    8adc:	31 1d       	adc	r19, r1
    8ade:	11 24       	eor	r1, r1
            desat = scale8( desat, desat);
            
            uint8_t brightness_floor = desat;
            r += brightness_floor;
    8ae0:	83 0f       	add	r24, r19
            g += brightness_floor;
    8ae2:	23 0f       	add	r18, r19
            b += brightness_floor;
    8ae4:	93 0f       	add	r25, r19
        }
    }
    
    // Now scale everything down if we're at value < 255.
    if( val != 255 ) {
    8ae6:	1f 3f       	cpi	r17, 0xFF	; 255
    8ae8:	09 f4       	brne	.+2      	; 0x8aec <hsv2rgb_rainbow(CHSV const&, CRGB&)+0xa4>
    8aea:	21 c0       	rjmp	.+66     	; 0x8b2e <L_630+0x34>
        "  breq L_%=\n\t"
        "  subi %[j], 0xFF\n\t"
        "L_%=: \n\t"
        : [j] "+a" (j)
        : [i] "a" (i), [scale] "a" (scale)
        : "r0", "r1");
    8aec:	30 e0       	ldi	r19, 0x00	; 0
    8aee:	11 23       	and	r17, r17
    8af0:	21 f0       	breq	.+8      	; 0x8afa <L_630>
    8af2:	11 9f       	mul	r17, r17
    8af4:	31 2d       	mov	r19, r1
    8af6:	09 f0       	breq	.+2      	; 0x8afa <L_630>
    8af8:	3f 5f       	subi	r19, 0xFF	; 255

00008afa <L_630>:
        
        val = scale8_video_LEAVING_R1_DIRTY( val, val);
        if( val == 0 ) {
    8afa:	33 23       	and	r19, r19
    8afc:	09 f4       	brne	.+2      	; 0x8b00 <L_630+0x6>
    8afe:	53 c0       	rjmp	.+166    	; 0x8ba6 <L_630+0xac>
            r=0; g=0; b=0;
        } else {
            // nscale8x3_video( r, g, b, val);
#if (FASTLED_SCALE8_FIXED==1)
            if( r ) r = scale8_LEAVING_R1_DIRTY( r, val);
    8b00:	88 23       	and	r24, r24
    8b02:	31 f0       	breq	.+12     	; 0x8b10 <L_630+0x16>
         /* R1 IS LEFT DIRTY HERE; YOU MUST ZERO IT OUT YOURSELF  */
         /* "clr __zero_reg__    \n\t" */

         : "+a" (i)      /* writes to i */
         : "a"  (scale)  /* uses scale */
         : "r0", "r1"    /* clobbers r0, r1 */ );
    8b04:	48 2f       	mov	r20, r24
    8b06:	43 9f       	mul	r20, r19
    8b08:	04 0e       	add	r0, r20
    8b0a:	40 e0       	ldi	r20, 0x00	; 0
    8b0c:	41 1d       	adc	r20, r1
    8b0e:	84 2f       	mov	r24, r20
            if( g ) g = scale8_LEAVING_R1_DIRTY( g, val);
    8b10:	22 23       	and	r18, r18
    8b12:	21 f0       	breq	.+8      	; 0x8b1c <L_630+0x22>
    8b14:	23 9f       	mul	r18, r19
    8b16:	02 0e       	add	r0, r18
    8b18:	20 e0       	ldi	r18, 0x00	; 0
    8b1a:	21 1d       	adc	r18, r1
            if( b ) b = scale8_LEAVING_R1_DIRTY( b, val);
    8b1c:	99 23       	and	r25, r25
    8b1e:	31 f0       	breq	.+12     	; 0x8b2c <L_630+0x32>
    8b20:	49 2f       	mov	r20, r25
    8b22:	43 9f       	mul	r20, r19
    8b24:	04 0e       	add	r0, r20
    8b26:	40 e0       	ldi	r20, 0x00	; 0
    8b28:	41 1d       	adc	r20, r1
    8b2a:	94 2f       	mov	r25, r20
/// Clean up the r1 register after a series of *LEAVING_R1_DIRTY calls
LIB8STATIC_ALWAYS_INLINE void cleanup_R1()
{
#if CLEANUP_R1_AVRASM == 1
    // Restore r1 to "0"; it's expected to always be that
    asm volatile( "clr __zero_reg__  \n\t" : : : "r1" );
    8b2c:	11 24       	eor	r1, r1
    // It turns out that fixing it winds up costing more than
    // not fixing it.
    // To paraphrase Dr Bronner, profile! profile! profile!
    //asm volatile(  ""  :  :  : "r26", "r27" );
    //asm volatile (" movw r30, r26 \n" : : : "r30", "r31");
    rgb.r = r;
    8b2e:	80 83       	st	Z, r24
    rgb.g = g;
    8b30:	21 83       	std	Z+1, r18	; 0x01
    rgb.b = b;
    8b32:	92 83       	std	Z+2, r25	; 0x02
}
    8b34:	1f 91       	pop	r17
    8b36:	08 95       	ret
                }
            }
        } else {
            //01X
            // section 2-3
            if( !  (hue & 0x20) ) {
    8b38:	51 11       	cpse	r21, r1
    8b3a:	0b c0       	rjmp	.+22     	; 0x8b52 <L_630+0x58>
#endif
         "clr __zero_reg__    \n\t"

         : "+a" (i)      /* writes to i */
         : "a"  (scale)  /* uses scale */
         : "r0", "r1"    /* clobbers r0, r1 */ );
    8b3c:	39 2f       	mov	r19, r25
    8b3e:	2a ea       	ldi	r18, 0xAA	; 170
    8b40:	32 9f       	mul	r19, r18
    8b42:	03 0e       	add	r0, r19
    8b44:	30 e0       	ldi	r19, 0x00	; 0
    8b46:	31 1d       	adc	r19, r1
    8b48:	11 24       	eor	r1, r1
                // 010
                //case 2: // Y -> G
                if( Y1 ) {
                    //uint8_t twothirds = (third << 1);
                    uint8_t twothirds = scale8( offset8, ((256 * 2) / 3)); // max=170
                    r = K171 - twothirds;
    8b4a:	9b ea       	ldi	r25, 0xAB	; 171
    8b4c:	93 1b       	sub	r25, r19
                    g = K170 + third;
    8b4e:	28 0f       	add	r18, r24
                    b = 0;
                    FORCE_REFERENCE(b);
    8b50:	9c cf       	rjmp	.-200    	; 0x8a8a <hsv2rgb_rainbow(CHSV const&, CRGB&)+0x42>
                }
            } else {
                // 011
                // case 3: // G -> A
                r = 0;
                FORCE_REFERENCE(r);
    8b52:	90 e0       	ldi	r25, 0x00	; 0
                g = K255 - third;
    8b54:	20 95       	com	r18
                b = third;
    8b56:	98 2f       	mov	r25, r24
        if( ! (hue & 0x40) ) {
            // 10X
            if( ! ( hue & 0x20) ) {
                // 100
                //case 4: // A -> B
                r = 0;
    8b58:	80 e0       	ldi	r24, 0x00	; 0
    8b5a:	9e cf       	rjmp	.-196    	; 0x8a98 <hsv2rgb_rainbow(CHSV const&, CRGB&)+0x50>
            }
        }
    } else {
        // section 4-7
        // 1XX
        if( ! (hue & 0x40) ) {
    8b5c:	61 11       	cpse	r22, r1
    8b5e:	12 c0       	rjmp	.+36     	; 0x8b84 <L_630+0x8a>
            // 10X
            if( ! ( hue & 0x20) ) {
    8b60:	51 11       	cpse	r21, r1
    8b62:	0c c0       	rjmp	.+24     	; 0x8b7c <L_630+0x82>
    8b64:	39 2f       	mov	r19, r25
    8b66:	2a ea       	ldi	r18, 0xAA	; 170
    8b68:	32 9f       	mul	r19, r18
    8b6a:	03 0e       	add	r0, r19
    8b6c:	30 e0       	ldi	r19, 0x00	; 0
    8b6e:	31 1d       	adc	r19, r1
    8b70:	11 24       	eor	r1, r1
                //case 4: // A -> B
                r = 0;
                FORCE_REFERENCE(r);
                //uint8_t twothirds = (third << 1);
                uint8_t twothirds = scale8( offset8, ((256 * 2) / 3)); // max=170
                g = K171 - twothirds; //K170?
    8b72:	2b ea       	ldi	r18, 0xAB	; 171
    8b74:	23 1b       	sub	r18, r19
                b = K85  + twothirds;
    8b76:	95 e5       	ldi	r25, 0x55	; 85
    8b78:	93 0f       	add	r25, r19
    8b7a:	ee cf       	rjmp	.-36     	; 0x8b58 <L_630+0x5e>
                // 101
                //case 5: // B -> P
                r = third;
                g = 0;
                FORCE_REFERENCE(g);
                b = K255 - third;
    8b7c:	92 2f       	mov	r25, r18
    8b7e:	90 95       	com	r25
                
            } else {
                // 111
                //case 7: // K -> R
                r = K170 + third;
                g = 0;
    8b80:	20 e0       	ldi	r18, 0x00	; 0
    8b82:	8a cf       	rjmp	.-236    	; 0x8a98 <hsv2rgb_rainbow(CHSV const&, CRGB&)+0x50>
                FORCE_REFERENCE(g);
                b = K255 - third;
                
            }
        } else {
            if( !  (hue & 0x20)  ) {
    8b84:	51 11       	cpse	r21, r1
    8b86:	06 c0       	rjmp	.+12     	; 0x8b94 <L_630+0x9a>
                // 110
                //case 6: // P -- K
                r = K85 + third;
    8b88:	25 e5       	ldi	r18, 0x55	; 85
    8b8a:	28 0f       	add	r18, r24
                g = 0;
                FORCE_REFERENCE(g);
                b = K171 - third;
    8b8c:	9b ea       	ldi	r25, 0xAB	; 171
                // 111
                //case 7: // K -> R
                r = K170 + third;
                g = 0;
                FORCE_REFERENCE(g);
                b = K85 - third;
    8b8e:	98 1b       	sub	r25, r24
                b = K171 - third;
                
            } else {
                // 111
                //case 7: // K -> R
                r = K170 + third;
    8b90:	82 2f       	mov	r24, r18
    8b92:	f6 cf       	rjmp	.-20     	; 0x8b80 <L_630+0x86>
    8b94:	2a ea       	ldi	r18, 0xAA	; 170
    8b96:	28 0f       	add	r18, r24
                g = 0;
                FORCE_REFERENCE(g);
    8b98:	90 e0       	ldi	r25, 0x00	; 0
                b = K85 - third;
    8b9a:	93 2f       	mov	r25, r19
    8b9c:	f8 cf       	rjmp	.-16     	; 0x8b8e <L_630+0x94>
    
    // Scale down colors if we're desaturated at all
    // and add the brightness_floor to r, g, and b.
    if( sat != 255 ) {
        if( sat == 0) {
            r = 255; b = 255; g = 255;
    8b9e:	9f ef       	ldi	r25, 0xFF	; 255
    8ba0:	2f ef       	ldi	r18, 0xFF	; 255
    8ba2:	8f ef       	ldi	r24, 0xFF	; 255
    8ba4:	a0 cf       	rjmp	.-192    	; 0x8ae6 <hsv2rgb_rainbow(CHSV const&, CRGB&)+0x9e>
    // Now scale everything down if we're at value < 255.
    if( val != 255 ) {
        
        val = scale8_video_LEAVING_R1_DIRTY( val, val);
        if( val == 0 ) {
            r=0; g=0; b=0;
    8ba6:	90 e0       	ldi	r25, 0x00	; 0
    8ba8:	20 e0       	ldi	r18, 0x00	; 0
    8baa:	80 e0       	ldi	r24, 0x00	; 0
    8bac:	c0 cf       	rjmp	.-128    	; 0x8b2e <L_630+0x34>

00008bae <memset8>:
         "  brcc Lsetloop_%=        \n\t"
         : [num] "+r" (num)
         : [ptr]  "r" (ptr),
           [val]  "r" (val)
         : "memory"
         );
    8bae:	dc 01       	movw	r26, r24
    8bb0:	40 ff       	sbrs	r20, 0
    8bb2:	03 c0       	rjmp	.+6      	; 0x8bba <Lseteven_8>
    8bb4:	01 c0       	rjmp	.+2      	; 0x8bb8 <Lsetodd_8>

00008bb6 <Lsetloop_8>:
    8bb6:	6d 93       	st	X+, r22

00008bb8 <Lsetodd_8>:
    8bb8:	6d 93       	st	X+, r22

00008bba <Lseteven_8>:
    8bba:	42 50       	subi	r20, 0x02	; 2
    8bbc:	e0 f7       	brcc	.-8      	; 0x8bb6 <Lsetloop_8>
    8bbe:	50 40       	sbci	r21, 0x00	; 0
    8bc0:	d0 f7       	brcc	.-12     	; 0x8bb6 <Lsetloop_8>
    return ptr;
}
    8bc2:	08 95       	ret

00008bc4 <memcpy8>:
         "  brcc Lcpyloop_%=        \n\t"
         : [num] "+r" (num)
         : [src] "r" (src),
           [dst] "r" (dst)
         : "memory"
         );
    8bc4:	fb 01       	movw	r30, r22
    8bc6:	dc 01       	movw	r26, r24
    8bc8:	40 ff       	sbrs	r20, 0
    8bca:	05 c0       	rjmp	.+10     	; 0x8bd6 <Lcpyeven_23>
    8bcc:	02 c0       	rjmp	.+4      	; 0x8bd2 <Lcpyodd_23>

00008bce <Lcpyloop_23>:
    8bce:	01 90       	ld	r0, Z+
    8bd0:	0d 92       	st	X+, r0

00008bd2 <Lcpyodd_23>:
    8bd2:	01 90       	ld	r0, Z+
    8bd4:	0d 92       	st	X+, r0

00008bd6 <Lcpyeven_23>:
    8bd6:	42 50       	subi	r20, 0x02	; 2
    8bd8:	d0 f7       	brcc	.-12     	; 0x8bce <Lcpyloop_23>
    8bda:	50 40       	sbci	r21, 0x00	; 0
    8bdc:	c0 f7       	brcc	.-16     	; 0x8bce <Lcpyloop_23>
    return dst;
}
    8bde:	08 95       	ret

00008be0 <memmove8>:

//__attribute__ ((noinline))
void * memmove8 ( void * dst, const void* src, uint16_t num )
{
    if( src > dst) {
    8be0:	86 17       	cp	r24, r22
    8be2:	97 07       	cpc	r25, r23
    8be4:	08 f4       	brcc	.+2      	; 0x8be8 <memmove8+0x8>
        // if src > dst then we can use the forward-stepping memcpy8
        return memcpy8( dst, src, num);
    8be6:	ee cf       	rjmp	.-36     	; 0x8bc4 <memcpy8>
    } else {
        // if src < dst then we have to step backward:
        dst = (char*)dst + num;
    8be8:	84 0f       	add	r24, r20
    8bea:	95 1f       	adc	r25, r21
        src = (char*)src + num;
    8bec:	64 0f       	add	r22, r20
    8bee:	75 1f       	adc	r23, r21
             "  brcc Lmovloop_%=        \n\t"
             : [num] "+r" (num)
             : [src] "r" (src),
               [dst] "r" (dst)
             : "memory"
             );
    8bf0:	fb 01       	movw	r30, r22
    8bf2:	dc 01       	movw	r26, r24
    8bf4:	40 ff       	sbrs	r20, 0
    8bf6:	05 c0       	rjmp	.+10     	; 0x8c02 <Lmoveven_58>
    8bf8:	02 c0       	rjmp	.+4      	; 0x8bfe <Lmovodd_58>

00008bfa <Lmovloop_58>:
    8bfa:	02 90       	ld	r0, -Z
    8bfc:	0e 92       	st	-X, r0

00008bfe <Lmovodd_58>:
    8bfe:	02 90       	ld	r0, -Z
    8c00:	0e 92       	st	-X, r0

00008c02 <Lmoveven_58>:
    8c02:	42 50       	subi	r20, 0x02	; 2
    8c04:	d0 f7       	brcc	.-12     	; 0x8bfa <Lmovloop_58>
    8c06:	50 40       	sbci	r21, 0x00	; 0
    8c08:	c0 f7       	brcc	.-16     	; 0x8bfa <Lmovloop_58>
        return dst;
    }
}
    8c0a:	08 95       	ret

00008c0c <malloc>:
//char *__brkval_maximum = 0;


void *
malloc(size_t len)
{
    8c0c:	0f 93       	push	r16
    8c0e:	1f 93       	push	r17
    8c10:	cf 93       	push	r28
    8c12:	df 93       	push	r29
    8c14:	82 30       	cpi	r24, 0x02	; 2
    8c16:	91 05       	cpc	r25, r1
    8c18:	10 f4       	brcc	.+4      	; 0x8c1e <malloc+0x12>
    8c1a:	82 e0       	ldi	r24, 0x02	; 2
    8c1c:	90 e0       	ldi	r25, 0x00	; 0
	 * would match exactly.  If we found one, we are done.  While
	 * walking, note down the smallest chunk we found that would
	 * still fit the request -- we need it for step 2.
	 *
	 */
	for (s = 0, fp1 = __flp, fp2 = 0;
    8c1e:	e0 91 74 11 	lds	r30, 0x1174	; 0x801174 <__flp>
    8c22:	f0 91 75 11 	lds	r31, 0x1175	; 0x801175 <__flp+0x1>
    8c26:	30 e0       	ldi	r19, 0x00	; 0
    8c28:	20 e0       	ldi	r18, 0x00	; 0


void *
malloc(size_t len)
{
	struct __freelist *fp1, *fp2, *sfp1=NULL, *sfp2=NULL;
    8c2a:	70 e0       	ldi	r23, 0x00	; 0
    8c2c:	60 e0       	ldi	r22, 0x00	; 0
    8c2e:	d0 e0       	ldi	r29, 0x00	; 0
    8c30:	c0 e0       	ldi	r28, 0x00	; 0
	 * would match exactly.  If we found one, we are done.  While
	 * walking, note down the smallest chunk we found that would
	 * still fit the request -- we need it for step 2.
	 *
	 */
	for (s = 0, fp1 = __flp, fp2 = 0;
    8c32:	b0 e0       	ldi	r27, 0x00	; 0
    8c34:	a0 e0       	ldi	r26, 0x00	; 0
    8c36:	30 97       	sbiw	r30, 0x00	; 0
    8c38:	99 f4       	brne	.+38     	; 0x8c60 <malloc+0x54>
	 * difference between the requested size and the size of the
	 * chunk found is large enough for another freelist entry; if
	 * not, just enlarge the request size to what we have found,
	 * and use the entire chunk.
	 */
	if (s) {
    8c3a:	21 15       	cp	r18, r1
    8c3c:	31 05       	cpc	r19, r1
    8c3e:	09 f4       	brne	.+2      	; 0x8c42 <malloc+0x36>
    8c40:	4a c0       	rjmp	.+148    	; 0x8cd6 <malloc+0xca>
		if (s - len < sizeof(struct __freelist)) {
    8c42:	28 1b       	sub	r18, r24
    8c44:	39 0b       	sbc	r19, r25
    8c46:	24 30       	cpi	r18, 0x04	; 4
    8c48:	31 05       	cpc	r19, r1
    8c4a:	d8 f5       	brcc	.+118    	; 0x8cc2 <malloc+0xb6>
    8c4c:	8a 81       	ldd	r24, Y+2	; 0x02
    8c4e:	9b 81       	ldd	r25, Y+3	; 0x03
			/* Disconnect it from freelist and return it. */
			if (sfp2)
    8c50:	61 15       	cp	r22, r1
    8c52:	71 05       	cpc	r23, r1
    8c54:	89 f1       	breq	.+98     	; 0x8cb8 <malloc+0xac>
				sfp2->nx = sfp1->nx;
    8c56:	fb 01       	movw	r30, r22
    8c58:	93 83       	std	Z+3, r25	; 0x03
    8c5a:	82 83       	std	Z+2, r24	; 0x02
			else
				__flp = sfp1->nx;
			return &(sfp1->nx);
    8c5c:	fe 01       	movw	r30, r28
    8c5e:	11 c0       	rjmp	.+34     	; 0x8c82 <malloc+0x76>
	 *
	 */
	for (s = 0, fp1 = __flp, fp2 = 0;
	     fp1;
	     fp2 = fp1, fp1 = fp1->nx) {
		if (fp1->sz < len)
    8c60:	40 81       	ld	r20, Z
    8c62:	51 81       	ldd	r21, Z+1	; 0x01
    8c64:	02 81       	ldd	r16, Z+2	; 0x02
    8c66:	13 81       	ldd	r17, Z+3	; 0x03
    8c68:	48 17       	cp	r20, r24
    8c6a:	59 07       	cpc	r21, r25
    8c6c:	e0 f0       	brcs	.+56     	; 0x8ca6 <malloc+0x9a>
			continue;
		if (fp1->sz == len) {
    8c6e:	48 17       	cp	r20, r24
    8c70:	59 07       	cpc	r21, r25
    8c72:	99 f4       	brne	.+38     	; 0x8c9a <malloc+0x8e>
			/*
			 * Found it.  Disconnect the chunk from the
			 * freelist, and return it.
			 */
			if (fp2)
    8c74:	10 97       	sbiw	r26, 0x00	; 0
    8c76:	61 f0       	breq	.+24     	; 0x8c90 <malloc+0x84>
				fp2->nx = fp1->nx;
    8c78:	12 96       	adiw	r26, 0x02	; 2
    8c7a:	0c 93       	st	X, r16
    8c7c:	12 97       	sbiw	r26, 0x02	; 2
    8c7e:	13 96       	adiw	r26, 0x03	; 3
    8c80:	1c 93       	st	X, r17
			/* Disconnect it from freelist and return it. */
			if (sfp2)
				sfp2->nx = sfp1->nx;
			else
				__flp = sfp1->nx;
			return &(sfp1->nx);
    8c82:	32 96       	adiw	r30, 0x02	; 2
	}
	/*
	 * Step 4: There's no help, just fail. :-/
	 */
	return 0;
}
    8c84:	cf 01       	movw	r24, r30
    8c86:	df 91       	pop	r29
    8c88:	cf 91       	pop	r28
    8c8a:	1f 91       	pop	r17
    8c8c:	0f 91       	pop	r16
    8c8e:	08 95       	ret
			 * freelist, and return it.
			 */
			if (fp2)
				fp2->nx = fp1->nx;
			else
				__flp = fp1->nx;
    8c90:	00 93 74 11 	sts	0x1174, r16	; 0x801174 <__flp>
    8c94:	10 93 75 11 	sts	0x1175, r17	; 0x801175 <__flp+0x1>
    8c98:	f4 cf       	rjmp	.-24     	; 0x8c82 <malloc+0x76>
			return &(fp1->nx);
		}
		else {
			if (s == 0 || fp1->sz < s) {
    8c9a:	21 15       	cp	r18, r1
    8c9c:	31 05       	cpc	r19, r1
    8c9e:	51 f0       	breq	.+20     	; 0x8cb4 <malloc+0xa8>
    8ca0:	42 17       	cp	r20, r18
    8ca2:	53 07       	cpc	r21, r19
    8ca4:	38 f0       	brcs	.+14     	; 0x8cb4 <malloc+0xa8>
    8ca6:	a9 01       	movw	r20, r18
    8ca8:	db 01       	movw	r26, r22
	 * still fit the request -- we need it for step 2.
	 *
	 */
	for (s = 0, fp1 = __flp, fp2 = 0;
	     fp1;
	     fp2 = fp1, fp1 = fp1->nx) {
    8caa:	9a 01       	movw	r18, r20
    8cac:	bd 01       	movw	r22, r26
    8cae:	df 01       	movw	r26, r30
    8cb0:	f8 01       	movw	r30, r16
    8cb2:	c1 cf       	rjmp	.-126    	; 0x8c36 <malloc+0x2a>
    8cb4:	ef 01       	movw	r28, r30
    8cb6:	f9 cf       	rjmp	.-14     	; 0x8caa <malloc+0x9e>
		if (s - len < sizeof(struct __freelist)) {
			/* Disconnect it from freelist and return it. */
			if (sfp2)
				sfp2->nx = sfp1->nx;
			else
				__flp = sfp1->nx;
    8cb8:	90 93 75 11 	sts	0x1175, r25	; 0x801175 <__flp+0x1>
    8cbc:	80 93 74 11 	sts	0x1174, r24	; 0x801174 <__flp>
    8cc0:	cd cf       	rjmp	.-102    	; 0x8c5c <malloc+0x50>
		 */
		cp = (char *)sfp1;
		s -= len;
		cp += s;
		sfp2 = (struct __freelist *)cp;
		sfp2->sz = len;
    8cc2:	fe 01       	movw	r30, r28
    8cc4:	e2 0f       	add	r30, r18
    8cc6:	f3 1f       	adc	r31, r19
    8cc8:	81 93       	st	Z+, r24
    8cca:	91 93       	st	Z+, r25
		sfp1->sz = s - sizeof(size_t);
    8ccc:	22 50       	subi	r18, 0x02	; 2
    8cce:	31 09       	sbc	r19, r1
    8cd0:	39 83       	std	Y+1, r19	; 0x01
    8cd2:	28 83       	st	Y, r18
		return &(sfp2->nx);
    8cd4:	d7 cf       	rjmp	.-82     	; 0x8c84 <malloc+0x78>
	 * Under Unix, the "break value" was the end of the data
	 * segment as dynamically requested from the operating system.
	 * Since we don't have an operating system, just make sure
	 * that we don't collide with the stack.
	 */
	if (__brkval == 0)
    8cd6:	20 91 e7 10 	lds	r18, 0x10E7	; 0x8010e7 <__brkval>
    8cda:	30 91 e8 10 	lds	r19, 0x10E8	; 0x8010e8 <__brkval+0x1>
    8cde:	23 2b       	or	r18, r19
    8ce0:	41 f4       	brne	.+16     	; 0x8cf2 <malloc+0xe6>
		__brkval = __malloc_heap_start;
    8ce2:	20 91 0c 01 	lds	r18, 0x010C	; 0x80010c <__malloc_heap_start>
    8ce6:	30 91 0d 01 	lds	r19, 0x010D	; 0x80010d <__malloc_heap_start+0x1>
    8cea:	30 93 e8 10 	sts	0x10E8, r19	; 0x8010e8 <__brkval+0x1>
    8cee:	20 93 e7 10 	sts	0x10E7, r18	; 0x8010e7 <__brkval>
	cp = __malloc_heap_end;
    8cf2:	20 91 0a 01 	lds	r18, 0x010A	; 0x80010a <__malloc_heap_end>
    8cf6:	30 91 0b 01 	lds	r19, 0x010B	; 0x80010b <__malloc_heap_end+0x1>
	if (cp == 0)
    8cfa:	21 15       	cp	r18, r1
    8cfc:	31 05       	cpc	r19, r1
    8cfe:	41 f4       	brne	.+16     	; 0x8d10 <malloc+0x104>
		cp = STACK_POINTER() - __malloc_margin;
    8d00:	2d b7       	in	r18, 0x3d	; 61
    8d02:	3e b7       	in	r19, 0x3e	; 62
    8d04:	40 91 0e 01 	lds	r20, 0x010E	; 0x80010e <__malloc_margin>
    8d08:	50 91 0f 01 	lds	r21, 0x010F	; 0x80010f <__malloc_margin+0x1>
    8d0c:	24 1b       	sub	r18, r20
    8d0e:	35 0b       	sbc	r19, r21
	if (cp <= __brkval)
    8d10:	e0 91 e7 10 	lds	r30, 0x10E7	; 0x8010e7 <__brkval>
    8d14:	f0 91 e8 10 	lds	r31, 0x10E8	; 0x8010e8 <__brkval+0x1>
    8d18:	e2 17       	cp	r30, r18
    8d1a:	f3 07       	cpc	r31, r19
    8d1c:	a0 f4       	brcc	.+40     	; 0x8d46 <malloc+0x13a>
	  /*
	   * Memory exhausted.
	   */
	  return 0;
	avail = cp - __brkval;
    8d1e:	2e 1b       	sub	r18, r30
    8d20:	3f 0b       	sbc	r19, r31
	/*
	 * Both tests below are needed to catch the case len >= 0xfffe.
	 */
	if (avail >= len && avail >= len + sizeof(size_t)) {
    8d22:	28 17       	cp	r18, r24
    8d24:	39 07       	cpc	r19, r25
    8d26:	78 f0       	brcs	.+30     	; 0x8d46 <malloc+0x13a>
    8d28:	ac 01       	movw	r20, r24
    8d2a:	4e 5f       	subi	r20, 0xFE	; 254
    8d2c:	5f 4f       	sbci	r21, 0xFF	; 255
    8d2e:	24 17       	cp	r18, r20
    8d30:	35 07       	cpc	r19, r21
    8d32:	48 f0       	brcs	.+18     	; 0x8d46 <malloc+0x13a>
		fp1 = (struct __freelist *)__brkval;
		__brkval += len + sizeof(size_t);
    8d34:	4e 0f       	add	r20, r30
    8d36:	5f 1f       	adc	r21, r31
    8d38:	50 93 e8 10 	sts	0x10E8, r21	; 0x8010e8 <__brkval+0x1>
    8d3c:	40 93 e7 10 	sts	0x10E7, r20	; 0x8010e7 <__brkval>
		//__brkval_maximum = __brkval;
		fp1->sz = len;
    8d40:	81 93       	st	Z+, r24
    8d42:	91 93       	st	Z+, r25
		return &(fp1->nx);
    8d44:	9f cf       	rjmp	.-194    	; 0x8c84 <malloc+0x78>
		cp = STACK_POINTER() - __malloc_margin;
	if (cp <= __brkval)
	  /*
	   * Memory exhausted.
	   */
	  return 0;
    8d46:	f0 e0       	ldi	r31, 0x00	; 0
    8d48:	e0 e0       	ldi	r30, 0x00	; 0
    8d4a:	9c cf       	rjmp	.-200    	; 0x8c84 <malloc+0x78>

00008d4c <free>:
}


void
free(void *p)
{
    8d4c:	cf 93       	push	r28
    8d4e:	df 93       	push	r29
	struct __freelist *fp1, *fp2, *fpnew;
	char *cp1, *cp2, *cpnew;

	/* ISO C says free(NULL) must be a no-op */
	if (p == 0)
    8d50:	00 97       	sbiw	r24, 0x00	; 0
    8d52:	e9 f0       	breq	.+58     	; 0x8d8e <free+0x42>
		return;

	cpnew = p;
	cpnew -= sizeof(size_t);
    8d54:	fc 01       	movw	r30, r24
    8d56:	32 97       	sbiw	r30, 0x02	; 2
	fpnew = (struct __freelist *)cpnew;
	fpnew->nx = 0;
    8d58:	13 82       	std	Z+3, r1	; 0x03
    8d5a:	12 82       	std	Z+2, r1	; 0x02
	/*
	 * Trivial case first: if there's no freelist yet, our entry
	 * will be the only one on it.  If this is the last entry, we
	 * can reduce __brkval instead.
	 */
	if (__flp == 0) {
    8d5c:	a0 91 74 11 	lds	r26, 0x1174	; 0x801174 <__flp>
    8d60:	b0 91 75 11 	lds	r27, 0x1175	; 0x801175 <__flp+0x1>
    8d64:	ed 01       	movw	r28, r26
	/*
	 * Now, find the position where our new entry belongs onto the
	 * freelist.  Try to aggregate the chunk with adjacent chunks
	 * if possible.
	 */
	for (fp1 = __flp, fp2 = 0;
    8d66:	30 e0       	ldi	r19, 0x00	; 0
    8d68:	20 e0       	ldi	r18, 0x00	; 0
	/*
	 * Trivial case first: if there's no freelist yet, our entry
	 * will be the only one on it.  If this is the last entry, we
	 * can reduce __brkval instead.
	 */
	if (__flp == 0) {
    8d6a:	10 97       	sbiw	r26, 0x00	; 0
    8d6c:	a1 f4       	brne	.+40     	; 0x8d96 <free+0x4a>
		if ((char *)p + fpnew->sz == __brkval)
    8d6e:	20 81       	ld	r18, Z
    8d70:	31 81       	ldd	r19, Z+1	; 0x01
    8d72:	82 0f       	add	r24, r18
    8d74:	93 1f       	adc	r25, r19
    8d76:	20 91 e7 10 	lds	r18, 0x10E7	; 0x8010e7 <__brkval>
    8d7a:	30 91 e8 10 	lds	r19, 0x10E8	; 0x8010e8 <__brkval+0x1>
    8d7e:	28 17       	cp	r18, r24
    8d80:	39 07       	cpc	r19, r25
    8d82:	09 f0       	breq	.+2      	; 0x8d86 <free+0x3a>
    8d84:	61 c0       	rjmp	.+194    	; 0x8e48 <free+0xfc>
			__brkval = cpnew;
    8d86:	f0 93 e8 10 	sts	0x10E8, r31	; 0x8010e8 <__brkval+0x1>
    8d8a:	e0 93 e7 10 	sts	0x10E7, r30	; 0x8010e7 <__brkval>
			__flp = NULL;
		else
			fp2->nx = NULL;
		__brkval = cp2 - sizeof(size_t);
	}
}
    8d8e:	df 91       	pop	r29
    8d90:	cf 91       	pop	r28
    8d92:	08 95       	ret
    8d94:	ea 01       	movw	r28, r20
	 * if possible.
	 */
	for (fp1 = __flp, fp2 = 0;
	     fp1;
	     fp2 = fp1, fp1 = fp1->nx) {
		if (fp1 < fpnew)
    8d96:	ce 17       	cp	r28, r30
    8d98:	df 07       	cpc	r29, r31
    8d9a:	e8 f5       	brcc	.+122    	; 0x8e16 <free+0xca>
	 * freelist.  Try to aggregate the chunk with adjacent chunks
	 * if possible.
	 */
	for (fp1 = __flp, fp2 = 0;
	     fp1;
	     fp2 = fp1, fp1 = fp1->nx) {
    8d9c:	4a 81       	ldd	r20, Y+2	; 0x02
    8d9e:	5b 81       	ldd	r21, Y+3	; 0x03
    8da0:	9e 01       	movw	r18, r28
	/*
	 * Now, find the position where our new entry belongs onto the
	 * freelist.  Try to aggregate the chunk with adjacent chunks
	 * if possible.
	 */
	for (fp1 = __flp, fp2 = 0;
    8da2:	41 15       	cp	r20, r1
    8da4:	51 05       	cpc	r21, r1
    8da6:	b1 f7       	brne	.-20     	; 0x8d94 <free+0x48>
	 * Note that we get here either if we hit the "break" above,
	 * or if we fell off the end of the loop.  The latter means
	 * we've got a new topmost chunk.  Either way, try aggregating
	 * with the lower chunk if possible.
	 */
	fp2->nx = fpnew;
    8da8:	e9 01       	movw	r28, r18
    8daa:	fb 83       	std	Y+3, r31	; 0x03
    8dac:	ea 83       	std	Y+2, r30	; 0x02
	cp2 = (char *)&(fp2->nx);
	if (cp2 + fp2->sz == cpnew) {
    8dae:	49 91       	ld	r20, Y+
    8db0:	59 91       	ld	r21, Y+
    8db2:	c4 0f       	add	r28, r20
    8db4:	d5 1f       	adc	r29, r21
    8db6:	ec 17       	cp	r30, r28
    8db8:	fd 07       	cpc	r31, r29
    8dba:	61 f4       	brne	.+24     	; 0x8dd4 <free+0x88>
		/* lower junk adjacent, merge */
		fp2->sz += fpnew->sz + sizeof(size_t);
    8dbc:	80 81       	ld	r24, Z
    8dbe:	91 81       	ldd	r25, Z+1	; 0x01
    8dc0:	02 96       	adiw	r24, 0x02	; 2
    8dc2:	84 0f       	add	r24, r20
    8dc4:	95 1f       	adc	r25, r21
    8dc6:	e9 01       	movw	r28, r18
    8dc8:	99 83       	std	Y+1, r25	; 0x01
    8dca:	88 83       	st	Y, r24
		fp2->nx = fpnew->nx;
    8dcc:	82 81       	ldd	r24, Z+2	; 0x02
    8dce:	93 81       	ldd	r25, Z+3	; 0x03
    8dd0:	9b 83       	std	Y+3, r25	; 0x03
    8dd2:	8a 83       	std	Y+2, r24	; 0x02
	}
	/*
	 * If there's a new topmost chunk, lower __brkval instead.
	 */
	for (fp1 = __flp, fp2 = 0;
    8dd4:	f0 e0       	ldi	r31, 0x00	; 0
    8dd6:	e0 e0       	ldi	r30, 0x00	; 0
	     fp1->nx != 0;
    8dd8:	12 96       	adiw	r26, 0x02	; 2
    8dda:	8d 91       	ld	r24, X+
    8ddc:	9c 91       	ld	r25, X
    8dde:	13 97       	sbiw	r26, 0x03	; 3
		fp2->nx = fpnew->nx;
	}
	/*
	 * If there's a new topmost chunk, lower __brkval instead.
	 */
	for (fp1 = __flp, fp2 = 0;
    8de0:	00 97       	sbiw	r24, 0x00	; 0
    8de2:	b9 f5       	brne	.+110    	; 0x8e52 <free+0x106>
	     fp1->nx != 0;
	     fp2 = fp1, fp1 = fp1->nx)
		/* advance to entry just before end of list */;
	cp2 = (char *)&(fp1->nx);
	if (cp2 + fp1->sz == __brkval) {
    8de4:	2d 91       	ld	r18, X+
    8de6:	3c 91       	ld	r19, X
    8de8:	11 97       	sbiw	r26, 0x01	; 1
    8dea:	cd 01       	movw	r24, r26
    8dec:	02 96       	adiw	r24, 0x02	; 2
    8dee:	82 0f       	add	r24, r18
    8df0:	93 1f       	adc	r25, r19
    8df2:	20 91 e7 10 	lds	r18, 0x10E7	; 0x8010e7 <__brkval>
    8df6:	30 91 e8 10 	lds	r19, 0x10E8	; 0x8010e8 <__brkval+0x1>
    8dfa:	28 17       	cp	r18, r24
    8dfc:	39 07       	cpc	r19, r25
    8dfe:	39 f6       	brne	.-114    	; 0x8d8e <free+0x42>
		if (fp2 == NULL)
    8e00:	30 97       	sbiw	r30, 0x00	; 0
    8e02:	51 f5       	brne	.+84     	; 0x8e58 <free+0x10c>
			/* Freelist is empty now. */
			__flp = NULL;
    8e04:	10 92 75 11 	sts	0x1175, r1	; 0x801175 <__flp+0x1>
    8e08:	10 92 74 11 	sts	0x1174, r1	; 0x801174 <__flp>
		else
			fp2->nx = NULL;
		__brkval = cp2 - sizeof(size_t);
    8e0c:	b0 93 e8 10 	sts	0x10E8, r27	; 0x8010e8 <__brkval+0x1>
    8e10:	a0 93 e7 10 	sts	0x10E7, r26	; 0x8010e7 <__brkval>
    8e14:	bc cf       	rjmp	.-136    	; 0x8d8e <free+0x42>
	     fp1;
	     fp2 = fp1, fp1 = fp1->nx) {
		if (fp1 < fpnew)
			continue;
		cp1 = (char *)fp1;
		fpnew->nx = fp1;
    8e16:	d3 83       	std	Z+3, r29	; 0x03
    8e18:	c2 83       	std	Z+2, r28	; 0x02
		if ((char *)&(fpnew->nx) + fpnew->sz == cp1) {
    8e1a:	40 81       	ld	r20, Z
    8e1c:	51 81       	ldd	r21, Z+1	; 0x01
    8e1e:	84 0f       	add	r24, r20
    8e20:	95 1f       	adc	r25, r21
    8e22:	c8 17       	cp	r28, r24
    8e24:	d9 07       	cpc	r29, r25
    8e26:	61 f4       	brne	.+24     	; 0x8e40 <free+0xf4>
			/* upper chunk adjacent, assimilate it */
			fpnew->sz += fp1->sz + sizeof(size_t);
    8e28:	4e 5f       	subi	r20, 0xFE	; 254
    8e2a:	5f 4f       	sbci	r21, 0xFF	; 255
    8e2c:	88 81       	ld	r24, Y
    8e2e:	99 81       	ldd	r25, Y+1	; 0x01
    8e30:	48 0f       	add	r20, r24
    8e32:	59 1f       	adc	r21, r25
    8e34:	51 83       	std	Z+1, r21	; 0x01
    8e36:	40 83       	st	Z, r20
			fpnew->nx = fp1->nx;
    8e38:	8a 81       	ldd	r24, Y+2	; 0x02
    8e3a:	9b 81       	ldd	r25, Y+3	; 0x03
    8e3c:	93 83       	std	Z+3, r25	; 0x03
    8e3e:	82 83       	std	Z+2, r24	; 0x02
		}
		if (fp2 == 0) {
    8e40:	21 15       	cp	r18, r1
    8e42:	31 05       	cpc	r19, r1
    8e44:	09 f0       	breq	.+2      	; 0x8e48 <free+0xfc>
    8e46:	b0 cf       	rjmp	.-160    	; 0x8da8 <free+0x5c>
			/* new head of freelist */
			__flp = fpnew;
    8e48:	f0 93 75 11 	sts	0x1175, r31	; 0x801175 <__flp+0x1>
    8e4c:	e0 93 74 11 	sts	0x1174, r30	; 0x801174 <__flp>
			return;
    8e50:	9e cf       	rjmp	.-196    	; 0x8d8e <free+0x42>
    8e52:	fd 01       	movw	r30, r26
    8e54:	dc 01       	movw	r26, r24
    8e56:	c0 cf       	rjmp	.-128    	; 0x8dd8 <free+0x8c>
	if (cp2 + fp1->sz == __brkval) {
		if (fp2 == NULL)
			/* Freelist is empty now. */
			__flp = NULL;
		else
			fp2->nx = NULL;
    8e58:	13 82       	std	Z+3, r1	; 0x03
    8e5a:	12 82       	std	Z+2, r1	; 0x02
    8e5c:	d7 cf       	rjmp	.-82     	; 0x8e0c <free+0xc0>

00008e5e <realloc>:



void *
realloc(void *ptr, size_t len)
{
    8e5e:	4f 92       	push	r4
    8e60:	5f 92       	push	r5
    8e62:	6f 92       	push	r6
    8e64:	7f 92       	push	r7
    8e66:	8f 92       	push	r8
    8e68:	9f 92       	push	r9
    8e6a:	af 92       	push	r10
    8e6c:	bf 92       	push	r11
    8e6e:	cf 92       	push	r12
    8e70:	df 92       	push	r13
    8e72:	ef 92       	push	r14
    8e74:	ff 92       	push	r15
    8e76:	0f 93       	push	r16
    8e78:	1f 93       	push	r17
    8e7a:	cf 93       	push	r28
    8e7c:	df 93       	push	r29
    8e7e:	8c 01       	movw	r16, r24
	char *cp, *cp1;
	void *memp;
	size_t s, incr;

	/* Trivial case, required by C standard. */
	if (ptr == 0)
    8e80:	00 97       	sbiw	r24, 0x00	; 0
    8e82:	91 f4       	brne	.+36     	; 0x8ea8 <realloc+0x4a>
		return malloc(len);
    8e84:	cb 01       	movw	r24, r22
	if ((memp = malloc(len)) == 0)
		return 0;
	memcpy(memp, ptr, fp1->sz);
	free(ptr);
	return memp;
}
    8e86:	df 91       	pop	r29
    8e88:	cf 91       	pop	r28
    8e8a:	1f 91       	pop	r17
    8e8c:	0f 91       	pop	r16
    8e8e:	ff 90       	pop	r15
    8e90:	ef 90       	pop	r14
    8e92:	df 90       	pop	r13
    8e94:	cf 90       	pop	r12
    8e96:	bf 90       	pop	r11
    8e98:	af 90       	pop	r10
    8e9a:	9f 90       	pop	r9
    8e9c:	8f 90       	pop	r8
    8e9e:	7f 90       	pop	r7
    8ea0:	6f 90       	pop	r6
    8ea2:	5f 90       	pop	r5
    8ea4:	4f 90       	pop	r4
	void *memp;
	size_t s, incr;

	/* Trivial case, required by C standard. */
	if (ptr == 0)
		return malloc(len);
    8ea6:	b2 ce       	rjmp	.-668    	; 0x8c0c <malloc>

	cp1 = (char *)ptr;
	cp1 -= sizeof(size_t);
	fp1 = (struct __freelist *)cp1;

	cp = (char *)ptr + len; /* new next pointer */
    8ea8:	fc 01       	movw	r30, r24
    8eaa:	e6 0f       	add	r30, r22
    8eac:	f7 1f       	adc	r31, r23
	/* Trivial case, required by C standard. */
	if (ptr == 0)
		return malloc(len);

	cp1 = (char *)ptr;
	cp1 -= sizeof(size_t);
    8eae:	9c 01       	movw	r18, r24
    8eb0:	22 50       	subi	r18, 0x02	; 2
    8eb2:	31 09       	sbc	r19, r1
	fp1 = (struct __freelist *)cp1;

	cp = (char *)ptr + len; /* new next pointer */
	if (cp < cp1)
    8eb4:	e2 17       	cp	r30, r18
    8eb6:	f3 07       	cpc	r31, r19
    8eb8:	08 f4       	brcc	.+2      	; 0x8ebc <realloc+0x5e>
    8eba:	a5 c0       	rjmp	.+330    	; 0x9006 <realloc+0x1a8>
	 * we split off a chunk for the released portion, and call
	 * free() on it.  Therefore, we can only shrink if the new
	 * size is at least sizeof(struct __freelist) smaller than the
	 * previous size.
	 */
	if (len <= fp1->sz) {
    8ebc:	d9 01       	movw	r26, r18
    8ebe:	cd 91       	ld	r28, X+
    8ec0:	dc 91       	ld	r29, X
    8ec2:	11 97       	sbiw	r26, 0x01	; 1
    8ec4:	c6 17       	cp	r28, r22
    8ec6:	d7 07       	cpc	r29, r23
    8ec8:	18 f1       	brcs	.+70     	; 0x8f10 <realloc+0xb2>
		/* The first test catches a possible unsigned int
		 * rollover condition. */
		if (fp1->sz <= sizeof(struct __freelist) ||
    8eca:	c5 30       	cpi	r28, 0x05	; 5
    8ecc:	d1 05       	cpc	r29, r1
    8ece:	70 f0       	brcs	.+28     	; 0x8eec <realloc+0x8e>
		    len > fp1->sz - sizeof(struct __freelist))
    8ed0:	ce 01       	movw	r24, r28
    8ed2:	04 97       	sbiw	r24, 0x04	; 4
	 * previous size.
	 */
	if (len <= fp1->sz) {
		/* The first test catches a possible unsigned int
		 * rollover condition. */
		if (fp1->sz <= sizeof(struct __freelist) ||
    8ed4:	86 17       	cp	r24, r22
    8ed6:	97 07       	cpc	r25, r23
    8ed8:	48 f0       	brcs	.+18     	; 0x8eec <realloc+0x8e>
		    len > fp1->sz - sizeof(struct __freelist))
			return ptr;
		fp2 = (struct __freelist *)cp;
		fp2->sz = fp1->sz - len - sizeof(size_t);
    8eda:	c6 1b       	sub	r28, r22
    8edc:	d7 0b       	sbc	r29, r23
    8ede:	22 97       	sbiw	r28, 0x02	; 2
    8ee0:	c1 93       	st	Z+, r28
    8ee2:	d1 93       	st	Z+, r29
		fp1->sz = len;
    8ee4:	6d 93       	st	X+, r22
    8ee6:	7c 93       	st	X, r23
		free(&(fp2->nx));
    8ee8:	cf 01       	movw	r24, r30
    8eea:	30 df       	rcall	.-416    	; 0x8d4c <free>
	if ((memp = malloc(len)) == 0)
		return 0;
	memcpy(memp, ptr, fp1->sz);
	free(ptr);
	return memp;
}
    8eec:	c8 01       	movw	r24, r16
    8eee:	df 91       	pop	r29
    8ef0:	cf 91       	pop	r28
    8ef2:	1f 91       	pop	r17
    8ef4:	0f 91       	pop	r16
    8ef6:	ff 90       	pop	r15
    8ef8:	ef 90       	pop	r14
    8efa:	df 90       	pop	r13
    8efc:	cf 90       	pop	r12
    8efe:	bf 90       	pop	r11
    8f00:	af 90       	pop	r10
    8f02:	9f 90       	pop	r9
    8f04:	8f 90       	pop	r8
    8f06:	7f 90       	pop	r7
    8f08:	6f 90       	pop	r6
    8f0a:	5f 90       	pop	r5
    8f0c:	4f 90       	pop	r4
    8f0e:	08 95       	ret

	/*
	 * If we get here, we are growing.  First, see whether there
	 * is space in the free list on top of our current chunk.
	 */
	incr = len - fp1->sz;
    8f10:	5b 01       	movw	r10, r22
    8f12:	ac 1a       	sub	r10, r28
    8f14:	bd 0a       	sbc	r11, r29
	cp = (char *)ptr + fp1->sz;
    8f16:	4c 01       	movw	r8, r24
    8f18:	8c 0e       	add	r8, r28
    8f1a:	9d 1e       	adc	r9, r29
	fp2 = (struct __freelist *)cp;
	for (s = 0, ofp3 = 0, fp3 = __flp;
    8f1c:	a0 91 74 11 	lds	r26, 0x1174	; 0x801174 <__flp>
    8f20:	b0 91 75 11 	lds	r27, 0x1175	; 0x801175 <__flp+0x1>
    8f24:	51 2c       	mov	r5, r1
    8f26:	41 2c       	mov	r4, r1
    8f28:	f1 2c       	mov	r15, r1
    8f2a:	e1 2c       	mov	r14, r1
    8f2c:	10 97       	sbiw	r26, 0x00	; 0
    8f2e:	01 f5       	brne	.+64     	; 0x8f70 <realloc+0x112>
	 * large enough chunk on the freelist that could be re-used
	 * (by a call to malloc() below), quickly extend the
	 * allocation area if possible, without need to copy the old
	 * data.
	 */
	if (__brkval == (char *)ptr + fp1->sz && len > s) {
    8f30:	80 91 e7 10 	lds	r24, 0x10E7	; 0x8010e7 <__brkval>
    8f34:	90 91 e8 10 	lds	r25, 0x10E8	; 0x8010e8 <__brkval+0x1>
    8f38:	88 15       	cp	r24, r8
    8f3a:	99 05       	cpc	r25, r9
    8f3c:	09 f0       	breq	.+2      	; 0x8f40 <realloc+0xe2>
    8f3e:	56 c0       	rjmp	.+172    	; 0x8fec <realloc+0x18e>
    8f40:	46 16       	cp	r4, r22
    8f42:	57 06       	cpc	r5, r23
    8f44:	08 f0       	brcs	.+2      	; 0x8f48 <realloc+0xea>
    8f46:	52 c0       	rjmp	.+164    	; 0x8fec <realloc+0x18e>
		cp = (char *)ptr + len;
		cp1 = STACK_POINTER() - __malloc_margin;
    8f48:	8d b7       	in	r24, 0x3d	; 61
    8f4a:	9e b7       	in	r25, 0x3e	; 62
    8f4c:	40 91 0e 01 	lds	r20, 0x010E	; 0x80010e <__malloc_margin>
    8f50:	50 91 0f 01 	lds	r21, 0x010F	; 0x80010f <__malloc_margin+0x1>
    8f54:	84 1b       	sub	r24, r20
    8f56:	95 0b       	sbc	r25, r21
		if (cp < cp1) {
    8f58:	e8 17       	cp	r30, r24
    8f5a:	f9 07       	cpc	r31, r25
    8f5c:	08 f0       	brcs	.+2      	; 0x8f60 <realloc+0x102>
    8f5e:	53 c0       	rjmp	.+166    	; 0x9006 <realloc+0x1a8>
			__brkval = cp;
    8f60:	f0 93 e8 10 	sts	0x10E8, r31	; 0x8010e8 <__brkval+0x1>
    8f64:	e0 93 e7 10 	sts	0x10E7, r30	; 0x8010e7 <__brkval>
			//__brkval_maximum = cp;
			fp1->sz = len;
    8f68:	f9 01       	movw	r30, r18
    8f6a:	71 83       	std	Z+1, r23	; 0x01
    8f6c:	60 83       	st	Z, r22
			return ptr;
    8f6e:	be cf       	rjmp	.-132    	; 0x8eec <realloc+0x8e>
    8f70:	8d 91       	ld	r24, X+
    8f72:	9c 91       	ld	r25, X
    8f74:	11 97       	sbiw	r26, 0x01	; 1
    8f76:	12 96       	adiw	r26, 0x02	; 2
    8f78:	6c 90       	ld	r6, X
    8f7a:	12 97       	sbiw	r26, 0x02	; 2
    8f7c:	13 96       	adiw	r26, 0x03	; 3
    8f7e:	7c 90       	ld	r7, X
    8f80:	13 97       	sbiw	r26, 0x03	; 3
	cp = (char *)ptr + fp1->sz;
	fp2 = (struct __freelist *)cp;
	for (s = 0, ofp3 = 0, fp3 = __flp;
	     fp3;
	     ofp3 = fp3, fp3 = fp3->nx) {
		if (fp3 == fp2 && fp3->sz + sizeof(size_t) >= incr) {
    8f82:	a8 15       	cp	r26, r8
    8f84:	b9 05       	cpc	r27, r9
    8f86:	59 f5       	brne	.+86     	; 0x8fde <realloc+0x180>
    8f88:	6c 01       	movw	r12, r24
    8f8a:	42 e0       	ldi	r20, 0x02	; 2
    8f8c:	c4 0e       	add	r12, r20
    8f8e:	d1 1c       	adc	r13, r1
    8f90:	ca 14       	cp	r12, r10
    8f92:	db 04       	cpc	r13, r11
    8f94:	20 f1       	brcs	.+72     	; 0x8fde <realloc+0x180>
			/* found something that fits */
			if (fp3->sz + sizeof(size_t) - incr > sizeof(struct __freelist)) {
    8f96:	ac 01       	movw	r20, r24
    8f98:	4a 19       	sub	r20, r10
    8f9a:	5b 09       	sbc	r21, r11
    8f9c:	da 01       	movw	r26, r20
    8f9e:	12 96       	adiw	r26, 0x02	; 2
    8fa0:	15 97       	sbiw	r26, 0x05	; 5
    8fa2:	80 f0       	brcs	.+32     	; 0x8fc4 <realloc+0x166>
				/* split off a new freelist entry */
				cp = (char *)ptr + len;
				fp2 = (struct __freelist *)cp;
				fp2->nx = fp3->nx;
    8fa4:	62 82       	std	Z+2, r6	; 0x02
    8fa6:	73 82       	std	Z+3, r7	; 0x03
				fp2->sz = fp3->sz - incr;
    8fa8:	51 83       	std	Z+1, r21	; 0x01
    8faa:	40 83       	st	Z, r20
				fp1->sz = len;
    8fac:	d9 01       	movw	r26, r18
    8fae:	6d 93       	st	X+, r22
    8fb0:	7c 93       	st	X, r23
			} else {
				/* it just fits, so use it entirely */
				fp1->sz += fp3->sz + sizeof(size_t);
				fp2 = fp3->nx;
			}
			if (ofp3)
    8fb2:	e1 14       	cp	r14, r1
    8fb4:	f1 04       	cpc	r15, r1
    8fb6:	71 f0       	breq	.+28     	; 0x8fd4 <realloc+0x176>
				ofp3->nx = fp2;
    8fb8:	d7 01       	movw	r26, r14
    8fba:	13 96       	adiw	r26, 0x03	; 3
    8fbc:	fc 93       	st	X, r31
    8fbe:	ee 93       	st	-X, r30
    8fc0:	12 97       	sbiw	r26, 0x02	; 2
    8fc2:	94 cf       	rjmp	.-216    	; 0x8eec <realloc+0x8e>
				fp2->nx = fp3->nx;
				fp2->sz = fp3->sz - incr;
				fp1->sz = len;
			} else {
				/* it just fits, so use it entirely */
				fp1->sz += fp3->sz + sizeof(size_t);
    8fc4:	22 96       	adiw	r28, 0x02	; 2
    8fc6:	8c 0f       	add	r24, r28
    8fc8:	9d 1f       	adc	r25, r29
    8fca:	f9 01       	movw	r30, r18
    8fcc:	91 83       	std	Z+1, r25	; 0x01
    8fce:	80 83       	st	Z, r24
				fp2 = fp3->nx;
    8fd0:	f3 01       	movw	r30, r6
    8fd2:	ef cf       	rjmp	.-34     	; 0x8fb2 <realloc+0x154>
			}
			if (ofp3)
				ofp3->nx = fp2;
			else
				__flp = fp2;
    8fd4:	f0 93 75 11 	sts	0x1175, r31	; 0x801175 <__flp+0x1>
    8fd8:	e0 93 74 11 	sts	0x1174, r30	; 0x801174 <__flp>
    8fdc:	87 cf       	rjmp	.-242    	; 0x8eec <realloc+0x8e>
    8fde:	48 16       	cp	r4, r24
    8fe0:	59 06       	cpc	r5, r25
    8fe2:	08 f4       	brcc	.+2      	; 0x8fe6 <realloc+0x188>
    8fe4:	2c 01       	movw	r4, r24
	incr = len - fp1->sz;
	cp = (char *)ptr + fp1->sz;
	fp2 = (struct __freelist *)cp;
	for (s = 0, ofp3 = 0, fp3 = __flp;
	     fp3;
	     ofp3 = fp3, fp3 = fp3->nx) {
    8fe6:	7d 01       	movw	r14, r26
    8fe8:	d3 01       	movw	r26, r6

	/*
	 * Call malloc() for a new chunk, then copy over the data, and
	 * release the old region.
	 */
	if ((memp = malloc(len)) == 0)
    8fea:	a0 cf       	rjmp	.-192    	; 0x8f2c <realloc+0xce>
    8fec:	cb 01       	movw	r24, r22
    8fee:	0e de       	rcall	.-996    	; 0x8c0c <malloc>
    8ff0:	7c 01       	movw	r14, r24
    8ff2:	00 97       	sbiw	r24, 0x00	; 0
    8ff4:	41 f0       	breq	.+16     	; 0x9006 <realloc+0x1a8>
		return 0;
	memcpy(memp, ptr, fp1->sz);
    8ff6:	ae 01       	movw	r20, r28
    8ff8:	b8 01       	movw	r22, r16
    8ffa:	0e 94 2e 54 	call	0xa85c	; 0xa85c <memcpy>
	free(ptr);
    8ffe:	c8 01       	movw	r24, r16
    9000:	a5 de       	rcall	.-694    	; 0x8d4c <free>
	return memp;
    9002:	87 01       	movw	r16, r14
    9004:	73 cf       	rjmp	.-282    	; 0x8eec <realloc+0x8e>
	/*
	 * Call malloc() for a new chunk, then copy over the data, and
	 * release the old region.
	 */
	if ((memp = malloc(len)) == 0)
		return 0;
    9006:	10 e0       	ldi	r17, 0x00	; 0
    9008:	00 e0       	ldi	r16, 0x00	; 0
    900a:	70 cf       	rjmp	.-288    	; 0x8eec <realloc+0x8e>

0000900c <disable_peripherals>:
uint8_t _shiftIn(uint8_t dataPin, uint8_t clockPin, uint8_t bitOrder)
{
	if (bitOrder == LSBFIRST) {
		return shiftIn_lsbFirst(dataPin, clockPin);
	} else {
		return shiftIn_msbFirst(dataPin, clockPin);
    900c:	1d ba       	out	0x1d, r1	; 29
    900e:	10 92 68 00 	sts	0x0068, r1	; 0x800068 <__TEXT_REGION_LENGTH__+0x7e0068>
    9012:	1c bc       	out	0x2c, r1	; 44
    9014:	10 be       	out	0x30, r1	; 48
    9016:	1f ba       	out	0x1f, r1	; 31
    9018:	10 92 7a 00 	sts	0x007A, r1	; 0x80007a <__TEXT_REGION_LENGTH__+0x7e007a>
    901c:	10 92 6e 00 	sts	0x006E, r1	; 0x80006e <__TEXT_REGION_LENGTH__+0x7e006e>
    9020:	10 92 6f 00 	sts	0x006F, r1	; 0x80006f <__TEXT_REGION_LENGTH__+0x7e006f>
    9024:	10 92 70 00 	sts	0x0070, r1	; 0x800070 <__TEXT_REGION_LENGTH__+0x7e0070>
    9028:	10 92 71 00 	sts	0x0071, r1	; 0x800071 <__TEXT_REGION_LENGTH__+0x7e0071>
    902c:	10 92 c9 00 	sts	0x00C9, r1	; 0x8000c9 <__TEXT_REGION_LENGTH__+0x7e00c9>
    9030:	10 92 bc 00 	sts	0x00BC, r1	; 0x8000bc <__TEXT_REGION_LENGTH__+0x7e00bc>
    9034:	11 b8       	out	0x01, r1	; 1
    9036:	14 b8       	out	0x04, r1	; 4
    9038:	17 b8       	out	0x07, r1	; 7
    903a:	1a b8       	out	0x0a, r1	; 10
    903c:	1d b8       	out	0x0d, r1	; 13
    903e:	10 ba       	out	0x10, r1	; 16
    9040:	12 b8       	out	0x02, r1	; 2
    9042:	15 b8       	out	0x05, r1	; 5
    9044:	18 b8       	out	0x08, r1	; 8
    9046:	1b b8       	out	0x0b, r1	; 11
    9048:	1e b8       	out	0x0e, r1	; 14
    904a:	11 ba       	out	0x11, r1	; 17
    904c:	08 95       	ret

0000904e <_init_Teensyduino_internal_>:
    904e:	f8 94       	cli
    9050:	e1 e6       	ldi	r30, 0x61	; 97
    9052:	f0 e0       	ldi	r31, 0x00	; 0
    9054:	20 e8       	ldi	r18, 0x80	; 128
    9056:	20 83       	st	Z, r18
    9058:	10 82       	st	Z, r1
    905a:	83 e0       	ldi	r24, 0x03	; 3
    905c:	84 bd       	out	0x24, r24	; 36
    905e:	85 bd       	out	0x25, r24	; 37
    9060:	ee e6       	ldi	r30, 0x6E	; 110
    9062:	f0 e0       	ldi	r31, 0x00	; 0
    9064:	80 81       	ld	r24, Z
    9066:	81 60       	ori	r24, 0x01	; 1
    9068:	80 83       	st	Z, r24
    906a:	91 e0       	ldi	r25, 0x01	; 1
    906c:	90 93 80 00 	sts	0x0080, r25	; 0x800080 <__TEXT_REGION_LENGTH__+0x7e0080>
    9070:	82 e0       	ldi	r24, 0x02	; 2
    9072:	80 93 81 00 	sts	0x0081, r24	; 0x800081 <__TEXT_REGION_LENGTH__+0x7e0081>
    9076:	90 93 b0 00 	sts	0x00B0, r25	; 0x8000b0 <__TEXT_REGION_LENGTH__+0x7e00b0>
    907a:	80 93 b1 00 	sts	0x00B1, r24	; 0x8000b1 <__TEXT_REGION_LENGTH__+0x7e00b1>
    907e:	90 93 90 00 	sts	0x0090, r25	; 0x800090 <__TEXT_REGION_LENGTH__+0x7e0090>
    9082:	80 93 91 00 	sts	0x0091, r24	; 0x800091 <__TEXT_REGION_LENGTH__+0x7e0091>
    9086:	86 e8       	ldi	r24, 0x86	; 134
    9088:	80 93 7a 00 	sts	0x007A, r24	; 0x80007a <__TEXT_REGION_LENGTH__+0x7e007a>
    908c:	20 93 7b 00 	sts	0x007B, r18	; 0x80007b <__TEXT_REGION_LENGTH__+0x7e007b>
    9090:	10 92 7e 00 	sts	0x007E, r1	; 0x80007e <__TEXT_REGION_LENGTH__+0x7e007e>
    9094:	d9 d1       	rcall	.+946    	; 0x9448 <usb_init>
    9096:	78 94       	sei
    9098:	08 95       	ret

0000909a <analogRead>:
    909a:	9a ed       	ldi	r25, 0xDA	; 218
    909c:	98 0f       	add	r25, r24
    909e:	98 30       	cpi	r25, 0x08	; 8
    90a0:	10 f1       	brcs	.+68     	; 0x90e6 <analogRead+0x4c>
    90a2:	88 30       	cpi	r24, 0x08	; 8
    90a4:	60 f4       	brcc	.+24     	; 0x90be <analogRead+0x24>
    90a6:	90 91 7e 00 	lds	r25, 0x007E	; 0x80007e <__TEXT_REGION_LENGTH__+0x7e007e>
    90aa:	21 e0       	ldi	r18, 0x01	; 1
    90ac:	30 e0       	ldi	r19, 0x00	; 0
    90ae:	08 2e       	mov	r0, r24
    90b0:	01 c0       	rjmp	.+2      	; 0x90b4 <analogRead+0x1a>
    90b2:	22 0f       	add	r18, r18
    90b4:	0a 94       	dec	r0
    90b6:	ea f7       	brpl	.-6      	; 0x90b2 <analogRead+0x18>
    90b8:	92 2b       	or	r25, r18
    90ba:	90 93 7e 00 	sts	0x007E, r25	; 0x80007e <__TEXT_REGION_LENGTH__+0x7e007e>
    90be:	8f 71       	andi	r24, 0x1F	; 31
    90c0:	90 91 10 01 	lds	r25, 0x0110	; 0x800110 <w_analog_reference>
    90c4:	89 2b       	or	r24, r25
    90c6:	80 93 7c 00 	sts	0x007C, r24	; 0x80007c <__TEXT_REGION_LENGTH__+0x7e007c>
    90ca:	80 91 7a 00 	lds	r24, 0x007A	; 0x80007a <__TEXT_REGION_LENGTH__+0x7e007a>
    90ce:	80 64       	ori	r24, 0x40	; 64
    90d0:	80 93 7a 00 	sts	0x007A, r24	; 0x80007a <__TEXT_REGION_LENGTH__+0x7e007a>
    90d4:	80 91 7a 00 	lds	r24, 0x007A	; 0x80007a <__TEXT_REGION_LENGTH__+0x7e007a>
    90d8:	86 fd       	sbrc	r24, 6
    90da:	fc cf       	rjmp	.-8      	; 0x90d4 <analogRead+0x3a>
    90dc:	80 91 78 00 	lds	r24, 0x0078	; 0x800078 <__TEXT_REGION_LENGTH__+0x7e0078>
    90e0:	90 91 79 00 	lds	r25, 0x0079	; 0x800079 <__TEXT_REGION_LENGTH__+0x7e0079>
    90e4:	08 95       	ret
    90e6:	89 2f       	mov	r24, r25
    90e8:	de cf       	rjmp	.-68     	; 0x90a6 <analogRead+0xc>

000090ea <_pinMode_output>:
    90ea:	8e 32       	cpi	r24, 0x2E	; 46
    90ec:	70 f4       	brcc	.+28     	; 0x910a <_pinMode_output+0x20>
    90ee:	e8 eb       	ldi	r30, 0xB8	; 184
    90f0:	fc e0       	ldi	r31, 0x0C	; 12
    90f2:	88 0f       	add	r24, r24
    90f4:	e8 0f       	add	r30, r24
    90f6:	f1 1d       	adc	r31, r1
    90f8:	25 91       	lpm	r18, Z+
    90fa:	e4 91       	lpm	r30, Z
    90fc:	f0 e0       	ldi	r31, 0x00	; 0
    90fe:	9f b7       	in	r25, 0x3f	; 63
    9100:	f8 94       	cli
    9102:	81 81       	ldd	r24, Z+1	; 0x01
    9104:	82 2b       	or	r24, r18
    9106:	81 83       	std	Z+1, r24	; 0x01
    9108:	9f bf       	out	0x3f, r25	; 63
    910a:	08 95       	ret

0000910c <_digitalWrite_HIGH>:
    910c:	ee 32       	cpi	r30, 0x2E	; 46
    910e:	50 f4       	brcc	.+20     	; 0x9124 <_digitalWrite_bailout>
    9110:	ee 0f       	add	r30, r30
    9112:	ed 56       	subi	r30, 0x6D	; 109
    9114:	f7 4b       	sbci	r31, 0xB7	; 183
    9116:	09 94       	ijmp

00009118 <_digitalWrite_LOW>:
    9118:	ee 32       	cpi	r30, 0x2E	; 46
    911a:	20 f4       	brcc	.+8      	; 0x9124 <_digitalWrite_bailout>
    911c:	ee 0f       	add	r30, r30
    911e:	e1 51       	subi	r30, 0x11	; 17
    9120:	f7 4b       	sbci	r31, 0xB7	; 183
    9122:	09 94       	ijmp

00009124 <_digitalWrite_bailout>:
    9124:	08 95       	ret

00009126 <_digitalWrite_HIGH_TABLE>:
    9126:	58 9a       	sbi	0x0b, 0	; 11
    9128:	b6 c0       	rjmp	.+364    	; 0x9296 <_digitalWrite_OC0B>
    912a:	59 9a       	sbi	0x0b, 1	; 11
    912c:	d0 c0       	rjmp	.+416    	; 0x92ce <_digitalWrite_OC2B>
    912e:	5a 9a       	sbi	0x0b, 2	; 11
    9130:	08 95       	ret
    9132:	5b 9a       	sbi	0x0b, 3	; 11
    9134:	08 95       	ret
    9136:	5c 9a       	sbi	0x0b, 4	; 11
    9138:	08 95       	ret
    913a:	5d 9a       	sbi	0x0b, 5	; 11
    913c:	08 95       	ret
    913e:	5e 9a       	sbi	0x0b, 6	; 11
    9140:	08 95       	ret
    9142:	5f 9a       	sbi	0x0b, 7	; 11
    9144:	08 95       	ret
    9146:	70 9a       	sbi	0x0e, 0	; 14
    9148:	08 95       	ret
    914a:	71 9a       	sbi	0x0e, 1	; 14
    914c:	08 95       	ret
    914e:	40 9a       	sbi	0x08, 0	; 8
    9150:	08 95       	ret
    9152:	41 9a       	sbi	0x08, 1	; 8
    9154:	08 95       	ret
    9156:	42 9a       	sbi	0x08, 2	; 8
    9158:	08 95       	ret
    915a:	43 9a       	sbi	0x08, 3	; 8
    915c:	08 95       	ret
    915e:	44 9a       	sbi	0x08, 4	; 8
    9160:	c8 c0       	rjmp	.+400    	; 0x92f2 <_digitalWrite_OC3C>
    9162:	45 9a       	sbi	0x08, 5	; 8
    9164:	c0 c0       	rjmp	.+384    	; 0x92e6 <_digitalWrite_OC3B>
    9166:	46 9a       	sbi	0x08, 6	; 8
    9168:	b8 c0       	rjmp	.+368    	; 0x92da <_digitalWrite_OC3A>
    916a:	47 9a       	sbi	0x08, 7	; 8
    916c:	08 95       	ret
    916e:	76 9a       	sbi	0x0e, 6	; 14
    9170:	08 95       	ret
    9172:	77 9a       	sbi	0x0e, 7	; 14
    9174:	08 95       	ret
    9176:	28 9a       	sbi	0x05, 0	; 5
    9178:	08 95       	ret
    917a:	29 9a       	sbi	0x05, 1	; 5
    917c:	08 95       	ret
    917e:	2a 9a       	sbi	0x05, 2	; 5
    9180:	08 95       	ret
    9182:	2b 9a       	sbi	0x05, 3	; 5
    9184:	08 95       	ret
    9186:	2c 9a       	sbi	0x05, 4	; 5
    9188:	9c c0       	rjmp	.+312    	; 0x92c2 <_digitalWrite_OC2A>
    918a:	2d 9a       	sbi	0x05, 5	; 5
    918c:	88 c0       	rjmp	.+272    	; 0x929e <_digitalWrite_OC1A>
    918e:	2e 9a       	sbi	0x05, 6	; 5
    9190:	8c c0       	rjmp	.+280    	; 0x92aa <_digitalWrite_OC1B>
    9192:	2f 9a       	sbi	0x05, 7	; 5
    9194:	90 c0       	rjmp	.+288    	; 0x92b6 <_digitalWrite_OC1C>
    9196:	10 9a       	sbi	0x02, 0	; 2
    9198:	08 95       	ret
    919a:	11 9a       	sbi	0x02, 1	; 2
    919c:	08 95       	ret
    919e:	12 9a       	sbi	0x02, 2	; 2
    91a0:	08 95       	ret
    91a2:	13 9a       	sbi	0x02, 3	; 2
    91a4:	08 95       	ret
    91a6:	14 9a       	sbi	0x02, 4	; 2
    91a8:	08 95       	ret
    91aa:	15 9a       	sbi	0x02, 5	; 2
    91ac:	08 95       	ret
    91ae:	16 9a       	sbi	0x02, 6	; 2
    91b0:	08 95       	ret
    91b2:	17 9a       	sbi	0x02, 7	; 2
    91b4:	08 95       	ret
    91b6:	74 9a       	sbi	0x0e, 4	; 14
    91b8:	08 95       	ret
    91ba:	75 9a       	sbi	0x0e, 5	; 14
    91bc:	08 95       	ret
    91be:	88 9a       	sbi	0x11, 0	; 17
    91c0:	08 95       	ret
    91c2:	89 9a       	sbi	0x11, 1	; 17
    91c4:	08 95       	ret
    91c6:	8a 9a       	sbi	0x11, 2	; 17
    91c8:	08 95       	ret
    91ca:	8b 9a       	sbi	0x11, 3	; 17
    91cc:	08 95       	ret
    91ce:	8c 9a       	sbi	0x11, 4	; 17
    91d0:	08 95       	ret
    91d2:	8d 9a       	sbi	0x11, 5	; 17
    91d4:	08 95       	ret
    91d6:	8e 9a       	sbi	0x11, 6	; 17
    91d8:	08 95       	ret
    91da:	8f 9a       	sbi	0x11, 7	; 17
    91dc:	08 95       	ret

000091de <_digitalWrite_LOW_TABLE>:
    91de:	58 98       	cbi	0x0b, 0	; 11
    91e0:	5a c0       	rjmp	.+180    	; 0x9296 <_digitalWrite_OC0B>
    91e2:	59 98       	cbi	0x0b, 1	; 11
    91e4:	74 c0       	rjmp	.+232    	; 0x92ce <_digitalWrite_OC2B>
    91e6:	5a 98       	cbi	0x0b, 2	; 11
    91e8:	08 95       	ret
    91ea:	5b 98       	cbi	0x0b, 3	; 11
    91ec:	08 95       	ret
    91ee:	5c 98       	cbi	0x0b, 4	; 11
    91f0:	08 95       	ret
    91f2:	5d 98       	cbi	0x0b, 5	; 11
    91f4:	08 95       	ret
    91f6:	5e 98       	cbi	0x0b, 6	; 11
    91f8:	08 95       	ret
    91fa:	5f 98       	cbi	0x0b, 7	; 11
    91fc:	08 95       	ret
    91fe:	70 98       	cbi	0x0e, 0	; 14
    9200:	08 95       	ret
    9202:	71 98       	cbi	0x0e, 1	; 14
    9204:	08 95       	ret
    9206:	40 98       	cbi	0x08, 0	; 8
    9208:	08 95       	ret
    920a:	41 98       	cbi	0x08, 1	; 8
    920c:	08 95       	ret
    920e:	42 98       	cbi	0x08, 2	; 8
    9210:	08 95       	ret
    9212:	43 98       	cbi	0x08, 3	; 8
    9214:	08 95       	ret
    9216:	44 98       	cbi	0x08, 4	; 8
    9218:	6c c0       	rjmp	.+216    	; 0x92f2 <_digitalWrite_OC3C>
    921a:	45 98       	cbi	0x08, 5	; 8
    921c:	64 c0       	rjmp	.+200    	; 0x92e6 <_digitalWrite_OC3B>
    921e:	46 98       	cbi	0x08, 6	; 8
    9220:	5c c0       	rjmp	.+184    	; 0x92da <_digitalWrite_OC3A>
    9222:	47 98       	cbi	0x08, 7	; 8
    9224:	08 95       	ret
    9226:	76 98       	cbi	0x0e, 6	; 14
    9228:	08 95       	ret
    922a:	77 98       	cbi	0x0e, 7	; 14
    922c:	08 95       	ret
    922e:	28 98       	cbi	0x05, 0	; 5
    9230:	08 95       	ret
    9232:	29 98       	cbi	0x05, 1	; 5
    9234:	08 95       	ret
    9236:	2a 98       	cbi	0x05, 2	; 5
    9238:	08 95       	ret
    923a:	2b 98       	cbi	0x05, 3	; 5
    923c:	08 95       	ret
    923e:	2c 98       	cbi	0x05, 4	; 5
    9240:	40 c0       	rjmp	.+128    	; 0x92c2 <_digitalWrite_OC2A>
    9242:	2d 98       	cbi	0x05, 5	; 5
    9244:	2c c0       	rjmp	.+88     	; 0x929e <_digitalWrite_OC1A>
    9246:	2e 98       	cbi	0x05, 6	; 5
    9248:	30 c0       	rjmp	.+96     	; 0x92aa <_digitalWrite_OC1B>
    924a:	2f 98       	cbi	0x05, 7	; 5
    924c:	34 c0       	rjmp	.+104    	; 0x92b6 <_digitalWrite_OC1C>
    924e:	10 98       	cbi	0x02, 0	; 2
    9250:	08 95       	ret
    9252:	11 98       	cbi	0x02, 1	; 2
    9254:	08 95       	ret
    9256:	12 98       	cbi	0x02, 2	; 2
    9258:	08 95       	ret
    925a:	13 98       	cbi	0x02, 3	; 2
    925c:	08 95       	ret
    925e:	14 98       	cbi	0x02, 4	; 2
    9260:	08 95       	ret
    9262:	15 98       	cbi	0x02, 5	; 2
    9264:	08 95       	ret
    9266:	16 98       	cbi	0x02, 6	; 2
    9268:	08 95       	ret
    926a:	17 98       	cbi	0x02, 7	; 2
    926c:	08 95       	ret
    926e:	74 98       	cbi	0x0e, 4	; 14
    9270:	08 95       	ret
    9272:	75 98       	cbi	0x0e, 5	; 14
    9274:	08 95       	ret
    9276:	88 98       	cbi	0x11, 0	; 17
    9278:	08 95       	ret
    927a:	89 98       	cbi	0x11, 1	; 17
    927c:	08 95       	ret
    927e:	8a 98       	cbi	0x11, 2	; 17
    9280:	08 95       	ret
    9282:	8b 98       	cbi	0x11, 3	; 17
    9284:	08 95       	ret
    9286:	8c 98       	cbi	0x11, 4	; 17
    9288:	08 95       	ret
    928a:	8d 98       	cbi	0x11, 5	; 17
    928c:	08 95       	ret
    928e:	8e 98       	cbi	0x11, 6	; 17
    9290:	08 95       	ret
    9292:	8f 98       	cbi	0x11, 7	; 17
    9294:	08 95       	ret

00009296 <_digitalWrite_OC0B>:
    9296:	e4 b5       	in	r30, 0x24	; 36
    9298:	ef 7d       	andi	r30, 0xDF	; 223
    929a:	e4 bd       	out	0x24, r30	; 36
    929c:	08 95       	ret

0000929e <_digitalWrite_OC1A>:
    929e:	e0 91 80 00 	lds	r30, 0x0080	; 0x800080 <__TEXT_REGION_LENGTH__+0x7e0080>
    92a2:	ef 77       	andi	r30, 0x7F	; 127
    92a4:	e0 93 80 00 	sts	0x0080, r30	; 0x800080 <__TEXT_REGION_LENGTH__+0x7e0080>
    92a8:	08 95       	ret

000092aa <_digitalWrite_OC1B>:
    92aa:	e0 91 80 00 	lds	r30, 0x0080	; 0x800080 <__TEXT_REGION_LENGTH__+0x7e0080>
    92ae:	ef 7d       	andi	r30, 0xDF	; 223
    92b0:	e0 93 80 00 	sts	0x0080, r30	; 0x800080 <__TEXT_REGION_LENGTH__+0x7e0080>
    92b4:	08 95       	ret

000092b6 <_digitalWrite_OC1C>:
    92b6:	e0 91 80 00 	lds	r30, 0x0080	; 0x800080 <__TEXT_REGION_LENGTH__+0x7e0080>
    92ba:	e7 7f       	andi	r30, 0xF7	; 247
    92bc:	e0 93 80 00 	sts	0x0080, r30	; 0x800080 <__TEXT_REGION_LENGTH__+0x7e0080>
    92c0:	08 95       	ret

000092c2 <_digitalWrite_OC2A>:
    92c2:	e0 91 b0 00 	lds	r30, 0x00B0	; 0x8000b0 <__TEXT_REGION_LENGTH__+0x7e00b0>
    92c6:	ef 77       	andi	r30, 0x7F	; 127
    92c8:	e0 93 b0 00 	sts	0x00B0, r30	; 0x8000b0 <__TEXT_REGION_LENGTH__+0x7e00b0>
    92cc:	08 95       	ret

000092ce <_digitalWrite_OC2B>:
    92ce:	e0 91 b0 00 	lds	r30, 0x00B0	; 0x8000b0 <__TEXT_REGION_LENGTH__+0x7e00b0>
    92d2:	ef 7d       	andi	r30, 0xDF	; 223
    92d4:	e0 93 b0 00 	sts	0x00B0, r30	; 0x8000b0 <__TEXT_REGION_LENGTH__+0x7e00b0>
    92d8:	08 95       	ret

000092da <_digitalWrite_OC3A>:
    92da:	e0 91 90 00 	lds	r30, 0x0090	; 0x800090 <__TEXT_REGION_LENGTH__+0x7e0090>
    92de:	ef 77       	andi	r30, 0x7F	; 127
    92e0:	e0 93 90 00 	sts	0x0090, r30	; 0x800090 <__TEXT_REGION_LENGTH__+0x7e0090>
    92e4:	08 95       	ret

000092e6 <_digitalWrite_OC3B>:
    92e6:	e0 91 90 00 	lds	r30, 0x0090	; 0x800090 <__TEXT_REGION_LENGTH__+0x7e0090>
    92ea:	ef 7d       	andi	r30, 0xDF	; 223
    92ec:	e0 93 90 00 	sts	0x0090, r30	; 0x800090 <__TEXT_REGION_LENGTH__+0x7e0090>
    92f0:	08 95       	ret

000092f2 <_digitalWrite_OC3C>:
    92f2:	e0 91 90 00 	lds	r30, 0x0090	; 0x800090 <__TEXT_REGION_LENGTH__+0x7e0090>
    92f6:	e7 7f       	andi	r30, 0xF7	; 247
    92f8:	e0 93 90 00 	sts	0x0090, r30	; 0x800090 <__TEXT_REGION_LENGTH__+0x7e0090>
    92fc:	08 95       	ret

000092fe <_reboot_Teensyduino_>:
#define WDFR 3
#endif

void _reboot_Teensyduino_(void)
{
	cli();
    92fe:	f8 94       	cli
	// stop watchdog timer, if running
	MCUSR &= ~(1<<WDFR);
    9300:	84 b7       	in	r24, 0x34	; 52
    9302:	87 7f       	andi	r24, 0xF7	; 247
    9304:	84 bf       	out	0x34, r24	; 52
	WDTCSR |= (1<<WDCE);
    9306:	80 91 60 00 	lds	r24, 0x0060	; 0x800060 <__TEXT_REGION_LENGTH__+0x7e0060>
    930a:	80 61       	ori	r24, 0x10	; 16
    930c:	80 93 60 00 	sts	0x0060, r24	; 0x800060 <__TEXT_REGION_LENGTH__+0x7e0060>
	WDTCSR = 0;
    9310:	10 92 60 00 	sts	0x0060, r1	; 0x800060 <__TEXT_REGION_LENGTH__+0x7e0060>
					"brne	L_%=_loop"	"\n\t"	// 2 (1 on last)
					: "=d" (tmp2)
					: "0" (tmp2)
				);
			} else {
				asm volatile(
    9314:	80 e2       	ldi	r24, 0x20	; 32
    9316:	9e e4       	ldi	r25, 0x4E	; 78

00009318 <L_1164_loop>:
    9318:	01 97       	sbiw	r24, 0x01	; 1
    931a:	f1 f7       	brne	.-4      	; 0x9318 <L_1164_loop>
	delayMicroseconds(5000);
	UDCON = 1;
    931c:	81 e0       	ldi	r24, 0x01	; 1
    931e:	80 93 e0 00 	sts	0x00E0, r24	; 0x8000e0 <__TEXT_REGION_LENGTH__+0x7e00e0>
	USBCON = (1<<FRZCLK);
    9322:	80 e2       	ldi	r24, 0x20	; 32
    9324:	80 93 d8 00 	sts	0x00D8, r24	; 0x8000d8 <__TEXT_REGION_LENGTH__+0x7e00d8>
    9328:	80 e6       	ldi	r24, 0x60	; 96
    932a:	9a ee       	ldi	r25, 0xEA	; 234

0000932c <L_1178_loop>:
    932c:	01 97       	sbiw	r24, 0x01	; 1
    932e:	f1 f7       	brne	.-4      	; 0x932c <L_1178_loop>
	delayMicroseconds(15000);
	disable_peripherals();
    9330:	6d de       	rcall	.-806    	; 0x900c <disable_peripherals>
	#elif defined(__AVR_ATmega32U4__)
	asm volatile("jmp 0x7E00");
	#elif defined(__AVR_AT90USB646__)
	asm volatile("jmp 0xFC00");
	#elif defined(__AVR_AT90USB1286__)
	asm volatile("jmp 0x1FC00");
    9332:	0c 94 00 fe 	jmp	0x1fc00	; 0x1fc00 <__EEPROM_REGION_LENGTH__+0xfc00>
    9336:	ff cf       	rjmp	.-2      	; 0x9336 <L_1178_loop+0xa>

00009338 <_restart_Teensyduino_>:
	while (1) ;
}

void _restart_Teensyduino_(void)
{
	cli();
    9338:	f8 94       	cli
	disable_peripherals();  // but leave USB intact
    933a:	68 de       	rcall	.-816    	; 0x900c <disable_peripherals>
    933c:	80 e6       	ldi	r24, 0x60	; 96
    933e:	9a ee       	ldi	r25, 0xEA	; 234

00009340 <L_1203_loop>:
    9340:	01 97       	sbiw	r24, 0x01	; 1
    9342:	f1 f7       	brne	.-4      	; 0x9340 <L_1203_loop>
	delayMicroseconds(15000);
	asm volatile("jmp 0");
    9344:	0c 94 00 00 	jmp	0	; 0x0 <__vectors>
    9348:	ff cf       	rjmp	.-2      	; 0x9348 <L_1203_loop+0x8>

0000934a <__vector_23>:
volatile unsigned char timer0_fract_count = 0;

void TIMER0_OVF_vect() __attribute__((naked));
void TIMER0_OVF_vect()
{
	asm volatile(
    934a:	8f 93       	push	r24
    934c:	8f b7       	in	r24, 0x3f	; 63
    934e:	8f 93       	push	r24
    9350:	80 91 e9 10 	lds	r24, 0x10E9	; 0x8010e9 <timer0_fract_count>
    9354:	8d 5f       	subi	r24, 0xFD	; 253
    9356:	8d 37       	cpi	r24, 0x7D	; 125
    9358:	d0 f4       	brcc	.+52     	; 0x938e <L_1218_fract_roll>

0000935a <L_1218_fract_noroll>:
    935a:	80 93 e9 10 	sts	0x10E9, r24	; 0x8010e9 <timer0_fract_count>
    935e:	80 91 ea 10 	lds	r24, 0x10EA	; 0x8010ea <timer0_millis_count>
    9362:	8f 5f       	subi	r24, 0xFF	; 255
    9364:	80 93 ea 10 	sts	0x10EA, r24	; 0x8010ea <timer0_millis_count>
    9368:	d8 f0       	brcs	.+54     	; 0x93a0 <L_1218_ovcount>

0000936a <L_1218_millis_inc_sext>:
    936a:	80 91 eb 10 	lds	r24, 0x10EB	; 0x8010eb <timer0_millis_count+0x1>
    936e:	8f 4f       	sbci	r24, 0xFF	; 255
    9370:	80 93 eb 10 	sts	0x10EB, r24	; 0x8010eb <timer0_millis_count+0x1>
    9374:	a8 f0       	brcs	.+42     	; 0x93a0 <L_1218_ovcount>
    9376:	80 91 ec 10 	lds	r24, 0x10EC	; 0x8010ec <timer0_millis_count+0x2>
    937a:	8f 4f       	sbci	r24, 0xFF	; 255
    937c:	80 93 ec 10 	sts	0x10EC, r24	; 0x8010ec <timer0_millis_count+0x2>
    9380:	78 f0       	brcs	.+30     	; 0x93a0 <L_1218_ovcount>
    9382:	80 91 ed 10 	lds	r24, 0x10ED	; 0x8010ed <timer0_millis_count+0x3>
    9386:	8f 4f       	sbci	r24, 0xFF	; 255
    9388:	80 93 ed 10 	sts	0x10ED, r24	; 0x8010ed <timer0_millis_count+0x3>
    938c:	09 c0       	rjmp	.+18     	; 0x93a0 <L_1218_ovcount>

0000938e <L_1218_fract_roll>:
    938e:	8d 57       	subi	r24, 0x7D	; 125
    9390:	80 93 e9 10 	sts	0x10E9, r24	; 0x8010e9 <timer0_fract_count>
    9394:	80 91 ea 10 	lds	r24, 0x10EA	; 0x8010ea <timer0_millis_count>
    9398:	8e 5f       	subi	r24, 0xFE	; 254
    939a:	80 93 ea 10 	sts	0x10EA, r24	; 0x8010ea <timer0_millis_count>
    939e:	28 f7       	brcc	.-54     	; 0x936a <L_1218_millis_inc_sext>

000093a0 <L_1218_ovcount>:
    93a0:	80 91 ee 10 	lds	r24, 0x10EE	; 0x8010ee <timer0_micros_count>
    93a4:	8c 5f       	subi	r24, 0xFC	; 252
    93a6:	80 93 ee 10 	sts	0x10EE, r24	; 0x8010ee <timer0_micros_count>
    93aa:	58 f0       	brcs	.+22     	; 0x93c2 <L_1218_end>
    93ac:	80 91 ef 10 	lds	r24, 0x10EF	; 0x8010ef <timer0_micros_count+0x1>
    93b0:	8f 4f       	sbci	r24, 0xFF	; 255
    93b2:	80 93 ef 10 	sts	0x10EF, r24	; 0x8010ef <timer0_micros_count+0x1>
    93b6:	28 f0       	brcs	.+10     	; 0x93c2 <L_1218_end>
    93b8:	80 91 f0 10 	lds	r24, 0x10F0	; 0x8010f0 <timer0_micros_count+0x2>
    93bc:	8f 4f       	sbci	r24, 0xFF	; 255
    93be:	80 93 f0 10 	sts	0x10F0, r24	; 0x8010f0 <timer0_micros_count+0x2>

000093c2 <L_1218_end>:
    93c2:	8f 91       	pop	r24
    93c4:	8f bf       	out	0x3f, r24	; 63
    93c6:	8f 91       	pop	r24
    93c8:	18 95       	reti

000093ca <delay>:
	);
}


void delay(uint32_t ms)
{
    93ca:	cf 92       	push	r12
    93cc:	df 92       	push	r13
    93ce:	ef 92       	push	r14
    93d0:	ff 92       	push	r15
    93d2:	6b 01       	movw	r12, r22
    93d4:	7c 01       	movw	r14, r24

static inline uint32_t micros(void) __attribute__((always_inline, unused));
static inline uint32_t micros(void)
{
	register uint32_t out asm("r22");
	asm volatile("call _micros" : "=d" (out) : : "r0");
    93d6:	19 d0       	rcall	.+50     	; 0x940a <_micros>
	uint16_t start = (uint16_t)micros();
    93d8:	9b 01       	movw	r18, r22

	while (ms > 0) {
    93da:	c1 14       	cp	r12, r1
    93dc:	d1 04       	cpc	r13, r1
    93de:	e1 04       	cpc	r14, r1
    93e0:	f1 04       	cpc	r15, r1
    93e2:	29 f4       	brne	.+10     	; 0x93ee <delay+0x24>
		_SLEEP_CONTROL_REG = SLEEP_MODE_IDLE;
		cli();
	} while (timer0_millis_count - start <= ms);
	sei();
#endif
}
    93e4:	ff 90       	pop	r15
    93e6:	ef 90       	pop	r14
    93e8:	df 90       	pop	r13
    93ea:	cf 90       	pop	r12
    93ec:	08 95       	ret
    93ee:	0d d0       	rcall	.+26     	; 0x940a <_micros>
void delay(uint32_t ms)
{
	uint16_t start = (uint16_t)micros();

	while (ms > 0) {
		if (((uint16_t)micros() - start) >= 1000) {
    93f0:	62 1b       	sub	r22, r18
    93f2:	73 0b       	sbc	r23, r19
    93f4:	68 3e       	cpi	r22, 0xE8	; 232
    93f6:	73 40       	sbci	r23, 0x03	; 3
    93f8:	80 f3       	brcs	.-32     	; 0x93da <delay+0x10>
			ms--;
    93fa:	81 e0       	ldi	r24, 0x01	; 1
    93fc:	c8 1a       	sub	r12, r24
    93fe:	d1 08       	sbc	r13, r1
    9400:	e1 08       	sbc	r14, r1
    9402:	f1 08       	sbc	r15, r1
			start += 1000;
    9404:	28 51       	subi	r18, 0x18	; 24
    9406:	3c 4f       	sbci	r19, 0xFC	; 252
    9408:	e8 cf       	rjmp	.-48     	; 0x93da <delay+0x10>

0000940a <_micros>:


uint32_t _micros(void)
{
	register uint32_t out asm("r22");
	asm volatile(
    940a:	0f b6       	in	r0, 0x3f	; 63
    940c:	f8 94       	cli
    940e:	66 b5       	in	r22, 0x26	; 38
    9410:	15 b2       	in	r1, 0x15	; 21
    9412:	70 91 ee 10 	lds	r23, 0x10EE	; 0x8010ee <timer0_micros_count>
    9416:	80 91 ef 10 	lds	r24, 0x10EF	; 0x8010ef <timer0_micros_count+0x1>
    941a:	90 91 f0 10 	lds	r25, 0x10F0	; 0x8010f0 <timer0_micros_count+0x2>
    941e:	0f be       	out	0x3f, r0	; 63
    9420:	10 fe       	sbrs	r1, 0
    9422:	05 c0       	rjmp	.+10     	; 0x942e <L_1296_skip>
    9424:	6f 3f       	cpi	r22, 0xFF	; 255
    9426:	19 f0       	breq	.+6      	; 0x942e <L_1296_skip>
    9428:	7c 5f       	subi	r23, 0xFC	; 252
    942a:	8f 4f       	sbci	r24, 0xFF	; 255
    942c:	9f 4f       	sbci	r25, 0xFF	; 255

0000942e <L_1296_skip>:
    942e:	11 24       	eor	r1, r1
    9430:	00 24       	eor	r0, r0
    9432:	66 0f       	add	r22, r22
    9434:	00 1c       	adc	r0, r0
    9436:	66 0f       	add	r22, r22
    9438:	00 1c       	adc	r0, r0
    943a:	70 29       	or	r23, r0
		  "I" (_SFR_IO_ADDR(TIFR0)),
		  "I" (TOV0)
		: "r0"
	);
	return out;
}
    943c:	08 95       	ret

0000943e <usb_wait_in_ready>:
	UDCON = 1;	// disconnect attach resistor
	USBCON = 0;	// shut off USB periperal
	PLLCSR = 0;	// shut off PLL
	usb_configuration = 0;
	usb_suspended = 1;
}
    943e:	80 91 e8 00 	lds	r24, 0x00E8	; 0x8000e8 <__TEXT_REGION_LENGTH__+0x7e00e8>
    9442:	80 ff       	sbrs	r24, 0
    9444:	fc cf       	rjmp	.-8      	; 0x943e <usb_wait_in_ready>
    9446:	08 95       	ret

00009448 <usb_init>:
    9448:	80 91 d8 00 	lds	r24, 0x00D8	; 0x8000d8 <__TEXT_REGION_LENGTH__+0x7e00d8>
    944c:	87 ff       	sbrs	r24, 7
    944e:	02 c0       	rjmp	.+4      	; 0x9454 <usb_init+0xc>
    9450:	85 ff       	sbrs	r24, 5
    9452:	1b c0       	rjmp	.+54     	; 0x948a <usb_init+0x42>
    9454:	81 e8       	ldi	r24, 0x81	; 129
    9456:	80 93 d7 00 	sts	0x00D7, r24	; 0x8000d7 <__TEXT_REGION_LENGTH__+0x7e00d7>
    945a:	80 ea       	ldi	r24, 0xA0	; 160
    945c:	80 93 d8 00 	sts	0x00D8, r24	; 0x8000d8 <__TEXT_REGION_LENGTH__+0x7e00d8>
    9460:	86 e1       	ldi	r24, 0x16	; 22
    9462:	89 bd       	out	0x29, r24	; 41
    9464:	09 b4       	in	r0, 0x29	; 41
    9466:	00 fe       	sbrs	r0, 0
    9468:	fd cf       	rjmp	.-6      	; 0x9464 <usb_init+0x1c>
    946a:	80 e9       	ldi	r24, 0x90	; 144
    946c:	80 93 d8 00 	sts	0x00D8, r24	; 0x8000d8 <__TEXT_REGION_LENGTH__+0x7e00d8>
    9470:	10 92 e0 00 	sts	0x00E0, r1	; 0x8000e0 <__TEXT_REGION_LENGTH__+0x7e00e0>
    9474:	10 92 78 11 	sts	0x1178, r1	; 0x801178 <usb_configuration>
    9478:	10 92 77 11 	sts	0x1177, r1	; 0x801177 <usb_suspended>
    947c:	10 92 76 11 	sts	0x1176, r1	; 0x801176 <__bss_end>
    9480:	10 92 e1 00 	sts	0x00E1, r1	; 0x8000e1 <__TEXT_REGION_LENGTH__+0x7e00e1>
    9484:	8d e0       	ldi	r24, 0x0D	; 13
    9486:	80 93 e2 00 	sts	0x00E2, r24	; 0x8000e2 <__TEXT_REGION_LENGTH__+0x7e00e2>
    948a:	08 95       	ret

0000948c <__vector_10>:

// USB Device Interrupt - handle all device-level events
// the transmit buffer flushing is triggered by the start of frame
//
ISR(USB_GEN_vect)
{
    948c:	1f 92       	push	r1
    948e:	0f 92       	push	r0
    9490:	0f b6       	in	r0, 0x3f	; 63
    9492:	0f 92       	push	r0
    9494:	11 24       	eor	r1, r1
    9496:	0b b6       	in	r0, 0x3b	; 59
    9498:	0f 92       	push	r0
    949a:	2f 93       	push	r18
    949c:	3f 93       	push	r19
    949e:	4f 93       	push	r20
    94a0:	5f 93       	push	r21
    94a2:	6f 93       	push	r22
    94a4:	7f 93       	push	r23
    94a6:	8f 93       	push	r24
    94a8:	9f 93       	push	r25
    94aa:	af 93       	push	r26
    94ac:	bf 93       	push	r27
    94ae:	ef 93       	push	r30
    94b0:	ff 93       	push	r31
	uint8_t intbits, t;

        intbits = UDINT;
    94b2:	90 91 e1 00 	lds	r25, 0x00E1	; 0x8000e1 <__TEXT_REGION_LENGTH__+0x7e00e1>
        UDINT = 0;
    94b6:	10 92 e1 00 	sts	0x00E1, r1	; 0x8000e1 <__TEXT_REGION_LENGTH__+0x7e00e1>
        if (intbits & (1<<EORSTI)) {
    94ba:	93 ff       	sbrs	r25, 3
    94bc:	11 c0       	rjmp	.+34     	; 0x94e0 <__vector_10+0x54>
		// USB Reset
		UENUM = 0;
    94be:	10 92 e9 00 	sts	0x00E9, r1	; 0x8000e9 <__TEXT_REGION_LENGTH__+0x7e00e9>
		UECONX = 1;
    94c2:	81 e0       	ldi	r24, 0x01	; 1
    94c4:	80 93 eb 00 	sts	0x00EB, r24	; 0x8000eb <__TEXT_REGION_LENGTH__+0x7e00eb>
		UECFG0X = EP_TYPE_CONTROL;
    94c8:	10 92 ec 00 	sts	0x00EC, r1	; 0x8000ec <__TEXT_REGION_LENGTH__+0x7e00ec>
		UECFG1X = EP_SIZE(ENDPOINT0_SIZE) | EP_SINGLE_BUFFER;
    94cc:	82 e2       	ldi	r24, 0x22	; 34
    94ce:	80 93 ed 00 	sts	0x00ED, r24	; 0x8000ed <__TEXT_REGION_LENGTH__+0x7e00ed>
		UEIENX = (1<<RXSTPE);
    94d2:	88 e0       	ldi	r24, 0x08	; 8
    94d4:	80 93 f0 00 	sts	0x00F0, r24	; 0x8000f0 <__TEXT_REGION_LENGTH__+0x7e00f0>
		usb_configuration = 0;
    94d8:	10 92 78 11 	sts	0x1178, r1	; 0x801178 <usb_configuration>
		cdc_line_rtsdtr = 0;
    94dc:	10 92 76 11 	sts	0x1176, r1	; 0x801176 <__bss_end>
	}
	if (intbits & (1<<SOFI)) {
    94e0:	92 ff       	sbrs	r25, 2
    94e2:	1d c0       	rjmp	.+58     	; 0x951e <__vector_10+0x92>
		// Start Of Frame
		if (usb_configuration) {
    94e4:	80 91 78 11 	lds	r24, 0x1178	; 0x801178 <usb_configuration>
    94e8:	88 23       	and	r24, r24
    94ea:	c9 f0       	breq	.+50     	; 0x951e <__vector_10+0x92>
			t = transmit_flush_timer;
    94ec:	80 91 f4 10 	lds	r24, 0x10F4	; 0x8010f4 <transmit_flush_timer>
			if (t) {
    94f0:	88 23       	and	r24, r24
    94f2:	59 f0       	breq	.+22     	; 0x950a <__vector_10+0x7e>
				transmit_flush_timer = --t;
    94f4:	81 50       	subi	r24, 0x01	; 1
    94f6:	80 93 f4 10 	sts	0x10F4, r24	; 0x8010f4 <transmit_flush_timer>
				if (!t) {
    94fa:	81 11       	cpse	r24, r1
    94fc:	06 c0       	rjmp	.+12     	; 0x950a <__vector_10+0x7e>
					UENUM = CDC_TX_ENDPOINT;
    94fe:	84 e0       	ldi	r24, 0x04	; 4
    9500:	80 93 e9 00 	sts	0x00E9, r24	; 0x8000e9 <__TEXT_REGION_LENGTH__+0x7e00e9>
					UEINTX = 0x3A;
    9504:	8a e3       	ldi	r24, 0x3A	; 58
    9506:	80 93 e8 00 	sts	0x00E8, r24	; 0x8000e8 <__TEXT_REGION_LENGTH__+0x7e00e8>
				}
			}
			t = reboot_timer;
    950a:	80 91 f3 10 	lds	r24, 0x10F3	; 0x8010f3 <reboot_timer>
			if (t) {
    950e:	88 23       	and	r24, r24
    9510:	31 f0       	breq	.+12     	; 0x951e <__vector_10+0x92>
				reboot_timer = --t;
    9512:	81 50       	subi	r24, 0x01	; 1
    9514:	80 93 f3 10 	sts	0x10F3, r24	; 0x8010f3 <reboot_timer>
				if (!t) _reboot_Teensyduino_();
    9518:	81 11       	cpse	r24, r1
    951a:	01 c0       	rjmp	.+2      	; 0x951e <__vector_10+0x92>
    951c:	f0 de       	rcall	.-544    	; 0x92fe <_reboot_Teensyduino_>
			}
		}
	}
	// in active state
	if (intbits & (1<<SUSPI)) {
    951e:	90 ff       	sbrs	r25, 0
    9520:	0c c0       	rjmp	.+24     	; 0x953a <__vector_10+0xae>
		// USB Suspend (inactivity for 3ms)
		UDIEN = (1<<WAKEUPE);
    9522:	80 e1       	ldi	r24, 0x10	; 16
    9524:	80 93 e2 00 	sts	0x00E2, r24	; 0x8000e2 <__TEXT_REGION_LENGTH__+0x7e00e2>
		usb_configuration = 0;
    9528:	10 92 78 11 	sts	0x1178, r1	; 0x801178 <usb_configuration>
		usb_suspended = 1;
    952c:	81 e0       	ldi	r24, 0x01	; 1
    952e:	80 93 77 11 	sts	0x1177, r24	; 0x801177 <usb_suspended>
		#if (F_CPU >= 8000000L)
		// WAKEUPI does not work with USB clock freeze 
		// when CPU is running less than 8 MHz.
		// Is this a hardware bug?
		USB_FREEZE();			// shut off USB
    9532:	80 ea       	ldi	r24, 0xA0	; 160
    9534:	80 93 d8 00 	sts	0x00D8, r24	; 0x8000d8 <__TEXT_REGION_LENGTH__+0x7e00d8>
		PLLCSR = 0;			// shut off PLL
    9538:	19 bc       	out	0x29, r1	; 41
		// to properly meet the USB spec, current must
		// reduce to less than 2.5 mA, which means using
		// powerdown mode, but that breaks the Arduino
		// user's paradigm....
	}
	if (usb_suspended && (intbits & (1<<WAKEUPI))) {
    953a:	80 91 77 11 	lds	r24, 0x1177	; 0x801177 <usb_suspended>
    953e:	88 23       	and	r24, r24
    9540:	79 f0       	breq	.+30     	; 0x9560 <__vector_10+0xd4>
    9542:	94 ff       	sbrs	r25, 4
    9544:	0d c0       	rjmp	.+26     	; 0x9560 <__vector_10+0xd4>
		// USB Resume (pretty much any activity)
		#if (F_CPU >= 8000000L)
		PLL_CONFIG();
    9546:	86 e1       	ldi	r24, 0x16	; 22
    9548:	89 bd       	out	0x29, r24	; 41
		while (!(PLLCSR & (1<<PLOCK))) ;
    954a:	09 b4       	in	r0, 0x29	; 41
    954c:	00 fe       	sbrs	r0, 0
    954e:	fd cf       	rjmp	.-6      	; 0x954a <__vector_10+0xbe>
		USB_CONFIG();
    9550:	80 e9       	ldi	r24, 0x90	; 144
    9552:	80 93 d8 00 	sts	0x00D8, r24	; 0x8000d8 <__TEXT_REGION_LENGTH__+0x7e00d8>
		#endif
		UDIEN = (1<<EORSTE)|(1<<SOFE)|(1<<SUSPE);
    9556:	8d e0       	ldi	r24, 0x0D	; 13
    9558:	80 93 e2 00 	sts	0x00E2, r24	; 0x8000e2 <__TEXT_REGION_LENGTH__+0x7e00e2>
		usb_suspended = 0;
    955c:	10 92 77 11 	sts	0x1177, r1	; 0x801177 <usb_suspended>
		return;
	}
}
    9560:	ff 91       	pop	r31
    9562:	ef 91       	pop	r30
    9564:	bf 91       	pop	r27
    9566:	af 91       	pop	r26
    9568:	9f 91       	pop	r25
    956a:	8f 91       	pop	r24
    956c:	7f 91       	pop	r23
    956e:	6f 91       	pop	r22
    9570:	5f 91       	pop	r21
    9572:	4f 91       	pop	r20
    9574:	3f 91       	pop	r19
    9576:	2f 91       	pop	r18
    9578:	0f 90       	pop	r0
    957a:	0b be       	out	0x3b, r0	; 59
    957c:	0f 90       	pop	r0
    957e:	0f be       	out	0x3f, r0	; 63
    9580:	0f 90       	pop	r0
    9582:	1f 90       	pop	r1
    9584:	18 95       	reti

00009586 <__vector_11>:
// USB Endpoint Interrupt - endpoint 0 is handled here.  The
// other endpoints are manipulated by the user-callable
// functions, and the start-of-frame interrupt.
//
ISR(USB_COM_vect)
{
    9586:	1f 92       	push	r1
    9588:	0f 92       	push	r0
    958a:	0f b6       	in	r0, 0x3f	; 63
    958c:	0f 92       	push	r0
    958e:	11 24       	eor	r1, r1
    9590:	0b b6       	in	r0, 0x3b	; 59
    9592:	0f 92       	push	r0
    9594:	ef 92       	push	r14
    9596:	ff 92       	push	r15
    9598:	0f 93       	push	r16
    959a:	1f 93       	push	r17
    959c:	2f 93       	push	r18
    959e:	3f 93       	push	r19
    95a0:	4f 93       	push	r20
    95a2:	5f 93       	push	r21
    95a4:	6f 93       	push	r22
    95a6:	7f 93       	push	r23
    95a8:	8f 93       	push	r24
    95aa:	9f 93       	push	r25
    95ac:	af 93       	push	r26
    95ae:	bf 93       	push	r27
    95b0:	cf 93       	push	r28
    95b2:	df 93       	push	r29
    95b4:	ef 93       	push	r30
    95b6:	ff 93       	push	r31
	uint16_t desc_val;
	uint32_t baud;
	const uint8_t *desc_addr;
	uint8_t	desc_length;

	UENUM = 0;
    95b8:	10 92 e9 00 	sts	0x00E9, r1	; 0x8000e9 <__TEXT_REGION_LENGTH__+0x7e00e9>
	intbits = UEINTX;
    95bc:	80 91 e8 00 	lds	r24, 0x00E8	; 0x8000e8 <__TEXT_REGION_LENGTH__+0x7e00e8>
	if (intbits & (1<<RXSTPI)) {
    95c0:	83 ff       	sbrs	r24, 3
    95c2:	20 c0       	rjmp	.+64     	; 0x9604 <__vector_11+0x7e>
		bmRequestType = UEDATX;
    95c4:	d0 91 f1 00 	lds	r29, 0x00F1	; 0x8000f1 <__TEXT_REGION_LENGTH__+0x7e00f1>
		bRequest = UEDATX;
    95c8:	c0 91 f1 00 	lds	r28, 0x00F1	; 0x8000f1 <__TEXT_REGION_LENGTH__+0x7e00f1>
		//wValue = UEDATX;
		//wValue |= (UEDATX << 8);
		read_word_lsbfirst(wValue, UEDATX);
    95cc:	e0 90 f1 00 	lds	r14, 0x00F1	; 0x8000f1 <__TEXT_REGION_LENGTH__+0x7e00f1>
    95d0:	f0 90 f1 00 	lds	r15, 0x00F1	; 0x8000f1 <__TEXT_REGION_LENGTH__+0x7e00f1>
		//wIndex = UEDATX;
		//wIndex |= (UEDATX << 8);
		read_word_lsbfirst(wIndex, UEDATX);
    95d4:	00 91 f1 00 	lds	r16, 0x00F1	; 0x8000f1 <__TEXT_REGION_LENGTH__+0x7e00f1>
    95d8:	10 91 f1 00 	lds	r17, 0x00F1	; 0x8000f1 <__TEXT_REGION_LENGTH__+0x7e00f1>
		//wLength = UEDATX;
		//wLength |= (UEDATX << 8);
		read_word_lsbfirst(wLength, UEDATX);
    95dc:	20 91 f1 00 	lds	r18, 0x00F1	; 0x8000f1 <__TEXT_REGION_LENGTH__+0x7e00f1>
    95e0:	30 91 f1 00 	lds	r19, 0x00F1	; 0x8000f1 <__TEXT_REGION_LENGTH__+0x7e00f1>
                UEINTX = ~((1<<RXSTPI) | (1<<RXOUTI) | (1<<TXINI));
    95e4:	82 ef       	ldi	r24, 0xF2	; 242
    95e6:	80 93 e8 00 	sts	0x00E8, r24	; 0x8000e8 <__TEXT_REGION_LENGTH__+0x7e00e8>
                if (bRequest == GET_DESCRIPTOR) {
    95ea:	c6 30       	cpi	r28, 0x06	; 6
    95ec:	09 f0       	breq	.+2      	; 0x95f0 <__vector_11+0x6a>
    95ee:	5b c0       	rjmp	.+182    	; 0x96a6 <__vector_11+0x120>
			list = (const uint8_t *)descriptor_list;
    95f0:	e4 e1       	ldi	r30, 0x14	; 20
    95f2:	fd e0       	ldi	r31, 0x0D	; 13
					UECONX = (1<<STALLRQ)|(1<<EPEN);  //stall
					return;
				}
				//desc_val = pgm_read_word(list);
				//list += 2;
				pgm_read_word_postinc(desc_val, list);
    95f4:	85 91       	lpm	r24, Z+
    95f6:	95 91       	lpm	r25, Z+
				if (desc_val != wValue) {
    95f8:	e8 16       	cp	r14, r24
    95fa:	f9 06       	cpc	r15, r25
    95fc:	39 f0       	breq	.+14     	; 0x960c <__vector_11+0x86>
					list += sizeof(struct descriptor_list_struct)-2;
    95fe:	35 96       	adiw	r30, 0x05	; 5
    9600:	c1 50       	subi	r28, 0x01	; 1
		read_word_lsbfirst(wLength, UEDATX);
                UEINTX = ~((1<<RXSTPI) | (1<<RXOUTI) | (1<<TXINI));
                if (bRequest == GET_DESCRIPTOR) {
			list = (const uint8_t *)descriptor_list;
			for (i=0; ; i++) {
				if (i >= NUM_DESC_LIST) {
    9602:	c1 f7       	brne	.-16     	; 0x95f4 <__vector_11+0x6e>
				}
				return;
			}
		}
        }
	UECONX = (1<<STALLRQ) | (1<<EPEN);	// stall
    9604:	81 e2       	ldi	r24, 0x21	; 33
    9606:	80 93 eb 00 	sts	0x00EB, r24	; 0x8000eb <__TEXT_REGION_LENGTH__+0x7e00eb>
    960a:	2b c0       	rjmp	.+86     	; 0x9662 <__vector_11+0xdc>
					list += sizeof(struct descriptor_list_struct)-2;
					continue;
				}
				//desc_val = pgm_read_word(list);
				//list += 2;
				pgm_read_word_postinc(desc_val, list);
    960c:	85 91       	lpm	r24, Z+
    960e:	95 91       	lpm	r25, Z+
				if (desc_val != wIndex) {
    9610:	08 17       	cp	r16, r24
    9612:	19 07       	cpc	r17, r25
    9614:	11 f0       	breq	.+4      	; 0x961a <__vector_11+0x94>
					list += sizeof(struct descriptor_list_struct)-4;
    9616:	33 96       	adiw	r30, 0x03	; 3
					continue;
    9618:	f3 cf       	rjmp	.-26     	; 0x9600 <__vector_11+0x7a>
				}
				//desc_addr = (const uint8_t *)pgm_read_word(list);
				//list += 2;
				pgm_read_word_postinc(desc_addr, list);
    961a:	45 91       	lpm	r20, Z+
    961c:	55 91       	lpm	r21, Z+
				desc_length = pgm_read_byte(list);
    961e:	84 91       	lpm	r24, Z
				break;
			}
			len = (wLength < 256) ? wLength : 255;
    9620:	2f 3f       	cpi	r18, 0xFF	; 255
    9622:	31 05       	cpc	r19, r1
    9624:	19 f0       	breq	.+6      	; 0x962c <__vector_11+0xa6>
    9626:	10 f0       	brcs	.+4      	; 0x962c <__vector_11+0xa6>
    9628:	2f ef       	ldi	r18, 0xFF	; 255
    962a:	30 e0       	ldi	r19, 0x00	; 0
    962c:	82 17       	cp	r24, r18
    962e:	08 f4       	brcc	.+2      	; 0x9632 <__vector_11+0xac>
    9630:	28 2f       	mov	r18, r24
{
	while (!(UEINTX & (1<<TXINI))) ;
}
static inline void usb_send_in(void)
{
	UEINTX = ~(1<<TXINI);
    9632:	3e ef       	ldi	r19, 0xFE	; 254
			if (len > desc_length) len = desc_length;
			list = desc_addr;
			do {
				// wait for host ready for IN packet
				do {
					i = UEINTX;
    9634:	80 91 e8 00 	lds	r24, 0x00E8	; 0x8000e8 <__TEXT_REGION_LENGTH__+0x7e00e8>
				} while (!(i & ((1<<TXINI)|(1<<RXOUTI))));
    9638:	98 2f       	mov	r25, r24
    963a:	95 70       	andi	r25, 0x05	; 5
    963c:	d9 f3       	breq	.-10     	; 0x9634 <__vector_11+0xae>
				if (i & (1<<RXOUTI)) return;	// abort
    963e:	82 fd       	sbrc	r24, 2
    9640:	10 c0       	rjmp	.+32     	; 0x9662 <__vector_11+0xdc>
				// send IN packet
				n = len < ENDPOINT0_SIZE ? len : ENDPOINT0_SIZE;
    9642:	82 2f       	mov	r24, r18
    9644:	21 32       	cpi	r18, 0x21	; 33
    9646:	08 f0       	brcs	.+2      	; 0x964a <__vector_11+0xc4>
    9648:	80 e2       	ldi	r24, 0x20	; 32
				for (i = n; i; i--) {
    964a:	98 2f       	mov	r25, r24
    964c:	91 11       	cpse	r25, r1
    964e:	24 c0       	rjmp	.+72     	; 0x9698 <__vector_11+0x112>
					//UEDATX = pgm_read_byte(desc_addr++);
					//pgm_read_byte_postinc(UEDATX, desc_addr);
					pgm_read_byte_postinc(UEDATX, list);
				}
				len -= n;
    9650:	92 2f       	mov	r25, r18
    9652:	98 1b       	sub	r25, r24
    9654:	89 2f       	mov	r24, r25
{
	while (!(UEINTX & (1<<TXINI))) ;
}
static inline void usb_send_in(void)
{
	UEINTX = ~(1<<TXINI);
    9656:	30 93 e8 00 	sts	0x00E8, r19	; 0x8000e8 <__TEXT_REGION_LENGTH__+0x7e00e8>
					//pgm_read_byte_postinc(UEDATX, desc_addr);
					pgm_read_byte_postinc(UEDATX, list);
				}
				len -= n;
				usb_send_in();
			} while (len || n == ENDPOINT0_SIZE);
    965a:	91 11       	cpse	r25, r1
    965c:	1b c0       	rjmp	.+54     	; 0x9694 <__vector_11+0x10e>
    965e:	20 32       	cpi	r18, 0x20	; 32
    9660:	c8 f4       	brcc	.+50     	; 0x9694 <__vector_11+0x10e>
				return;
			}
		}
        }
	UECONX = (1<<STALLRQ) | (1<<EPEN);	// stall
}
    9662:	ff 91       	pop	r31
    9664:	ef 91       	pop	r30
    9666:	df 91       	pop	r29
    9668:	cf 91       	pop	r28
    966a:	bf 91       	pop	r27
    966c:	af 91       	pop	r26
    966e:	9f 91       	pop	r25
    9670:	8f 91       	pop	r24
    9672:	7f 91       	pop	r23
    9674:	6f 91       	pop	r22
    9676:	5f 91       	pop	r21
    9678:	4f 91       	pop	r20
    967a:	3f 91       	pop	r19
    967c:	2f 91       	pop	r18
    967e:	1f 91       	pop	r17
    9680:	0f 91       	pop	r16
    9682:	ff 90       	pop	r15
    9684:	ef 90       	pop	r14
    9686:	0f 90       	pop	r0
    9688:	0b be       	out	0x3b, r0	; 59
    968a:	0f 90       	pop	r0
    968c:	0f be       	out	0x3f, r0	; 63
    968e:	0f 90       	pop	r0
    9690:	1f 90       	pop	r1
    9692:	18 95       	reti
		//wLength = UEDATX;
		//wLength |= (UEDATX << 8);
		read_word_lsbfirst(wLength, UEDATX);
                UEINTX = ~((1<<RXSTPI) | (1<<RXOUTI) | (1<<TXINI));
                if (bRequest == GET_DESCRIPTOR) {
			list = (const uint8_t *)descriptor_list;
    9694:	28 2f       	mov	r18, r24
    9696:	ce cf       	rjmp	.-100    	; 0x9634 <__vector_11+0xae>
				// send IN packet
				n = len < ENDPOINT0_SIZE ? len : ENDPOINT0_SIZE;
				for (i = n; i; i--) {
					//UEDATX = pgm_read_byte(desc_addr++);
					//pgm_read_byte_postinc(UEDATX, desc_addr);
					pgm_read_byte_postinc(UEDATX, list);
    9698:	fa 01       	movw	r30, r20
    969a:	45 91       	lpm	r20, Z+
    969c:	40 93 f1 00 	sts	0x00F1, r20	; 0x8000f1 <__TEXT_REGION_LENGTH__+0x7e00f1>
    96a0:	af 01       	movw	r20, r30
					i = UEINTX;
				} while (!(i & ((1<<TXINI)|(1<<RXOUTI))));
				if (i & (1<<RXOUTI)) return;	// abort
				// send IN packet
				n = len < ENDPOINT0_SIZE ? len : ENDPOINT0_SIZE;
				for (i = n; i; i--) {
    96a2:	91 50       	subi	r25, 0x01	; 1
    96a4:	d3 cf       	rjmp	.-90     	; 0x964c <__vector_11+0xc6>
				len -= n;
				usb_send_in();
			} while (len || n == ENDPOINT0_SIZE);
			return;
                }
		if (bRequest == SET_ADDRESS) {
    96a6:	c5 30       	cpi	r28, 0x05	; 5
    96a8:	49 f4       	brne	.+18     	; 0x96bc <__vector_11+0x136>
{
	while (!(UEINTX & (1<<TXINI))) ;
}
static inline void usb_send_in(void)
{
	UEINTX = ~(1<<TXINI);
    96aa:	8e ef       	ldi	r24, 0xFE	; 254
    96ac:	80 93 e8 00 	sts	0x00E8, r24	; 0x8000e8 <__TEXT_REGION_LENGTH__+0x7e00e8>
			} while (len || n == ENDPOINT0_SIZE);
			return;
                }
		if (bRequest == SET_ADDRESS) {
			usb_send_in();
			usb_wait_in_ready();
    96b0:	c6 de       	rcall	.-628    	; 0x943e <usb_wait_in_ready>
			UDADDR = wValue | (1<<ADDEN);
    96b2:	8e 2d       	mov	r24, r14
    96b4:	80 68       	ori	r24, 0x80	; 128
    96b6:	80 93 e3 00 	sts	0x00E3, r24	; 0x8000e3 <__TEXT_REGION_LENGTH__+0x7e00e3>
			return;
    96ba:	d3 cf       	rjmp	.-90     	; 0x9662 <__vector_11+0xdc>
		}
		if (bRequest == SET_CONFIGURATION && bmRequestType == 0) {
    96bc:	c9 30       	cpi	r28, 0x09	; 9
    96be:	21 f5       	brne	.+72     	; 0x9708 <__vector_11+0x182>
    96c0:	d1 11       	cpse	r29, r1
    96c2:	a0 cf       	rjmp	.-192    	; 0x9604 <__vector_11+0x7e>
			usb_configuration = wValue;
    96c4:	e0 92 78 11 	sts	0x1178, r14	; 0x801178 <usb_configuration>
			cdc_line_rtsdtr = 0;
    96c8:	10 92 76 11 	sts	0x1176, r1	; 0x801176 <__bss_end>
			transmit_flush_timer = 0;
    96cc:	10 92 f4 10 	sts	0x10F4, r1	; 0x8010f4 <transmit_flush_timer>
{
	while (!(UEINTX & (1<<TXINI))) ;
}
static inline void usb_send_in(void)
{
	UEINTX = ~(1<<TXINI);
    96d0:	8e ef       	ldi	r24, 0xFE	; 254
    96d2:	80 93 e8 00 	sts	0x00E8, r24	; 0x8000e8 <__TEXT_REGION_LENGTH__+0x7e00e8>
			usb_configuration = wValue;
			cdc_line_rtsdtr = 0;
			transmit_flush_timer = 0;
			usb_send_in();
			cfg = endpoint_config_table;
			for (i=1; i<5; i++) {
    96d6:	81 e0       	ldi	r24, 0x01	; 1
		if (bRequest == SET_CONFIGURATION && bmRequestType == 0) {
			usb_configuration = wValue;
			cdc_line_rtsdtr = 0;
			transmit_flush_timer = 0;
			usb_send_in();
			cfg = endpoint_config_table;
    96d8:	e7 ed       	ldi	r30, 0xD7	; 215
    96da:	fd e0       	ldi	r31, 0x0D	; 13
			for (i=1; i<5; i++) {
				UENUM = i;
    96dc:	80 93 e9 00 	sts	0x00E9, r24	; 0x8000e9 <__TEXT_REGION_LENGTH__+0x7e00e9>
				//en = pgm_read_byte(cfg++);
				pgm_read_byte_postinc(en, cfg);
    96e0:	95 91       	lpm	r25, Z+
				UECONX = en;
    96e2:	90 93 eb 00 	sts	0x00EB, r25	; 0x8000eb <__TEXT_REGION_LENGTH__+0x7e00eb>
				if (en) {
    96e6:	99 23       	and	r25, r25
    96e8:	31 f0       	breq	.+12     	; 0x96f6 <__vector_11+0x170>
					//UECFG0X = pgm_read_byte(cfg++);
					//UECFG1X = pgm_read_byte(cfg++);
					pgm_read_byte_postinc(UECFG0X, cfg);
    96ea:	95 91       	lpm	r25, Z+
    96ec:	90 93 ec 00 	sts	0x00EC, r25	; 0x8000ec <__TEXT_REGION_LENGTH__+0x7e00ec>
					pgm_read_byte_postinc(UECFG1X, cfg);
    96f0:	95 91       	lpm	r25, Z+
    96f2:	90 93 ed 00 	sts	0x00ED, r25	; 0x8000ed <__TEXT_REGION_LENGTH__+0x7e00ed>
			usb_configuration = wValue;
			cdc_line_rtsdtr = 0;
			transmit_flush_timer = 0;
			usb_send_in();
			cfg = endpoint_config_table;
			for (i=1; i<5; i++) {
    96f6:	8f 5f       	subi	r24, 0xFF	; 255
    96f8:	85 30       	cpi	r24, 0x05	; 5
    96fa:	81 f7       	brne	.-32     	; 0x96dc <__vector_11+0x156>
					//UECFG1X = pgm_read_byte(cfg++);
					pgm_read_byte_postinc(UECFG0X, cfg);
					pgm_read_byte_postinc(UECFG1X, cfg);
				}
			}
        		UERST = 0x1E;
    96fc:	8e e1       	ldi	r24, 0x1E	; 30
				UENUM = i;
				if (bRequest == SET_FEATURE) {
					UECONX = (1<<STALLRQ)|(1<<EPEN);
				} else {
					UECONX = (1<<STALLRQC)|(1<<RSTDT)|(1<<EPEN);
					UERST = (1 << i);
    96fe:	80 93 ea 00 	sts	0x00EA, r24	; 0x8000ea <__TEXT_REGION_LENGTH__+0x7e00ea>
					UERST = 0;
    9702:	10 92 ea 00 	sts	0x00EA, r1	; 0x8000ea <__TEXT_REGION_LENGTH__+0x7e00ea>
    9706:	ad cf       	rjmp	.-166    	; 0x9662 <__vector_11+0xdc>
			}
        		UERST = 0x1E;
        		UERST = 0;
			return;
		}
		if (bRequest == GET_CONFIGURATION && bmRequestType == 0x80) {
    9708:	c8 30       	cpi	r28, 0x08	; 8
    970a:	61 f4       	brne	.+24     	; 0x9724 <__vector_11+0x19e>
    970c:	d0 38       	cpi	r29, 0x80	; 128
    970e:	09 f0       	breq	.+2      	; 0x9712 <__vector_11+0x18c>
			usb_wait_in_ready();
    9710:	79 cf       	rjmp	.-270    	; 0x9604 <__vector_11+0x7e>
    9712:	95 de       	rcall	.-726    	; 0x943e <usb_wait_in_ready>
			UEDATX = usb_configuration;
    9714:	80 91 78 11 	lds	r24, 0x1178	; 0x801178 <usb_configuration>
    9718:	80 93 f1 00 	sts	0x00F1, r24	; 0x8000f1 <__TEXT_REGION_LENGTH__+0x7e00f1>
{
	while (!(UEINTX & (1<<TXINI))) ;
}
static inline void usb_send_in(void)
{
	UEINTX = ~(1<<TXINI);
    971c:	8e ef       	ldi	r24, 0xFE	; 254
    971e:	80 93 e8 00 	sts	0x00E8, r24	; 0x8000e8 <__TEXT_REGION_LENGTH__+0x7e00e8>
    9722:	9f cf       	rjmp	.-194    	; 0x9662 <__vector_11+0xdc>
			usb_wait_in_ready();
			UEDATX = usb_configuration;
			usb_send_in();
			return;
		}
		if (bRequest == CDC_GET_LINE_CODING /* 0x21 */ && bmRequestType == 0xA1) {
    9724:	c1 32       	cpi	r28, 0x21	; 33
    9726:	79 f4       	brne	.+30     	; 0x9746 <__vector_11+0x1c0>
    9728:	d1 3a       	cpi	r29, 0xA1	; 161
    972a:	09 f0       	breq	.+2      	; 0x972e <__vector_11+0x1a8>
			usb_wait_in_ready();
    972c:	6b cf       	rjmp	.-298    	; 0x9604 <__vector_11+0x7e>
    972e:	87 de       	rcall	.-754    	; 0x943e <usb_wait_in_ready>
			p = cdc_line_coding;
    9730:	e1 e1       	ldi	r30, 0x11	; 17
    9732:	f1 e0       	ldi	r31, 0x01	; 1
			for (i=0; i<7; i++) {
				UEDATX = *p++;
    9734:	80 81       	ld	r24, Z
    9736:	80 93 f1 00 	sts	0x00F1, r24	; 0x8000f1 <__TEXT_REGION_LENGTH__+0x7e00f1>
    973a:	31 96       	adiw	r30, 0x01	; 1
			return;
		}
		if (bRequest == CDC_GET_LINE_CODING /* 0x21 */ && bmRequestType == 0xA1) {
			usb_wait_in_ready();
			p = cdc_line_coding;
			for (i=0; i<7; i++) {
    973c:	81 e0       	ldi	r24, 0x01	; 1
    973e:	e8 31       	cpi	r30, 0x18	; 24
    9740:	f8 07       	cpc	r31, r24
    9742:	c1 f7       	brne	.-16     	; 0x9734 <__vector_11+0x1ae>
    9744:	eb cf       	rjmp	.-42     	; 0x971c <__vector_11+0x196>
				UEDATX = *p++;
			}
			usb_send_in();
			return;
		}
		if (bRequest == CDC_SET_LINE_CODING /* 0x20 */ && bmRequestType == 0x21) {
    9746:	c0 32       	cpi	r28, 0x20	; 32
    9748:	09 f0       	breq	.+2      	; 0x974c <__vector_11+0x1c6>
    974a:	47 c0       	rjmp	.+142    	; 0x97da <__vector_11+0x254>
    974c:	d1 32       	cpi	r29, 0x21	; 33
    974e:	09 f0       	breq	.+2      	; 0x9752 <__vector_11+0x1cc>
    9750:	59 cf       	rjmp	.-334    	; 0x9604 <__vector_11+0x7e>
{
	UEINTX = ~(1<<TXINI);
}
static inline void usb_wait_receive_out(void)
{
	while (!(UEINTX & (1<<RXOUTI))) ;
    9752:	80 91 e8 00 	lds	r24, 0x00E8	; 0x8000e8 <__TEXT_REGION_LENGTH__+0x7e00e8>
    9756:	82 ff       	sbrs	r24, 2
    9758:	fc cf       	rjmp	.-8      	; 0x9752 <__vector_11+0x1cc>
			usb_send_in();
			return;
		}
		if (bRequest == CDC_SET_LINE_CODING /* 0x20 */ && bmRequestType == 0x21) {
			usb_wait_receive_out();
			p = cdc_line_coding;
    975a:	e1 e1       	ldi	r30, 0x11	; 17
    975c:	f1 e0       	ldi	r31, 0x01	; 1
			for (i=0; i<7; i++) {
				*p++ = UEDATX;
    975e:	80 91 f1 00 	lds	r24, 0x00F1	; 0x8000f1 <__TEXT_REGION_LENGTH__+0x7e00f1>
    9762:	80 83       	st	Z, r24
    9764:	31 96       	adiw	r30, 0x01	; 1
			return;
		}
		if (bRequest == CDC_SET_LINE_CODING /* 0x20 */ && bmRequestType == 0x21) {
			usb_wait_receive_out();
			p = cdc_line_coding;
			for (i=0; i<7; i++) {
    9766:	91 e0       	ldi	r25, 0x01	; 1
    9768:	e8 31       	cpi	r30, 0x18	; 24
    976a:	f9 07       	cpc	r31, r25
    976c:	c1 f7       	brne	.-16     	; 0x975e <__vector_11+0x1d8>
{
	while (!(UEINTX & (1<<RXOUTI))) ;
}
static inline void usb_ack_out(void)
{
	UEINTX = ~(1<<RXOUTI);
    976e:	8b ef       	ldi	r24, 0xFB	; 251
    9770:	80 93 e8 00 	sts	0x00E8, r24	; 0x8000e8 <__TEXT_REGION_LENGTH__+0x7e00e8>
{
	while (!(UEINTX & (1<<TXINI))) ;
}
static inline void usb_send_in(void)
{
	UEINTX = ~(1<<TXINI);
    9774:	8e ef       	ldi	r24, 0xFE	; 254
    9776:	80 93 e8 00 	sts	0x00E8, r24	; 0x8000e8 <__TEXT_REGION_LENGTH__+0x7e00e8>
			for (i=0; i<7; i++) {
				*p++ = UEDATX;
			}
			usb_ack_out();
			usb_send_in();
			baud = (uint32_t)cdc_line_coding[0]
    977a:	30 91 11 01 	lds	r19, 0x0111	; 0x800111 <cdc_line_coding>
				| ((uint32_t)cdc_line_coding[1] << 8)
    977e:	40 91 12 01 	lds	r20, 0x0112	; 0x800112 <cdc_line_coding+0x1>
				| ((uint32_t)cdc_line_coding[2] << 16)
    9782:	80 91 13 01 	lds	r24, 0x0113	; 0x800113 <cdc_line_coding+0x2>
				| ((uint32_t)cdc_line_coding[3] << 24);
    9786:	20 91 14 01 	lds	r18, 0x0114	; 0x800114 <cdc_line_coding+0x3>
			}
			usb_ack_out();
			usb_send_in();
			baud = (uint32_t)cdc_line_coding[0]
				| ((uint32_t)cdc_line_coding[1] << 8)
				| ((uint32_t)cdc_line_coding[2] << 16)
    978a:	90 e0       	ldi	r25, 0x00	; 0
    978c:	b0 e0       	ldi	r27, 0x00	; 0
    978e:	a0 e0       	ldi	r26, 0x00	; 0
    9790:	dc 01       	movw	r26, r24
    9792:	99 27       	eor	r25, r25
    9794:	88 27       	eor	r24, r24
    9796:	94 2b       	or	r25, r20
    9798:	83 2b       	or	r24, r19
			for (i=0; i<7; i++) {
				*p++ = UEDATX;
			}
			usb_ack_out();
			usb_send_in();
			baud = (uint32_t)cdc_line_coding[0]
    979a:	b2 2b       	or	r27, r18
				| ((uint32_t)cdc_line_coding[1] << 8)
				| ((uint32_t)cdc_line_coding[2] << 16)
				| ((uint32_t)cdc_line_coding[3] << 24);
			if (baud == 134UL) reboot_timer = 15;
    979c:	86 38       	cpi	r24, 0x86	; 134
    979e:	91 05       	cpc	r25, r1
    97a0:	a1 05       	cpc	r26, r1
    97a2:	b1 05       	cpc	r27, r1
    97a4:	21 f4       	brne	.+8      	; 0x97ae <__vector_11+0x228>
    97a6:	8f e0       	ldi	r24, 0x0F	; 15
    97a8:	80 93 f3 10 	sts	0x10F3, r24	; 0x8010f3 <reboot_timer>
    97ac:	5a cf       	rjmp	.-332    	; 0x9662 <__vector_11+0xdc>
			if (baud == 150UL) {
    97ae:	86 39       	cpi	r24, 0x96	; 150
    97b0:	91 05       	cpc	r25, r1
    97b2:	a1 05       	cpc	r26, r1
    97b4:	b1 05       	cpc	r27, r1
    97b6:	09 f0       	breq	.+2      	; 0x97ba <__vector_11+0x234>
    97b8:	54 cf       	rjmp	.-344    	; 0x9662 <__vector_11+0xdc>
				UENUM = CDC_TX_ENDPOINT;
    97ba:	84 e0       	ldi	r24, 0x04	; 4
    97bc:	80 93 e9 00 	sts	0x00E9, r24	; 0x8000e9 <__TEXT_REGION_LENGTH__+0x7e00e9>
				while (UESTA0X & 0x03) {
					UEINTX = 0xFF;
    97c0:	9f ef       	ldi	r25, 0xFF	; 255
				| ((uint32_t)cdc_line_coding[2] << 16)
				| ((uint32_t)cdc_line_coding[3] << 24);
			if (baud == 134UL) reboot_timer = 15;
			if (baud == 150UL) {
				UENUM = CDC_TX_ENDPOINT;
				while (UESTA0X & 0x03) {
    97c2:	80 91 ee 00 	lds	r24, 0x00EE	; 0x8000ee <__TEXT_REGION_LENGTH__+0x7e00ee>
    97c6:	83 70       	andi	r24, 0x03	; 3
					UEINTX = 0xFF;
					while (UEINTX & 0x04) /* TODO: timeout? */ ;
				}
				_restart_Teensyduino_();
    97c8:	09 f4       	brne	.+2      	; 0x97cc <__vector_11+0x246>
    97ca:	b6 dd       	rcall	.-1172   	; 0x9338 <_restart_Teensyduino_>
				| ((uint32_t)cdc_line_coding[3] << 24);
			if (baud == 134UL) reboot_timer = 15;
			if (baud == 150UL) {
				UENUM = CDC_TX_ENDPOINT;
				while (UESTA0X & 0x03) {
					UEINTX = 0xFF;
    97cc:	90 93 e8 00 	sts	0x00E8, r25	; 0x8000e8 <__TEXT_REGION_LENGTH__+0x7e00e8>
					while (UEINTX & 0x04) /* TODO: timeout? */ ;
    97d0:	80 91 e8 00 	lds	r24, 0x00E8	; 0x8000e8 <__TEXT_REGION_LENGTH__+0x7e00e8>
    97d4:	82 fd       	sbrc	r24, 2
    97d6:	fc cf       	rjmp	.-8      	; 0x97d0 <__vector_11+0x24a>
    97d8:	f4 cf       	rjmp	.-24     	; 0x97c2 <__vector_11+0x23c>
				}
				_restart_Teensyduino_();
			}
			return;
		}
		if (bRequest == CDC_SET_CONTROL_LINE_STATE /* 0x22 */ && bmRequestType == 0x21) {
    97da:	c2 32       	cpi	r28, 0x22	; 34
    97dc:	39 f4       	brne	.+14     	; 0x97ec <__vector_11+0x266>
    97de:	d1 32       	cpi	r29, 0x21	; 33
    97e0:	09 f0       	breq	.+2      	; 0x97e4 <__vector_11+0x25e>
			cdc_line_rtsdtr = wValue;
    97e2:	10 cf       	rjmp	.-480    	; 0x9604 <__vector_11+0x7e>
    97e4:	e0 92 76 11 	sts	0x1176, r14	; 0x801176 <__bss_end>
			usb_wait_in_ready();
			usb_send_in();
			return;
		}
		if (bRequest == CDC_SEND_BREAK /* 0x23 */ && bmRequestType == 0x21) {
			usb_wait_in_ready();
    97e8:	2a de       	rcall	.-940    	; 0x943e <usb_wait_in_ready>
    97ea:	98 cf       	rjmp	.-208    	; 0x971c <__vector_11+0x196>
			cdc_line_rtsdtr = wValue;
			usb_wait_in_ready();
			usb_send_in();
			return;
		}
		if (bRequest == CDC_SEND_BREAK /* 0x23 */ && bmRequestType == 0x21) {
    97ec:	c3 32       	cpi	r28, 0x23	; 35
    97ee:	21 f4       	brne	.+8      	; 0x97f8 <__vector_11+0x272>
    97f0:	d1 32       	cpi	r29, 0x21	; 33
    97f2:	09 f0       	breq	.+2      	; 0x97f6 <__vector_11+0x270>
    97f4:	07 cf       	rjmp	.-498    	; 0x9604 <__vector_11+0x7e>
			usb_wait_in_ready();
			usb_send_in();
			return;
		}
		if (bRequest == GET_STATUS) {
    97f6:	f8 cf       	rjmp	.-16     	; 0x97e8 <__vector_11+0x262>
    97f8:	c1 11       	cpse	r28, r1
			usb_wait_in_ready();
    97fa:	11 c0       	rjmp	.+34     	; 0x981e <__vector_11+0x298>
    97fc:	20 de       	rcall	.-960    	; 0x943e <usb_wait_in_ready>
			i = 0;
			if (bmRequestType == 0x82) {
    97fe:	d2 38       	cpi	r29, 0x82	; 130
    9800:	49 f4       	brne	.+18     	; 0x9814 <__vector_11+0x28e>
				UENUM = wIndex;
    9802:	00 93 e9 00 	sts	0x00E9, r16	; 0x8000e9 <__TEXT_REGION_LENGTH__+0x7e00e9>
				if (UECONX & (1<<STALLRQ)) i = 1;
    9806:	c0 91 eb 00 	lds	r28, 0x00EB	; 0x8000eb <__TEXT_REGION_LENGTH__+0x7e00eb>
    980a:	c5 fb       	bst	r28, 5
    980c:	cc 27       	eor	r28, r28
    980e:	c0 f9       	bld	r28, 0
				UENUM = 0;
    9810:	10 92 e9 00 	sts	0x00E9, r1	; 0x8000e9 <__TEXT_REGION_LENGTH__+0x7e00e9>
			}
			UEDATX = i;
    9814:	c0 93 f1 00 	sts	0x00F1, r28	; 0x8000f1 <__TEXT_REGION_LENGTH__+0x7e00f1>
			UEDATX = 0;
    9818:	10 92 f1 00 	sts	0x00F1, r1	; 0x8000f1 <__TEXT_REGION_LENGTH__+0x7e00f1>
    981c:	7f cf       	rjmp	.-258    	; 0x971c <__vector_11+0x196>
			usb_send_in();
			return;
		}
		if ((bRequest == CLEAR_FEATURE || bRequest == SET_FEATURE)
    981e:	8c 2f       	mov	r24, r28
    9820:	8d 7f       	andi	r24, 0xFD	; 253
    9822:	81 30       	cpi	r24, 0x01	; 1
    9824:	09 f0       	breq	.+2      	; 0x9828 <__vector_11+0x2a2>
    9826:	ee ce       	rjmp	.-548    	; 0x9604 <__vector_11+0x7e>
		  && bmRequestType == 0x02 && wValue == 0) {
    9828:	d2 30       	cpi	r29, 0x02	; 2
    982a:	09 f0       	breq	.+2      	; 0x982e <__vector_11+0x2a8>
    982c:	eb ce       	rjmp	.-554    	; 0x9604 <__vector_11+0x7e>
    982e:	ef 28       	or	r14, r15
    9830:	09 f0       	breq	.+2      	; 0x9834 <__vector_11+0x2ae>
    9832:	e8 ce       	rjmp	.-560    	; 0x9604 <__vector_11+0x7e>
			i = wIndex & 0x7F;
    9834:	0f 77       	andi	r16, 0x7F	; 127
			if (i >= 1 && i <= MAX_ENDPOINT) {
    9836:	8f ef       	ldi	r24, 0xFF	; 255
    9838:	80 0f       	add	r24, r16
    983a:	86 30       	cpi	r24, 0x06	; 6
    983c:	08 f0       	brcs	.+2      	; 0x9840 <__vector_11+0x2ba>
    983e:	e2 ce       	rjmp	.-572    	; 0x9604 <__vector_11+0x7e>
{
	while (!(UEINTX & (1<<TXINI))) ;
}
static inline void usb_send_in(void)
{
	UEINTX = ~(1<<TXINI);
    9840:	8e ef       	ldi	r24, 0xFE	; 254
    9842:	80 93 e8 00 	sts	0x00E8, r24	; 0x8000e8 <__TEXT_REGION_LENGTH__+0x7e00e8>
		if ((bRequest == CLEAR_FEATURE || bRequest == SET_FEATURE)
		  && bmRequestType == 0x02 && wValue == 0) {
			i = wIndex & 0x7F;
			if (i >= 1 && i <= MAX_ENDPOINT) {
				usb_send_in();
				UENUM = i;
    9846:	00 93 e9 00 	sts	0x00E9, r16	; 0x8000e9 <__TEXT_REGION_LENGTH__+0x7e00e9>
				if (bRequest == SET_FEATURE) {
    984a:	c3 30       	cpi	r28, 0x03	; 3
    984c:	09 f4       	brne	.+2      	; 0x9850 <__vector_11+0x2ca>
    984e:	da ce       	rjmp	.-588    	; 0x9604 <__vector_11+0x7e>
					UECONX = (1<<STALLRQ)|(1<<EPEN);
				} else {
					UECONX = (1<<STALLRQC)|(1<<RSTDT)|(1<<EPEN);
    9850:	89 e1       	ldi	r24, 0x19	; 25
    9852:	80 93 eb 00 	sts	0x00EB, r24	; 0x8000eb <__TEXT_REGION_LENGTH__+0x7e00eb>
					UERST = (1 << i);
    9856:	81 e0       	ldi	r24, 0x01	; 1
    9858:	90 e0       	ldi	r25, 0x00	; 0
    985a:	01 c0       	rjmp	.+2      	; 0x985e <__vector_11+0x2d8>
    985c:	88 0f       	add	r24, r24
    985e:	0a 95       	dec	r16
    9860:	ea f7       	brpl	.-6      	; 0x985c <__vector_11+0x2d6>
    9862:	4d cf       	rjmp	.-358    	; 0x96fe <__vector_11+0x178>

00009864 <HardwareSerial::available()>:
}

void HardwareSerial::clear()
{
	rx_buffer_head = rx_buffer_tail;
}
    9864:	50 91 29 11 	lds	r21, 0x1129	; 0x801129 <rx_buffer_head>
    9868:	40 91 28 11 	lds	r20, 0x1128	; 0x801128 <rx_buffer_tail>
    986c:	85 2f       	mov	r24, r21
    986e:	90 e0       	ldi	r25, 0x00	; 0
    9870:	24 2f       	mov	r18, r20
    9872:	30 e0       	ldi	r19, 0x00	; 0
    9874:	54 17       	cp	r21, r20
    9876:	18 f0       	brcs	.+6      	; 0x987e <HardwareSerial::available()+0x1a>
    9878:	82 1b       	sub	r24, r18
    987a:	93 0b       	sbc	r25, r19
    987c:	08 95       	ret
    987e:	80 5c       	subi	r24, 0xC0	; 192
    9880:	9f 4f       	sbci	r25, 0xFF	; 255
    9882:	fa cf       	rjmp	.-12     	; 0x9878 <HardwareSerial::available()+0x14>

00009884 <HardwareSerial::availableForWrite()>:
    9884:	50 91 29 11 	lds	r21, 0x1129	; 0x801129 <rx_buffer_head>
    9888:	40 91 28 11 	lds	r20, 0x1128	; 0x801128 <rx_buffer_tail>
    988c:	25 2f       	mov	r18, r21
    988e:	30 e0       	ldi	r19, 0x00	; 0
    9890:	84 2f       	mov	r24, r20
    9892:	90 e0       	ldi	r25, 0x00	; 0
    9894:	82 1b       	sub	r24, r18
    9896:	93 0b       	sbc	r25, r19
    9898:	54 17       	cp	r21, r20
    989a:	10 f0       	brcs	.+4      	; 0x98a0 <HardwareSerial::availableForWrite()+0x1c>
    989c:	87 96       	adiw	r24, 0x27	; 39
    989e:	08 95       	ret
    98a0:	01 97       	sbiw	r24, 0x01	; 1
    98a2:	08 95       	ret

000098a4 <HardwareSerial::peek()>:
    98a4:	80 91 29 11 	lds	r24, 0x1129	; 0x801129 <rx_buffer_head>
    98a8:	e0 91 28 11 	lds	r30, 0x1128	; 0x801128 <rx_buffer_tail>
    98ac:	8e 17       	cp	r24, r30
    98ae:	51 f0       	breq	.+20     	; 0x98c4 <HardwareSerial::peek()+0x20>
    98b0:	ef 5f       	subi	r30, 0xFF	; 255
    98b2:	e0 34       	cpi	r30, 0x40	; 64
    98b4:	08 f0       	brcs	.+2      	; 0x98b8 <HardwareSerial::peek()+0x14>
    98b6:	e0 e0       	ldi	r30, 0x00	; 0
    98b8:	f0 e0       	ldi	r31, 0x00	; 0
    98ba:	e6 5d       	subi	r30, 0xD6	; 214
    98bc:	fe 4e       	sbci	r31, 0xEE	; 238
    98be:	80 81       	ld	r24, Z
    98c0:	90 e0       	ldi	r25, 0x00	; 0
    98c2:	08 95       	ret
    98c4:	8f ef       	ldi	r24, 0xFF	; 255
    98c6:	9f ef       	ldi	r25, 0xFF	; 255
    98c8:	08 95       	ret

000098ca <HardwareSerial::read()>:
    98ca:	90 91 29 11 	lds	r25, 0x1129	; 0x801129 <rx_buffer_head>
    98ce:	80 91 28 11 	lds	r24, 0x1128	; 0x801128 <rx_buffer_tail>
    98d2:	98 17       	cp	r25, r24
    98d4:	79 f0       	breq	.+30     	; 0x98f4 <HardwareSerial::read()+0x2a>
    98d6:	90 91 28 11 	lds	r25, 0x1128	; 0x801128 <rx_buffer_tail>
    98da:	9f 5f       	subi	r25, 0xFF	; 255
    98dc:	90 34       	cpi	r25, 0x40	; 64
    98de:	08 f0       	brcs	.+2      	; 0x98e2 <HardwareSerial::read()+0x18>
    98e0:	90 e0       	ldi	r25, 0x00	; 0
    98e2:	e9 2f       	mov	r30, r25
    98e4:	f0 e0       	ldi	r31, 0x00	; 0
    98e6:	e6 5d       	subi	r30, 0xD6	; 214
    98e8:	fe 4e       	sbci	r31, 0xEE	; 238
    98ea:	80 81       	ld	r24, Z
    98ec:	90 93 28 11 	sts	0x1128, r25	; 0x801128 <rx_buffer_tail>
    98f0:	90 e0       	ldi	r25, 0x00	; 0
    98f2:	08 95       	ret
    98f4:	8f ef       	ldi	r24, 0xFF	; 255
    98f6:	9f ef       	ldi	r25, 0xFF	; 255
    98f8:	08 95       	ret

000098fa <HardwareSerial::flush()>:
    98fa:	80 91 fd 10 	lds	r24, 0x10FD	; 0x8010fd <transmitting>
    98fe:	81 11       	cpse	r24, r1
    9900:	fc cf       	rjmp	.-8      	; 0x98fa <HardwareSerial::flush()>
    9902:	08 95       	ret

00009904 <HardwareSerial::write(unsigned char)>:
    9904:	20 91 c9 00 	lds	r18, 0x00C9	; 0x8000c9 <__TEXT_REGION_LENGTH__+0x7e00c9>
    9908:	23 fd       	sbrc	r18, 3
    990a:	06 c0       	rjmp	.+12     	; 0x9918 <HardwareSerial::write(unsigned char)+0x14>
    990c:	21 e0       	ldi	r18, 0x01	; 1
    990e:	fc 01       	movw	r30, r24
    9910:	22 83       	std	Z+2, r18	; 0x02
    9912:	90 e0       	ldi	r25, 0x00	; 0
    9914:	80 e0       	ldi	r24, 0x00	; 0
    9916:	08 95       	ret
    9918:	80 91 18 01 	lds	r24, 0x0118	; 0x800118 <tx_enable_pin>
    991c:	8f 3f       	cpi	r24, 0xFF	; 255
    991e:	41 f0       	breq	.+16     	; 0x9930 <HardwareSerial::write(unsigned char)+0x2c>
    9920:	80 91 fd 10 	lds	r24, 0x10FD	; 0x8010fd <transmitting>
    9924:	81 11       	cpse	r24, r1
    9926:	04 c0       	rjmp	.+8      	; 0x9930 <HardwareSerial::write(unsigned char)+0x2c>
    9928:	e0 91 18 01 	lds	r30, 0x0118	; 0x800118 <tx_enable_pin>
    992c:	f0 e0       	ldi	r31, 0x00	; 0
    992e:	ee db       	rcall	.-2084   	; 0x910c <_digitalWrite_HIGH>
    9930:	90 91 ff 10 	lds	r25, 0x10FF	; 0x8010ff <tx_buffer_head>
    9934:	80 91 fe 10 	lds	r24, 0x10FE	; 0x8010fe <tx_buffer_tail>
    9938:	98 13       	cpse	r25, r24
    993a:	04 c0       	rjmp	.+8      	; 0x9944 <HardwareSerial::write(unsigned char)+0x40>
    993c:	80 91 c8 00 	lds	r24, 0x00C8	; 0x8000c8 <__TEXT_REGION_LENGTH__+0x7e00c8>
    9940:	85 fd       	sbrc	r24, 5
    9942:	19 c0       	rjmp	.+50     	; 0x9976 <HardwareSerial::write(unsigned char)+0x72>
    9944:	80 91 ff 10 	lds	r24, 0x10FF	; 0x8010ff <tx_buffer_head>
    9948:	8f 5f       	subi	r24, 0xFF	; 255
    994a:	88 32       	cpi	r24, 0x28	; 40
    994c:	f8 f4       	brcc	.+62     	; 0x998c <HardwareSerial::write(unsigned char)+0x88>
    994e:	90 91 fe 10 	lds	r25, 0x10FE	; 0x8010fe <tx_buffer_tail>
    9952:	98 17       	cp	r25, r24
    9954:	e1 f3       	breq	.-8      	; 0x994e <HardwareSerial::write(unsigned char)+0x4a>
    9956:	e8 2f       	mov	r30, r24
    9958:	f0 e0       	ldi	r31, 0x00	; 0
    995a:	e0 50       	subi	r30, 0x00	; 0
    995c:	ff 4e       	sbci	r31, 0xEF	; 239
    995e:	60 83       	st	Z, r22
    9960:	91 e0       	ldi	r25, 0x01	; 1
    9962:	90 93 fd 10 	sts	0x10FD, r25	; 0x8010fd <transmitting>
    9966:	80 93 ff 10 	sts	0x10FF, r24	; 0x8010ff <tx_buffer_head>
    996a:	80 91 c9 00 	lds	r24, 0x00C9	; 0x8000c9 <__TEXT_REGION_LENGTH__+0x7e00c9>
    996e:	80 62       	ori	r24, 0x20	; 32
    9970:	80 93 c9 00 	sts	0x00C9, r24	; 0x8000c9 <__TEXT_REGION_LENGTH__+0x7e00c9>
    9974:	08 c0       	rjmp	.+16     	; 0x9986 <HardwareSerial::write(unsigned char)+0x82>
    9976:	8f b7       	in	r24, 0x3f	; 63
    9978:	f8 94       	cli
    997a:	60 93 ce 00 	sts	0x00CE, r22	; 0x8000ce <__TEXT_REGION_LENGTH__+0x7e00ce>
    997e:	91 e0       	ldi	r25, 0x01	; 1
    9980:	90 93 fd 10 	sts	0x10FD, r25	; 0x8010fd <transmitting>
    9984:	8f bf       	out	0x3f, r24	; 63
    9986:	81 e0       	ldi	r24, 0x01	; 1
    9988:	90 e0       	ldi	r25, 0x00	; 0
    998a:	08 95       	ret
    998c:	80 e0       	ldi	r24, 0x00	; 0
    998e:	df cf       	rjmp	.-66     	; 0x994e <HardwareSerial::write(unsigned char)+0x4a>

00009990 <HardwareSerial::_begin(unsigned int, unsigned char)>:
    9990:	1f 93       	push	r17
    9992:	cf 93       	push	r28
    9994:	df 93       	push	r29
    9996:	eb 01       	movw	r28, r22
    9998:	14 2f       	mov	r17, r20
    999a:	40 93 18 01 	sts	0x0118, r20	; 0x800118 <tx_enable_pin>
    999e:	4f 3f       	cpi	r20, 0xFF	; 255
    99a0:	29 f0       	breq	.+10     	; 0x99ac <HardwareSerial::_begin(unsigned int, unsigned char)+0x1c>
    99a2:	84 2f       	mov	r24, r20
    99a4:	a2 db       	rcall	.-2236   	; 0x90ea <_pinMode_output>
    99a6:	e1 2f       	mov	r30, r17
    99a8:	f0 e0       	ldi	r31, 0x00	; 0
    99aa:	b6 db       	rcall	.-2196   	; 0x9118 <_digitalWrite_LOW>
    99ac:	c0 ff       	sbrs	r28, 0
    99ae:	24 c0       	rjmp	.+72     	; 0x99f8 <HardwareSerial::_begin(unsigned int, unsigned char)+0x68>
    99b0:	c1 30       	cpi	r28, 0x01	; 1
    99b2:	80 e1       	ldi	r24, 0x10	; 16
    99b4:	d8 07       	cpc	r29, r24
    99b6:	00 f5       	brcc	.+64     	; 0x99f8 <HardwareSerial::_begin(unsigned int, unsigned char)+0x68>
    99b8:	82 e0       	ldi	r24, 0x02	; 2
    99ba:	80 93 c8 00 	sts	0x00C8, r24	; 0x8000c8 <__TEXT_REGION_LENGTH__+0x7e00c8>
    99be:	21 97       	sbiw	r28, 0x01	; 1
    99c0:	d0 93 cd 00 	sts	0x00CD, r29	; 0x8000cd <__TEXT_REGION_LENGTH__+0x7e00cd>
    99c4:	c0 93 cc 00 	sts	0x00CC, r28	; 0x8000cc <__TEXT_REGION_LENGTH__+0x7e00cc>
    99c8:	80 91 c9 00 	lds	r24, 0x00C9	; 0x8000c9 <__TEXT_REGION_LENGTH__+0x7e00c9>
    99cc:	83 fd       	sbrc	r24, 3
    99ce:	10 c0       	rjmp	.+32     	; 0x99f0 <HardwareSerial::_begin(unsigned int, unsigned char)+0x60>
    99d0:	10 92 29 11 	sts	0x1129, r1	; 0x801129 <rx_buffer_head>
    99d4:	10 92 28 11 	sts	0x1128, r1	; 0x801128 <rx_buffer_tail>
    99d8:	10 92 ff 10 	sts	0x10FF, r1	; 0x8010ff <tx_buffer_head>
    99dc:	10 92 fe 10 	sts	0x10FE, r1	; 0x8010fe <tx_buffer_tail>
    99e0:	10 92 fd 10 	sts	0x10FD, r1	; 0x8010fd <transmitting>
    99e4:	86 e0       	ldi	r24, 0x06	; 6
    99e6:	80 93 ca 00 	sts	0x00CA, r24	; 0x8000ca <__TEXT_REGION_LENGTH__+0x7e00ca>
    99ea:	88 ed       	ldi	r24, 0xD8	; 216
    99ec:	80 93 c9 00 	sts	0x00C9, r24	; 0x8000c9 <__TEXT_REGION_LENGTH__+0x7e00c9>
    99f0:	df 91       	pop	r29
    99f2:	cf 91       	pop	r28
    99f4:	1f 91       	pop	r17
    99f6:	08 95       	ret
    99f8:	10 92 c8 00 	sts	0x00C8, r1	; 0x8000c8 <__TEXT_REGION_LENGTH__+0x7e00c8>
    99fc:	d6 95       	lsr	r29
    99fe:	c7 95       	ror	r28
    9a00:	de cf       	rjmp	.-68     	; 0x99be <HardwareSerial::_begin(unsigned int, unsigned char)+0x2e>

00009a02 <__vector_25>:
	return 1;
#endif
}

ISR(USART1_RX_vect)
{
    9a02:	1f 92       	push	r1
    9a04:	0f 92       	push	r0
    9a06:	0f b6       	in	r0, 0x3f	; 63
    9a08:	0f 92       	push	r0
    9a0a:	11 24       	eor	r1, r1
    9a0c:	0b b6       	in	r0, 0x3b	; 59
    9a0e:	0f 92       	push	r0
    9a10:	2f 93       	push	r18
    9a12:	8f 93       	push	r24
    9a14:	9f 93       	push	r25
    9a16:	ef 93       	push	r30
    9a18:	ff 93       	push	r31
	uint8_t c, i;

	c = UDR1;
    9a1a:	90 91 ce 00 	lds	r25, 0x00CE	; 0x8000ce <__TEXT_REGION_LENGTH__+0x7e00ce>
	i = rx_buffer_head + 1;
    9a1e:	80 91 29 11 	lds	r24, 0x1129	; 0x801129 <rx_buffer_head>
    9a22:	8f 5f       	subi	r24, 0xFF	; 255
	if (i >= RX_BUFFER_SIZE) i = 0;
    9a24:	80 34       	cpi	r24, 0x40	; 64
    9a26:	08 f0       	brcs	.+2      	; 0x9a2a <__vector_25+0x28>
    9a28:	80 e0       	ldi	r24, 0x00	; 0
	if (i != rx_buffer_tail) {
    9a2a:	20 91 28 11 	lds	r18, 0x1128	; 0x801128 <rx_buffer_tail>
    9a2e:	28 17       	cp	r18, r24
    9a30:	39 f0       	breq	.+14     	; 0x9a40 <__vector_25+0x3e>
		rx_buffer[i] = c;
    9a32:	e8 2f       	mov	r30, r24
    9a34:	f0 e0       	ldi	r31, 0x00	; 0
    9a36:	e6 5d       	subi	r30, 0xD6	; 214
    9a38:	fe 4e       	sbci	r31, 0xEE	; 238
    9a3a:	90 83       	st	Z, r25
		rx_buffer_head = i;
    9a3c:	80 93 29 11 	sts	0x1129, r24	; 0x801129 <rx_buffer_head>
	}
}
    9a40:	ff 91       	pop	r31
    9a42:	ef 91       	pop	r30
    9a44:	9f 91       	pop	r25
    9a46:	8f 91       	pop	r24
    9a48:	2f 91       	pop	r18
    9a4a:	0f 90       	pop	r0
    9a4c:	0b be       	out	0x3b, r0	; 59
    9a4e:	0f 90       	pop	r0
    9a50:	0f be       	out	0x3f, r0	; 63
    9a52:	0f 90       	pop	r0
    9a54:	1f 90       	pop	r1
    9a56:	18 95       	reti

00009a58 <__vector_26>:

ISR(USART1_UDRE_vect)
{
    9a58:	1f 92       	push	r1
    9a5a:	0f 92       	push	r0
    9a5c:	0f b6       	in	r0, 0x3f	; 63
    9a5e:	0f 92       	push	r0
    9a60:	11 24       	eor	r1, r1
    9a62:	0b b6       	in	r0, 0x3b	; 59
    9a64:	0f 92       	push	r0
    9a66:	8f 93       	push	r24
    9a68:	9f 93       	push	r25
    9a6a:	ef 93       	push	r30
    9a6c:	ff 93       	push	r31
	uint8_t i;

	if (tx_buffer_head == tx_buffer_tail) {
    9a6e:	90 91 ff 10 	lds	r25, 0x10FF	; 0x8010ff <tx_buffer_head>
    9a72:	80 91 fe 10 	lds	r24, 0x10FE	; 0x8010fe <tx_buffer_tail>
    9a76:	98 13       	cpse	r25, r24
    9a78:	10 c0       	rjmp	.+32     	; 0x9a9a <__vector_26+0x42>
		// buffer is empty, disable transmit interrupt
		//UCSR1B = (1<<RXEN1) | (1<<TXCIE1) | (1<<TXEN1) | (1<<RXCIE1);
		cbi(UCSR1B, UDRIE1);
    9a7a:	80 91 c9 00 	lds	r24, 0x00C9	; 0x8000c9 <__TEXT_REGION_LENGTH__+0x7e00c9>
    9a7e:	8f 7d       	andi	r24, 0xDF	; 223
    9a80:	80 93 c9 00 	sts	0x00C9, r24	; 0x8000c9 <__TEXT_REGION_LENGTH__+0x7e00c9>
		i = tx_buffer_tail + 1;
		if (i >= TX_BUFFER_SIZE) i = 0;
		UDR1 = tx_buffer[i];
		tx_buffer_tail = i;
	}
}
    9a84:	ff 91       	pop	r31
    9a86:	ef 91       	pop	r30
    9a88:	9f 91       	pop	r25
    9a8a:	8f 91       	pop	r24
    9a8c:	0f 90       	pop	r0
    9a8e:	0b be       	out	0x3b, r0	; 59
    9a90:	0f 90       	pop	r0
    9a92:	0f be       	out	0x3f, r0	; 63
    9a94:	0f 90       	pop	r0
    9a96:	1f 90       	pop	r1
    9a98:	18 95       	reti
	if (tx_buffer_head == tx_buffer_tail) {
		// buffer is empty, disable transmit interrupt
		//UCSR1B = (1<<RXEN1) | (1<<TXCIE1) | (1<<TXEN1) | (1<<RXCIE1);
		cbi(UCSR1B, UDRIE1);
	} else {
		i = tx_buffer_tail + 1;
    9a9a:	80 91 fe 10 	lds	r24, 0x10FE	; 0x8010fe <tx_buffer_tail>
    9a9e:	8f 5f       	subi	r24, 0xFF	; 255
		if (i >= TX_BUFFER_SIZE) i = 0;
    9aa0:	88 32       	cpi	r24, 0x28	; 40
    9aa2:	08 f0       	brcs	.+2      	; 0x9aa6 <__vector_26+0x4e>
    9aa4:	80 e0       	ldi	r24, 0x00	; 0
		UDR1 = tx_buffer[i];
    9aa6:	e8 2f       	mov	r30, r24
    9aa8:	f0 e0       	ldi	r31, 0x00	; 0
    9aaa:	e0 50       	subi	r30, 0x00	; 0
    9aac:	ff 4e       	sbci	r31, 0xEF	; 239
    9aae:	90 81       	ld	r25, Z
    9ab0:	90 93 ce 00 	sts	0x00CE, r25	; 0x8000ce <__TEXT_REGION_LENGTH__+0x7e00ce>
		tx_buffer_tail = i;
    9ab4:	80 93 fe 10 	sts	0x10FE, r24	; 0x8010fe <tx_buffer_tail>
	}
}
    9ab8:	e5 cf       	rjmp	.-54     	; 0x9a84 <__vector_26+0x2c>

00009aba <__vector_27>:

ISR(USART1_TX_vect)
{
    9aba:	1f 92       	push	r1
    9abc:	0f 92       	push	r0
    9abe:	0f b6       	in	r0, 0x3f	; 63
    9ac0:	0f 92       	push	r0
    9ac2:	11 24       	eor	r1, r1
    9ac4:	0b b6       	in	r0, 0x3b	; 59
    9ac6:	0f 92       	push	r0
    9ac8:	8f 93       	push	r24
    9aca:	ef 93       	push	r30
    9acc:	ff 93       	push	r31
	transmitting = 0;
    9ace:	10 92 fd 10 	sts	0x10FD, r1	; 0x8010fd <transmitting>
	if (tx_enable_pin < 255) {
    9ad2:	80 91 18 01 	lds	r24, 0x0118	; 0x800118 <tx_enable_pin>
    9ad6:	8f 3f       	cpi	r24, 0xFF	; 255
    9ad8:	21 f0       	breq	.+8      	; 0x9ae2 <__vector_27+0x28>
		digitalWrite(tx_enable_pin, LOW);
    9ada:	e0 91 18 01 	lds	r30, 0x0118	; 0x800118 <tx_enable_pin>
					#endif
					: "+z" (tmp)
					: "I" (CORE_NUM_TOTAL_PINS)
				);
			} else {
				uint16_t tmp = (pin);
    9ade:	f0 e0       	ldi	r31, 0x00	; 0
					#else
					"call _digitalWrite_LOW"
					#endif
					: "+z" (tmp)
					: "I" (CORE_NUM_TOTAL_PINS)
				);
    9ae0:	1b db       	rcall	.-2506   	; 0x9118 <_digitalWrite_LOW>
	}
}
    9ae2:	ff 91       	pop	r31
    9ae4:	ef 91       	pop	r30
    9ae6:	8f 91       	pop	r24
    9ae8:	0f 90       	pop	r0
    9aea:	0b be       	out	0x3b, r0	; 59
    9aec:	0f 90       	pop	r0
    9aee:	0f be       	out	0x3f, r0	; 63
    9af0:	0f 90       	pop	r0
    9af2:	1f 90       	pop	r1
    9af4:	18 95       	reti

00009af6 <_GLOBAL__sub_I__ZN14HardwareSerial6_beginEjh>:
class __FlashStringHelper;

class Print
{
  public:
	constexpr Print() : write_error(0) {}
    9af6:	e5 ef       	ldi	r30, 0xF5	; 245
    9af8:	f0 e1       	ldi	r31, 0x10	; 16
    9afa:	12 82       	std	Z+2, r1	; 0x02
#include "Print.h"

class Stream : public Print
{
  public:
	Stream() : _timeout(1000), read_error(0) {}
    9afc:	88 ee       	ldi	r24, 0xE8	; 232
    9afe:	93 e0       	ldi	r25, 0x03	; 3
    9b00:	a0 e0       	ldi	r26, 0x00	; 0
    9b02:	b0 e0       	ldi	r27, 0x00	; 0
    9b04:	83 83       	std	Z+3, r24	; 0x03
    9b06:	94 83       	std	Z+4, r25	; 0x04
    9b08:	a5 83       	std	Z+5, r26	; 0x05
    9b0a:	b6 83       	std	Z+6, r27	; 0x06
    9b0c:	17 82       	std	Z+7, r1	; 0x07
#define HardwareSerial_h

#include <inttypes.h>
#include "Stream.h"

class HardwareSerial : public Stream
    9b0e:	82 ec       	ldi	r24, 0xC2	; 194
    9b10:	99 e0       	ldi	r25, 0x09	; 9
    9b12:	91 83       	std	Z+1, r25	; 0x01
    9b14:	80 83       	st	Z, r24

// Preinstantiate Objects //////////////////////////////////////////////////////

HardwareSerial Serial1;
    9b16:	08 95       	ret

00009b18 <main>:
#include <WProgram.h>

//int main(void) __attribute__((noreturn));
int main(void)
{
	_init_Teensyduino_internal_();
    9b18:	9a da       	rcall	.-2764   	; 0x904e <_init_Teensyduino_internal_>

	setup();
    9b1a:	0e 94 38 1c 	call	0x3870	; 0x3870 <setup>
    
	while (1) {
		loop();
    9b1e:	0e 94 77 36 	call	0x6cee	; 0x6cee <loop>
    9b22:	fd cf       	rjmp	.-6      	; 0x9b1e <main+0x6>

00009b24 <operator new(unsigned int)>:
  free(ptr);
}

int __cxa_guard_acquire(__guard *g) {return !*(char *)(g);};
void __cxa_guard_release (__guard *g) {*(char *)g = 1;};
void __cxa_guard_abort (__guard *) {}; 
    9b24:	73 c8       	rjmp	.-3866   	; 0x8c0c <malloc>

00009b26 <__cxa_guard_acquire>:
    9b26:	fc 01       	movw	r30, r24
    9b28:	81 e0       	ldi	r24, 0x01	; 1
    9b2a:	90 e0       	ldi	r25, 0x00	; 0
    9b2c:	20 81       	ld	r18, Z
    9b2e:	22 23       	and	r18, r18
    9b30:	11 f0       	breq	.+4      	; 0x9b36 <__cxa_guard_acquire+0x10>
    9b32:	90 e0       	ldi	r25, 0x00	; 0
    9b34:	80 e0       	ldi	r24, 0x00	; 0
    9b36:	08 95       	ret

00009b38 <__cxa_guard_release>:
    9b38:	21 e0       	ldi	r18, 0x01	; 1
    9b3a:	fc 01       	movw	r30, r24
    9b3c:	20 83       	st	Z, r18
    9b3e:	08 95       	ret

00009b40 <__cxa_pure_virtual>:

void __cxa_pure_virtual(void) {};
    9b40:	08 95       	ret

00009b42 <Print::write(unsigned char const*, unsigned int)>:

	fdev_setup_stream(&f, printf_putchar, NULL, _FDEV_SETUP_WRITE);
	fdev_set_udata(&f, this);
	va_start(ap, format);
	return vfprintf_P(&f, (const char *)format, ap);
}
    9b42:	cf 92       	push	r12
    9b44:	df 92       	push	r13
    9b46:	ef 92       	push	r14
    9b48:	ff 92       	push	r15
    9b4a:	0f 93       	push	r16
    9b4c:	1f 93       	push	r17
    9b4e:	cf 93       	push	r28
    9b50:	df 93       	push	r29
    9b52:	6c 01       	movw	r12, r24
    9b54:	eb 01       	movw	r28, r22
    9b56:	7b 01       	movw	r14, r22
    9b58:	e4 0e       	add	r14, r20
    9b5a:	f5 1e       	adc	r15, r21
    9b5c:	10 e0       	ldi	r17, 0x00	; 0
    9b5e:	00 e0       	ldi	r16, 0x00	; 0
    9b60:	ce 15       	cp	r28, r14
    9b62:	df 05       	cpc	r29, r15
    9b64:	61 f0       	breq	.+24     	; 0x9b7e <Print::write(unsigned char const*, unsigned int)+0x3c>
    9b66:	69 91       	ld	r22, Y+
    9b68:	d6 01       	movw	r26, r12
    9b6a:	ed 91       	ld	r30, X+
    9b6c:	fc 91       	ld	r31, X
    9b6e:	01 90       	ld	r0, Z+
    9b70:	f0 81       	ld	r31, Z
    9b72:	e0 2d       	mov	r30, r0
    9b74:	c6 01       	movw	r24, r12
    9b76:	09 95       	icall
    9b78:	08 0f       	add	r16, r24
    9b7a:	19 1f       	adc	r17, r25
    9b7c:	f1 cf       	rjmp	.-30     	; 0x9b60 <Print::write(unsigned char const*, unsigned int)+0x1e>
    9b7e:	c8 01       	movw	r24, r16
    9b80:	df 91       	pop	r29
    9b82:	cf 91       	pop	r28
    9b84:	1f 91       	pop	r17
    9b86:	0f 91       	pop	r16
    9b88:	ff 90       	pop	r15
    9b8a:	ef 90       	pop	r14
    9b8c:	df 90       	pop	r13
    9b8e:	cf 90       	pop	r12
    9b90:	08 95       	ret

00009b92 <Print::print(String const&)>:
    9b92:	8f 92       	push	r8
    9b94:	9f 92       	push	r9
    9b96:	af 92       	push	r10
    9b98:	bf 92       	push	r11
    9b9a:	cf 92       	push	r12
    9b9c:	df 92       	push	r13
    9b9e:	ef 92       	push	r14
    9ba0:	ff 92       	push	r15
    9ba2:	0f 93       	push	r16
    9ba4:	1f 93       	push	r17
    9ba6:	cf 93       	push	r28
    9ba8:	df 93       	push	r29
    9baa:	cd b7       	in	r28, 0x3d	; 61
    9bac:	de b7       	in	r29, 0x3e	; 62
    9bae:	a1 97       	sbiw	r28, 0x21	; 33
    9bb0:	0f b6       	in	r0, 0x3f	; 63
    9bb2:	f8 94       	cli
    9bb4:	de bf       	out	0x3e, r29	; 62
    9bb6:	0f be       	out	0x3f, r0	; 63
    9bb8:	cd bf       	out	0x3d, r28	; 61
    9bba:	5c 01       	movw	r10, r24
    9bbc:	4b 01       	movw	r8, r22
    9bbe:	db 01       	movw	r26, r22
    9bc0:	14 96       	adiw	r26, 0x04	; 4
    9bc2:	0d 91       	ld	r16, X+
    9bc4:	1c 91       	ld	r17, X
    9bc6:	d1 2c       	mov	r13, r1
    9bc8:	c1 2c       	mov	r12, r1
    9bca:	f1 2c       	mov	r15, r1
    9bcc:	e1 2c       	mov	r14, r1
    9bce:	01 15       	cp	r16, r1
    9bd0:	11 05       	cpc	r17, r1
    9bd2:	01 f1       	breq	.+64     	; 0x9c14 <Print::print(String const&)+0x82>
    9bd4:	96 01       	movw	r18, r12
    9bd6:	41 e2       	ldi	r20, 0x21	; 33
    9bd8:	50 e0       	ldi	r21, 0x00	; 0
    9bda:	be 01       	movw	r22, r28
    9bdc:	6f 5f       	subi	r22, 0xFF	; 255
    9bde:	7f 4f       	sbci	r23, 0xFF	; 255
    9be0:	c4 01       	movw	r24, r8
    9be2:	53 d3       	rcall	.+1702   	; 0xa28a <String::getBytes(unsigned char*, unsigned int, unsigned int) const>
    9be4:	a8 01       	movw	r20, r16
    9be6:	01 32       	cpi	r16, 0x21	; 33
    9be8:	11 05       	cpc	r17, r1
    9bea:	10 f0       	brcs	.+4      	; 0x9bf0 <Print::print(String const&)+0x5e>
    9bec:	40 e2       	ldi	r20, 0x20	; 32
    9bee:	50 e0       	ldi	r21, 0x00	; 0
    9bf0:	c4 0e       	add	r12, r20
    9bf2:	d5 1e       	adc	r13, r21
    9bf4:	04 1b       	sub	r16, r20
    9bf6:	15 0b       	sbc	r17, r21
    9bf8:	d5 01       	movw	r26, r10
    9bfa:	ed 91       	ld	r30, X+
    9bfc:	fc 91       	ld	r31, X
    9bfe:	02 80       	ldd	r0, Z+2	; 0x02
    9c00:	f3 81       	ldd	r31, Z+3	; 0x03
    9c02:	e0 2d       	mov	r30, r0
    9c04:	be 01       	movw	r22, r28
    9c06:	6f 5f       	subi	r22, 0xFF	; 255
    9c08:	7f 4f       	sbci	r23, 0xFF	; 255
    9c0a:	c5 01       	movw	r24, r10
    9c0c:	09 95       	icall
    9c0e:	e8 0e       	add	r14, r24
    9c10:	f9 1e       	adc	r15, r25
    9c12:	dd cf       	rjmp	.-70     	; 0x9bce <Print::print(String const&)+0x3c>
    9c14:	c7 01       	movw	r24, r14
    9c16:	a1 96       	adiw	r28, 0x21	; 33
    9c18:	0f b6       	in	r0, 0x3f	; 63
    9c1a:	f8 94       	cli
    9c1c:	de bf       	out	0x3e, r29	; 62
    9c1e:	0f be       	out	0x3f, r0	; 63
    9c20:	cd bf       	out	0x3d, r28	; 61
    9c22:	df 91       	pop	r29
    9c24:	cf 91       	pop	r28
    9c26:	1f 91       	pop	r17
    9c28:	0f 91       	pop	r16
    9c2a:	ff 90       	pop	r15
    9c2c:	ef 90       	pop	r14
    9c2e:	df 90       	pop	r13
    9c30:	cf 90       	pop	r12
    9c32:	bf 90       	pop	r11
    9c34:	af 90       	pop	r10
    9c36:	9f 90       	pop	r9
    9c38:	8f 90       	pop	r8
    9c3a:	08 95       	ret

00009c3c <Print::println()>:
    9c3c:	cf 93       	push	r28
    9c3e:	df 93       	push	r29
    9c40:	00 d0       	rcall	.+0      	; 0x9c42 <Print::println()+0x6>
    9c42:	cd b7       	in	r28, 0x3d	; 61
    9c44:	de b7       	in	r29, 0x3e	; 62
    9c46:	2d e0       	ldi	r18, 0x0D	; 13
    9c48:	29 83       	std	Y+1, r18	; 0x01
    9c4a:	2a e0       	ldi	r18, 0x0A	; 10
    9c4c:	2a 83       	std	Y+2, r18	; 0x02
    9c4e:	dc 01       	movw	r26, r24
    9c50:	ed 91       	ld	r30, X+
    9c52:	fc 91       	ld	r31, X
    9c54:	02 80       	ldd	r0, Z+2	; 0x02
    9c56:	f3 81       	ldd	r31, Z+3	; 0x03
    9c58:	e0 2d       	mov	r30, r0
    9c5a:	42 e0       	ldi	r20, 0x02	; 2
    9c5c:	50 e0       	ldi	r21, 0x00	; 0
    9c5e:	be 01       	movw	r22, r28
    9c60:	6f 5f       	subi	r22, 0xFF	; 255
    9c62:	7f 4f       	sbci	r23, 0xFF	; 255
    9c64:	09 95       	icall
    9c66:	0f 90       	pop	r0
    9c68:	0f 90       	pop	r0
    9c6a:	df 91       	pop	r29
    9c6c:	cf 91       	pop	r28
    9c6e:	08 95       	ret

00009c70 <Print::printNumberDec(unsigned long, unsigned char)>:
uint32_t usec_print = 0;
#endif


size_t Print::printNumberDec(unsigned long n, uint8_t sign)
{
    9c70:	cf 93       	push	r28
    9c72:	df 93       	push	r29
    9c74:	cd b7       	in	r28, 0x3d	; 61
    9c76:	de b7       	in	r29, 0x3e	; 62
    9c78:	2b 97       	sbiw	r28, 0x0b	; 11
    9c7a:	0f b6       	in	r0, 0x3f	; 63
    9c7c:	f8 94       	cli
    9c7e:	de bf       	out	0x3e, r29	; 62
    9c80:	0f be       	out	0x3f, r0	; 63
    9c82:	cd bf       	out	0x3d, r28	; 61
#endif

#ifdef USE_BENCHMARK_CODE
	uint32_t usec = micros();
#endif
	p = buf + (sizeof(buf));
    9c84:	fe 01       	movw	r30, r28
    9c86:	3c 96       	adiw	r30, 0x0c	; 12
	do {
		#if defined(USE_HACKER_DELIGHT_OPTIMIZATION)
		divmod10_asm(n, tmp32, digit);
		#elif defined(USE_STIMMER_OPTIMIZATION)
		divmod10_asm(n, digit, tmp8);
    9c88:	a3 e3       	ldi	r26, 0x33	; 51
    9c8a:	4a 9f       	mul	r20, r26
    9c8c:	44 27       	eor	r20, r20
    9c8e:	0a 0e       	add	r0, r26
    9c90:	41 1d       	adc	r20, r1
    9c92:	30 2d       	mov	r19, r0
    9c94:	5a 9f       	mul	r21, r26
    9c96:	55 27       	eor	r21, r21
    9c98:	40 0d       	add	r20, r0
    9c9a:	51 1d       	adc	r21, r1
    9c9c:	6a 9f       	mul	r22, r26
    9c9e:	66 27       	eor	r22, r22
    9ca0:	50 0d       	add	r21, r0
    9ca2:	61 1d       	adc	r22, r1
    9ca4:	7a 9f       	mul	r23, r26
    9ca6:	77 27       	eor	r23, r23
    9ca8:	60 0d       	add	r22, r0
    9caa:	71 1d       	adc	r23, r1
    9cac:	11 24       	eor	r1, r1
    9cae:	34 0f       	add	r19, r20
    9cb0:	45 1f       	adc	r20, r21
    9cb2:	56 1f       	adc	r21, r22
    9cb4:	67 1f       	adc	r22, r23
    9cb6:	71 1d       	adc	r23, r1
    9cb8:	35 0f       	add	r19, r21
    9cba:	46 1f       	adc	r20, r22
    9cbc:	57 1f       	adc	r21, r23
    9cbe:	61 1d       	adc	r22, r1
    9cc0:	71 1d       	adc	r23, r1
    9cc2:	37 0f       	add	r19, r23
    9cc4:	41 1d       	adc	r20, r1
    9cc6:	51 1d       	adc	r21, r1
    9cc8:	61 1d       	adc	r22, r1
    9cca:	71 1d       	adc	r23, r1
    9ccc:	76 95       	lsr	r23
    9cce:	67 95       	ror	r22
    9cd0:	57 95       	ror	r21
    9cd2:	47 95       	ror	r20
    9cd4:	37 95       	ror	r19
    9cd6:	aa e0       	ldi	r26, 0x0A	; 10
    9cd8:	3a 9f       	mul	r19, r26
    9cda:	31 2d       	mov	r19, r1
    9cdc:	11 24       	eor	r1, r1
		#else
		tmp32 = n;
		n = n / 10;
		digit = tmp32 - n * 10;
		#endif
		*--p = digit + '0';
    9cde:	df 01       	movw	r26, r30
    9ce0:	30 5d       	subi	r19, 0xD0	; 208
    9ce2:	3e 93       	st	-X, r19
	} while (n);
    9ce4:	41 15       	cp	r20, r1
    9ce6:	51 05       	cpc	r21, r1
    9ce8:	61 05       	cpc	r22, r1
    9cea:	71 05       	cpc	r23, r1
    9cec:	09 f5       	brne	.+66     	; 0x9d30 <Print::printNumberDec(unsigned long, unsigned char)+0xc0>
	if (sign) *--p = '-';
    9cee:	22 23       	and	r18, r18
    9cf0:	41 f0       	breq	.+16     	; 0x9d02 <Print::printNumberDec(unsigned long, unsigned char)+0x92>
    9cf2:	bd 01       	movw	r22, r26
    9cf4:	61 50       	subi	r22, 0x01	; 1
    9cf6:	71 09       	sbc	r23, r1
    9cf8:	2d e2       	ldi	r18, 0x2D	; 45
    9cfa:	db 01       	movw	r26, r22
    9cfc:	2c 93       	st	X, r18
    9cfe:	df 01       	movw	r26, r30
    9d00:	12 97       	sbiw	r26, 0x02	; 2
#ifdef USE_BENCHMARK_CODE
	usec_print += micros() - usec;
#endif
	return write(p, sizeof(buf) - (p - buf));
    9d02:	ae 01       	movw	r20, r28
    9d04:	4a 1b       	sub	r20, r26
    9d06:	5b 0b       	sbc	r21, r27
    9d08:	44 5f       	subi	r20, 0xF4	; 244
    9d0a:	5f 4f       	sbci	r21, 0xFF	; 255
    9d0c:	fc 01       	movw	r30, r24
    9d0e:	20 81       	ld	r18, Z
    9d10:	31 81       	ldd	r19, Z+1	; 0x01
    9d12:	f9 01       	movw	r30, r18
    9d14:	22 81       	ldd	r18, Z+2	; 0x02
    9d16:	33 81       	ldd	r19, Z+3	; 0x03
    9d18:	bd 01       	movw	r22, r26
    9d1a:	f9 01       	movw	r30, r18
    9d1c:	09 95       	icall
}
    9d1e:	2b 96       	adiw	r28, 0x0b	; 11
    9d20:	0f b6       	in	r0, 0x3f	; 63
    9d22:	f8 94       	cli
    9d24:	de bf       	out	0x3e, r29	; 62
    9d26:	0f be       	out	0x3f, r0	; 63
    9d28:	cd bf       	out	0x3d, r28	; 61
    9d2a:	df 91       	pop	r29
    9d2c:	cf 91       	pop	r28
    9d2e:	08 95       	ret
		#else
		tmp32 = n;
		n = n / 10;
		digit = tmp32 - n * 10;
		#endif
		*--p = digit + '0';
    9d30:	fd 01       	movw	r30, r26
    9d32:	aa cf       	rjmp	.-172    	; 0x9c88 <Print::printNumberDec(unsigned long, unsigned char)+0x18>

00009d34 <usb_serial_class::write(unsigned char)>:
	if (usb_configuration &&
	  (cdc_line_rtsdtr & (USB_SERIAL_DTR | USB_SERIAL_RTS))) {
		return true;
	}
	return false;
}
    9d34:	cf 93       	push	r28
    9d36:	df 93       	push	r29
    9d38:	1f 92       	push	r1
    9d3a:	cd b7       	in	r28, 0x3d	; 61
    9d3c:	de b7       	in	r29, 0x3e	; 62
    9d3e:	69 83       	std	Y+1, r22	; 0x01
    9d40:	dc 01       	movw	r26, r24
    9d42:	ed 91       	ld	r30, X+
    9d44:	fc 91       	ld	r31, X
    9d46:	02 80       	ldd	r0, Z+2	; 0x02
    9d48:	f3 81       	ldd	r31, Z+3	; 0x03
    9d4a:	e0 2d       	mov	r30, r0
    9d4c:	41 e0       	ldi	r20, 0x01	; 1
    9d4e:	50 e0       	ldi	r21, 0x00	; 0
    9d50:	be 01       	movw	r22, r28
    9d52:	6f 5f       	subi	r22, 0xFF	; 255
    9d54:	7f 4f       	sbci	r23, 0xFF	; 255
    9d56:	09 95       	icall
    9d58:	0f 90       	pop	r0
    9d5a:	df 91       	pop	r29
    9d5c:	cf 91       	pop	r28
    9d5e:	08 95       	ret

00009d60 <usb_serial_class::available()>:
    9d60:	fc 01       	movw	r30, r24
    9d62:	8f b7       	in	r24, 0x3f	; 63
    9d64:	f8 94       	cli
    9d66:	90 91 78 11 	lds	r25, 0x1178	; 0x801178 <usb_configuration>
    9d6a:	91 11       	cpse	r25, r1
    9d6c:	0c c0       	rjmp	.+24     	; 0x9d86 <usb_serial_class::available()+0x26>
    9d6e:	90 e0       	ldi	r25, 0x00	; 0
    9d70:	8f bf       	out	0x3f, r24	; 63
    9d72:	20 85       	ldd	r18, Z+8	; 0x08
    9d74:	31 85       	ldd	r19, Z+9	; 0x09
    9d76:	37 fd       	sbrc	r19, 7
    9d78:	03 c0       	rjmp	.+6      	; 0x9d80 <usb_serial_class::available()+0x20>
    9d7a:	9f 3f       	cpi	r25, 0xFF	; 255
    9d7c:	09 f0       	breq	.+2      	; 0x9d80 <usb_serial_class::available()+0x20>
    9d7e:	9f 5f       	subi	r25, 0xFF	; 255
    9d80:	89 2f       	mov	r24, r25
    9d82:	90 e0       	ldi	r25, 0x00	; 0
    9d84:	08 95       	ret
    9d86:	93 e0       	ldi	r25, 0x03	; 3
    9d88:	90 93 e9 00 	sts	0x00E9, r25	; 0x8000e9 <__TEXT_REGION_LENGTH__+0x7e00e9>
    9d8c:	90 91 f2 00 	lds	r25, 0x00F2	; 0x8000f2 <__TEXT_REGION_LENGTH__+0x7e00f2>
    9d90:	91 11       	cpse	r25, r1
    9d92:	ee cf       	rjmp	.-36     	; 0x9d70 <usb_serial_class::available()+0x10>
    9d94:	20 91 e8 00 	lds	r18, 0x00E8	; 0x8000e8 <__TEXT_REGION_LENGTH__+0x7e00e8>
    9d98:	22 ff       	sbrs	r18, 2
    9d9a:	e9 cf       	rjmp	.-46     	; 0x9d6e <usb_serial_class::available()+0xe>
    9d9c:	25 fd       	sbrc	r18, 5
    9d9e:	e7 cf       	rjmp	.-50     	; 0x9d6e <usb_serial_class::available()+0xe>
    9da0:	2b e6       	ldi	r18, 0x6B	; 107
    9da2:	20 93 e8 00 	sts	0x00E8, r18	; 0x8000e8 <__TEXT_REGION_LENGTH__+0x7e00e8>
    9da6:	e4 cf       	rjmp	.-56     	; 0x9d70 <usb_serial_class::available()+0x10>

00009da8 <usb_serial_class::peek()>:
    9da8:	cf 93       	push	r28
    9daa:	df 93       	push	r29
    9dac:	ec 01       	movw	r28, r24
    9dae:	88 85       	ldd	r24, Y+8	; 0x08
    9db0:	99 85       	ldd	r25, Y+9	; 0x09
    9db2:	97 ff       	sbrs	r25, 7
    9db4:	09 c0       	rjmp	.+18     	; 0x9dc8 <usb_serial_class::peek()+0x20>
    9db6:	e8 81       	ld	r30, Y
    9db8:	f9 81       	ldd	r31, Y+1	; 0x01
    9dba:	02 84       	ldd	r0, Z+10	; 0x0a
    9dbc:	f3 85       	ldd	r31, Z+11	; 0x0b
    9dbe:	e0 2d       	mov	r30, r0
    9dc0:	ce 01       	movw	r24, r28
    9dc2:	09 95       	icall
    9dc4:	99 87       	std	Y+9, r25	; 0x09
    9dc6:	88 87       	std	Y+8, r24	; 0x08
    9dc8:	88 85       	ldd	r24, Y+8	; 0x08
    9dca:	99 85       	ldd	r25, Y+9	; 0x09
    9dcc:	df 91       	pop	r29
    9dce:	cf 91       	pop	r28
    9dd0:	08 95       	ret

00009dd2 <usb_serial_class::read()>:
    9dd2:	fc 01       	movw	r30, r24
    9dd4:	20 85       	ldd	r18, Z+8	; 0x08
    9dd6:	31 85       	ldd	r19, Z+9	; 0x09
    9dd8:	37 fd       	sbrc	r19, 7
    9dda:	07 c0       	rjmp	.+14     	; 0x9dea <usb_serial_class::read()+0x18>
    9ddc:	4f ef       	ldi	r20, 0xFF	; 255
    9dde:	5f ef       	ldi	r21, 0xFF	; 255
    9de0:	51 87       	std	Z+9, r21	; 0x09
    9de2:	40 87       	std	Z+8, r20	; 0x08
    9de4:	c9 01       	movw	r24, r18
    9de6:	99 27       	eor	r25, r25
    9de8:	08 95       	ret
    9dea:	9f b7       	in	r25, 0x3f	; 63
    9dec:	f8 94       	cli
    9dee:	80 91 78 11 	lds	r24, 0x1178	; 0x801178 <usb_configuration>
    9df2:	81 11       	cpse	r24, r1
    9df4:	04 c0       	rjmp	.+8      	; 0x9dfe <usb_serial_class::read()+0x2c>
    9df6:	9f bf       	out	0x3f, r25	; 63
    9df8:	8f ef       	ldi	r24, 0xFF	; 255
    9dfa:	9f ef       	ldi	r25, 0xFF	; 255
    9dfc:	08 95       	ret
    9dfe:	83 e0       	ldi	r24, 0x03	; 3
    9e00:	80 93 e9 00 	sts	0x00E9, r24	; 0x8000e9 <__TEXT_REGION_LENGTH__+0x7e00e9>
    9e04:	2b e6       	ldi	r18, 0x6B	; 107
    9e06:	80 91 e8 00 	lds	r24, 0x00E8	; 0x8000e8 <__TEXT_REGION_LENGTH__+0x7e00e8>
    9e0a:	85 fd       	sbrc	r24, 5
    9e0c:	05 c0       	rjmp	.+10     	; 0x9e18 <usb_serial_class::read()+0x46>
    9e0e:	82 ff       	sbrs	r24, 2
    9e10:	f2 cf       	rjmp	.-28     	; 0x9df6 <usb_serial_class::read()+0x24>
    9e12:	20 93 e8 00 	sts	0x00E8, r18	; 0x8000e8 <__TEXT_REGION_LENGTH__+0x7e00e8>
    9e16:	f7 cf       	rjmp	.-18     	; 0x9e06 <usb_serial_class::read()+0x34>
    9e18:	80 91 f1 00 	lds	r24, 0x00F1	; 0x8000f1 <__TEXT_REGION_LENGTH__+0x7e00f1>
    9e1c:	20 91 e8 00 	lds	r18, 0x00E8	; 0x8000e8 <__TEXT_REGION_LENGTH__+0x7e00e8>
    9e20:	25 fd       	sbrc	r18, 5
    9e22:	03 c0       	rjmp	.+6      	; 0x9e2a <usb_serial_class::read()+0x58>
    9e24:	2b e6       	ldi	r18, 0x6B	; 107
    9e26:	20 93 e8 00 	sts	0x00E8, r18	; 0x8000e8 <__TEXT_REGION_LENGTH__+0x7e00e8>
    9e2a:	9f bf       	out	0x3f, r25	; 63
    9e2c:	90 e0       	ldi	r25, 0x00	; 0
    9e2e:	08 95       	ret

00009e30 <usb_serial_class::availableForWrite()>:
    9e30:	80 91 78 11 	lds	r24, 0x1178	; 0x801178 <usb_configuration>
    9e34:	88 23       	and	r24, r24
    9e36:	61 f0       	breq	.+24     	; 0x9e50 <usb_serial_class::availableForWrite()+0x20>
    9e38:	8f b7       	in	r24, 0x3f	; 63
    9e3a:	f8 94       	cli
    9e3c:	94 e0       	ldi	r25, 0x04	; 4
    9e3e:	90 93 e9 00 	sts	0x00E9, r25	; 0x8000e9 <__TEXT_REGION_LENGTH__+0x7e00e9>
    9e42:	90 91 f2 00 	lds	r25, 0x00F2	; 0x8000f2 <__TEXT_REGION_LENGTH__+0x7e00f2>
    9e46:	8f bf       	out	0x3f, r24	; 63
    9e48:	80 e4       	ldi	r24, 0x40	; 64
    9e4a:	89 1b       	sub	r24, r25
    9e4c:	90 e0       	ldi	r25, 0x00	; 0
    9e4e:	08 95       	ret
    9e50:	90 e0       	ldi	r25, 0x00	; 0
    9e52:	80 e0       	ldi	r24, 0x00	; 0
    9e54:	08 95       	ret

00009e56 <usb_serial_class::write(unsigned char const*, unsigned int)>:
    9e56:	bf 92       	push	r11
    9e58:	cf 92       	push	r12
    9e5a:	df 92       	push	r13
    9e5c:	ef 92       	push	r14
    9e5e:	ff 92       	push	r15
    9e60:	0f 93       	push	r16
    9e62:	1f 93       	push	r17
    9e64:	cf 93       	push	r28
    9e66:	df 93       	push	r29
    9e68:	7c 01       	movw	r14, r24
    9e6a:	80 91 78 11 	lds	r24, 0x1178	; 0x801178 <usb_configuration>
    9e6e:	81 11       	cpse	r24, r1
    9e70:	10 c0       	rjmp	.+32     	; 0x9e92 <usb_serial_class::write(unsigned char const*, unsigned int)+0x3c>
    9e72:	81 e0       	ldi	r24, 0x01	; 1
    9e74:	f7 01       	movw	r30, r14
    9e76:	82 83       	std	Z+2, r24	; 0x02
    9e78:	10 e0       	ldi	r17, 0x00	; 0
    9e7a:	00 e0       	ldi	r16, 0x00	; 0
    9e7c:	c8 01       	movw	r24, r16
    9e7e:	df 91       	pop	r29
    9e80:	cf 91       	pop	r28
    9e82:	1f 91       	pop	r17
    9e84:	0f 91       	pop	r16
    9e86:	ff 90       	pop	r15
    9e88:	ef 90       	pop	r14
    9e8a:	df 90       	pop	r13
    9e8c:	cf 90       	pop	r12
    9e8e:	bf 90       	pop	r11
    9e90:	08 95       	ret
    9e92:	2f b7       	in	r18, 0x3f	; 63
    9e94:	f8 94       	cli
    9e96:	84 e0       	ldi	r24, 0x04	; 4
    9e98:	80 93 e9 00 	sts	0x00E9, r24	; 0x8000e9 <__TEXT_REGION_LENGTH__+0x7e00e9>
    9e9c:	80 91 f2 10 	lds	r24, 0x10F2	; 0x8010f2 <transmit_previous_timeout>
    9ea0:	88 23       	and	r24, r24
    9ea2:	41 f0       	breq	.+16     	; 0x9eb4 <usb_serial_class::write(unsigned char const*, unsigned int)+0x5e>
    9ea4:	80 91 e8 00 	lds	r24, 0x00E8	; 0x8000e8 <__TEXT_REGION_LENGTH__+0x7e00e8>
    9ea8:	85 fd       	sbrc	r24, 5
    9eaa:	02 c0       	rjmp	.+4      	; 0x9eb0 <usb_serial_class::write(unsigned char const*, unsigned int)+0x5a>
    9eac:	2f bf       	out	0x3f, r18	; 63
    9eae:	e1 cf       	rjmp	.-62     	; 0x9e72 <usb_serial_class::write(unsigned char const*, unsigned int)+0x1c>
    9eb0:	10 92 f2 10 	sts	0x10F2, r1	; 0x8010f2 <transmit_previous_timeout>
    9eb4:	10 e0       	ldi	r17, 0x00	; 0
    9eb6:	00 e0       	ldi	r16, 0x00	; 0
    9eb8:	84 e0       	ldi	r24, 0x04	; 4
    9eba:	d8 2e       	mov	r13, r24
    9ebc:	90 e4       	ldi	r25, 0x40	; 64
    9ebe:	c9 2e       	mov	r12, r25
    9ec0:	a1 ef       	ldi	r26, 0xF1	; 241
    9ec2:	b0 e0       	ldi	r27, 0x00	; 0
    9ec4:	3a e3       	ldi	r19, 0x3A	; 58
    9ec6:	b3 2e       	mov	r11, r19
    9ec8:	33 e0       	ldi	r19, 0x03	; 3
    9eca:	41 15       	cp	r20, r1
    9ecc:	51 05       	cpc	r21, r1
    9ece:	09 f4       	brne	.+2      	; 0x9ed2 <usb_serial_class::write(unsigned char const*, unsigned int)+0x7c>
    9ed0:	c0 c0       	rjmp	.+384    	; 0xa052 <L548end+0x12>
    9ed2:	80 91 e4 00 	lds	r24, 0x00E4	; 0x8000e4 <__TEXT_REGION_LENGTH__+0x7e00e4>
    9ed6:	81 5f       	subi	r24, 0xF1	; 241
    9ed8:	90 91 e8 00 	lds	r25, 0x00E8	; 0x8000e8 <__TEXT_REGION_LENGTH__+0x7e00e8>
    9edc:	95 fd       	sbrc	r25, 5
    9ede:	16 c0       	rjmp	.+44     	; 0x9f0c <usb_serial_class::write(unsigned char const*, unsigned int)+0xb6>
    9ee0:	2f bf       	out	0x3f, r18	; 63
    9ee2:	90 91 e4 00 	lds	r25, 0x00E4	; 0x8000e4 <__TEXT_REGION_LENGTH__+0x7e00e4>
    9ee6:	89 13       	cpse	r24, r25
    9ee8:	06 c0       	rjmp	.+12     	; 0x9ef6 <usb_serial_class::write(unsigned char const*, unsigned int)+0xa0>
    9eea:	81 e0       	ldi	r24, 0x01	; 1
    9eec:	80 93 f2 10 	sts	0x10F2, r24	; 0x8010f2 <transmit_previous_timeout>
    9ef0:	f7 01       	movw	r30, r14
    9ef2:	82 83       	std	Z+2, r24	; 0x02
    9ef4:	c3 cf       	rjmp	.-122    	; 0x9e7c <usb_serial_class::write(unsigned char const*, unsigned int)+0x26>
    9ef6:	90 91 78 11 	lds	r25, 0x1178	; 0x801178 <usb_configuration>
    9efa:	91 11       	cpse	r25, r1
    9efc:	02 c0       	rjmp	.+4      	; 0x9f02 <usb_serial_class::write(unsigned char const*, unsigned int)+0xac>
    9efe:	81 e0       	ldi	r24, 0x01	; 1
    9f00:	f7 cf       	rjmp	.-18     	; 0x9ef0 <usb_serial_class::write(unsigned char const*, unsigned int)+0x9a>
    9f02:	2f b7       	in	r18, 0x3f	; 63
    9f04:	f8 94       	cli
    9f06:	d0 92 e9 00 	sts	0x00E9, r13	; 0x8000e9 <__TEXT_REGION_LENGTH__+0x7e00e9>
    9f0a:	e6 cf       	rjmp	.-52     	; 0x9ed8 <usb_serial_class::write(unsigned char const*, unsigned int)+0x82>
    9f0c:	80 91 f2 00 	lds	r24, 0x00F2	; 0x8000f2 <__TEXT_REGION_LENGTH__+0x7e00f2>
    9f10:	9c 2d       	mov	r25, r12
    9f12:	98 1b       	sub	r25, r24
    9f14:	94 17       	cp	r25, r20
    9f16:	15 06       	cpc	r1, r21
    9f18:	11 f0       	breq	.+4      	; 0x9f1e <usb_serial_class::write(unsigned char const*, unsigned int)+0xc8>
    9f1a:	08 f0       	brcs	.+2      	; 0x9f1e <usb_serial_class::write(unsigned char const*, unsigned int)+0xc8>
    9f1c:	94 2f       	mov	r25, r20
    9f1e:	e9 2f       	mov	r30, r25
    9f20:	f0 e0       	ldi	r31, 0x00	; 0
    9f22:	4e 1b       	sub	r20, r30
    9f24:	5f 0b       	sbc	r21, r31
    9f26:	0e 0f       	add	r16, r30
    9f28:	1f 1f       	adc	r17, r31
    9f2a:	eb 01       	movw	r28, r22

00009f2c <L548begin>:
    9f2c:	e0 e4       	ldi	r30, 0x40	; 64
    9f2e:	e9 1b       	sub	r30, r25
    9f30:	e0 34       	cpi	r30, 0x40	; 64
    9f32:	28 f4       	brcc	.+10     	; 0x9f3e <L548err>
    9f34:	ee 0f       	add	r30, r30
    9f36:	ff 27       	eor	r31, r31
    9f38:	e0 56       	subi	r30, 0x60	; 96
    9f3a:	f0 4b       	sbci	r31, 0xB0	; 176
    9f3c:	09 94       	ijmp

00009f3e <L548err>:
    9f3e:	80 c0       	rjmp	.+256    	; 0xa040 <L548end>

00009f40 <L548table>:
    9f40:	99 91       	ld	r25, Y+
    9f42:	9c 93       	st	X, r25
    9f44:	99 91       	ld	r25, Y+
    9f46:	9c 93       	st	X, r25
    9f48:	99 91       	ld	r25, Y+
    9f4a:	9c 93       	st	X, r25
    9f4c:	99 91       	ld	r25, Y+
    9f4e:	9c 93       	st	X, r25
    9f50:	99 91       	ld	r25, Y+
    9f52:	9c 93       	st	X, r25
    9f54:	99 91       	ld	r25, Y+
    9f56:	9c 93       	st	X, r25
    9f58:	99 91       	ld	r25, Y+
    9f5a:	9c 93       	st	X, r25
    9f5c:	99 91       	ld	r25, Y+
    9f5e:	9c 93       	st	X, r25
    9f60:	99 91       	ld	r25, Y+
    9f62:	9c 93       	st	X, r25
    9f64:	99 91       	ld	r25, Y+
    9f66:	9c 93       	st	X, r25
    9f68:	99 91       	ld	r25, Y+
    9f6a:	9c 93       	st	X, r25
    9f6c:	99 91       	ld	r25, Y+
    9f6e:	9c 93       	st	X, r25
    9f70:	99 91       	ld	r25, Y+
    9f72:	9c 93       	st	X, r25
    9f74:	99 91       	ld	r25, Y+
    9f76:	9c 93       	st	X, r25
    9f78:	99 91       	ld	r25, Y+
    9f7a:	9c 93       	st	X, r25
    9f7c:	99 91       	ld	r25, Y+
    9f7e:	9c 93       	st	X, r25
    9f80:	99 91       	ld	r25, Y+
    9f82:	9c 93       	st	X, r25
    9f84:	99 91       	ld	r25, Y+
    9f86:	9c 93       	st	X, r25
    9f88:	99 91       	ld	r25, Y+
    9f8a:	9c 93       	st	X, r25
    9f8c:	99 91       	ld	r25, Y+
    9f8e:	9c 93       	st	X, r25
    9f90:	99 91       	ld	r25, Y+
    9f92:	9c 93       	st	X, r25
    9f94:	99 91       	ld	r25, Y+
    9f96:	9c 93       	st	X, r25
    9f98:	99 91       	ld	r25, Y+
    9f9a:	9c 93       	st	X, r25
    9f9c:	99 91       	ld	r25, Y+
    9f9e:	9c 93       	st	X, r25
    9fa0:	99 91       	ld	r25, Y+
    9fa2:	9c 93       	st	X, r25
    9fa4:	99 91       	ld	r25, Y+
    9fa6:	9c 93       	st	X, r25
    9fa8:	99 91       	ld	r25, Y+
    9faa:	9c 93       	st	X, r25
    9fac:	99 91       	ld	r25, Y+
    9fae:	9c 93       	st	X, r25
    9fb0:	99 91       	ld	r25, Y+
    9fb2:	9c 93       	st	X, r25
    9fb4:	99 91       	ld	r25, Y+
    9fb6:	9c 93       	st	X, r25
    9fb8:	99 91       	ld	r25, Y+
    9fba:	9c 93       	st	X, r25
    9fbc:	99 91       	ld	r25, Y+
    9fbe:	9c 93       	st	X, r25
    9fc0:	99 91       	ld	r25, Y+
    9fc2:	9c 93       	st	X, r25
    9fc4:	99 91       	ld	r25, Y+
    9fc6:	9c 93       	st	X, r25
    9fc8:	99 91       	ld	r25, Y+
    9fca:	9c 93       	st	X, r25
    9fcc:	99 91       	ld	r25, Y+
    9fce:	9c 93       	st	X, r25
    9fd0:	99 91       	ld	r25, Y+
    9fd2:	9c 93       	st	X, r25
    9fd4:	99 91       	ld	r25, Y+
    9fd6:	9c 93       	st	X, r25
    9fd8:	99 91       	ld	r25, Y+
    9fda:	9c 93       	st	X, r25
    9fdc:	99 91       	ld	r25, Y+
    9fde:	9c 93       	st	X, r25
    9fe0:	99 91       	ld	r25, Y+
    9fe2:	9c 93       	st	X, r25
    9fe4:	99 91       	ld	r25, Y+
    9fe6:	9c 93       	st	X, r25
    9fe8:	99 91       	ld	r25, Y+
    9fea:	9c 93       	st	X, r25
    9fec:	99 91       	ld	r25, Y+
    9fee:	9c 93       	st	X, r25
    9ff0:	99 91       	ld	r25, Y+
    9ff2:	9c 93       	st	X, r25
    9ff4:	99 91       	ld	r25, Y+
    9ff6:	9c 93       	st	X, r25
    9ff8:	99 91       	ld	r25, Y+
    9ffa:	9c 93       	st	X, r25
    9ffc:	99 91       	ld	r25, Y+
    9ffe:	9c 93       	st	X, r25
    a000:	99 91       	ld	r25, Y+
    a002:	9c 93       	st	X, r25
    a004:	99 91       	ld	r25, Y+
    a006:	9c 93       	st	X, r25
    a008:	99 91       	ld	r25, Y+
    a00a:	9c 93       	st	X, r25
    a00c:	99 91       	ld	r25, Y+
    a00e:	9c 93       	st	X, r25
    a010:	99 91       	ld	r25, Y+
    a012:	9c 93       	st	X, r25
    a014:	99 91       	ld	r25, Y+
    a016:	9c 93       	st	X, r25
    a018:	99 91       	ld	r25, Y+
    a01a:	9c 93       	st	X, r25
    a01c:	99 91       	ld	r25, Y+
    a01e:	9c 93       	st	X, r25
    a020:	99 91       	ld	r25, Y+
    a022:	9c 93       	st	X, r25
    a024:	99 91       	ld	r25, Y+
    a026:	9c 93       	st	X, r25
    a028:	99 91       	ld	r25, Y+
    a02a:	9c 93       	st	X, r25
    a02c:	99 91       	ld	r25, Y+
    a02e:	9c 93       	st	X, r25
    a030:	99 91       	ld	r25, Y+
    a032:	9c 93       	st	X, r25
    a034:	99 91       	ld	r25, Y+
    a036:	9c 93       	st	X, r25
    a038:	99 91       	ld	r25, Y+
    a03a:	9c 93       	st	X, r25
    a03c:	99 91       	ld	r25, Y+
    a03e:	9c 93       	st	X, r25

0000a040 <L548end>:
    a040:	be 01       	movw	r22, r28
    a042:	80 91 e8 00 	lds	r24, 0x00E8	; 0x8000e8 <__TEXT_REGION_LENGTH__+0x7e00e8>
    a046:	85 ff       	sbrs	r24, 5
    a048:	b0 92 e8 00 	sts	0x00E8, r11	; 0x8000e8 <__TEXT_REGION_LENGTH__+0x7e00e8>
    a04c:	30 93 f4 10 	sts	0x10F4, r19	; 0x8010f4 <transmit_flush_timer>
    a050:	3c cf       	rjmp	.-392    	; 0x9eca <usb_serial_class::write(unsigned char const*, unsigned int)+0x74>
    a052:	2f bf       	out	0x3f, r18	; 63
    a054:	13 cf       	rjmp	.-474    	; 0x9e7c <usb_serial_class::write(unsigned char const*, unsigned int)+0x26>

0000a056 <usb_serial_class::send_now()>:
    a056:	8f b7       	in	r24, 0x3f	; 63
    a058:	f8 94       	cli
    a05a:	90 91 78 11 	lds	r25, 0x1178	; 0x801178 <usb_configuration>
    a05e:	99 23       	and	r25, r25
    a060:	61 f0       	breq	.+24     	; 0xa07a <usb_serial_class::send_now()+0x24>
    a062:	90 91 f4 10 	lds	r25, 0x10F4	; 0x8010f4 <transmit_flush_timer>
    a066:	99 23       	and	r25, r25
    a068:	41 f0       	breq	.+16     	; 0xa07a <usb_serial_class::send_now()+0x24>
    a06a:	94 e0       	ldi	r25, 0x04	; 4
    a06c:	90 93 e9 00 	sts	0x00E9, r25	; 0x8000e9 <__TEXT_REGION_LENGTH__+0x7e00e9>
    a070:	9a e3       	ldi	r25, 0x3A	; 58
    a072:	90 93 e8 00 	sts	0x00E8, r25	; 0x8000e8 <__TEXT_REGION_LENGTH__+0x7e00e8>
    a076:	10 92 f4 10 	sts	0x10F4, r1	; 0x8010f4 <transmit_flush_timer>
    a07a:	8f bf       	out	0x3f, r24	; 63
    a07c:	08 95       	ret

0000a07e <usb_serial_class::flush()>:
    a07e:	eb cf       	rjmp	.-42     	; 0xa056 <usb_serial_class::send_now()>

0000a080 <_GLOBAL__sub_I__ZN16usb_serial_class5beginEl>:



// Preinstantiate Objects //////////////////////////////////////////////////////

usb_serial_class Serial = usb_serial_class();
    a080:	ea e6       	ldi	r30, 0x6A	; 106
    a082:	f1 e1       	ldi	r31, 0x11	; 17
    a084:	11 86       	std	Z+9, r1	; 0x09
    a086:	10 86       	std	Z+8, r1	; 0x08
    a088:	12 82       	std	Z+2, r1	; 0x02
    a08a:	88 ee       	ldi	r24, 0xE8	; 232
    a08c:	93 e0       	ldi	r25, 0x03	; 3
    a08e:	a0 e0       	ldi	r26, 0x00	; 0
    a090:	b0 e0       	ldi	r27, 0x00	; 0
    a092:	83 83       	std	Z+3, r24	; 0x03
    a094:	94 83       	std	Z+4, r25	; 0x04
    a096:	a5 83       	std	Z+5, r26	; 0x05
    a098:	b6 83       	std	Z+6, r27	; 0x06
    a09a:	17 82       	std	Z+7, r1	; 0x07

#include <inttypes.h>

#include "Stream.h"

class usb_serial_class : public Stream
    a09c:	84 ed       	ldi	r24, 0xD4	; 212
    a09e:	99 e0       	ldi	r25, 0x09	; 9
    a0a0:	91 83       	std	Z+1, r25	; 0x01
    a0a2:	80 83       	st	Z, r24
    a0a4:	08 95       	ret

0000a0a6 <random(long)>:
    srandom(seed);
  }
}

long random(long howbig)
{
    a0a6:	cf 92       	push	r12
    a0a8:	df 92       	push	r13
    a0aa:	ef 92       	push	r14
    a0ac:	ff 92       	push	r15
    a0ae:	6b 01       	movw	r12, r22
    a0b0:	7c 01       	movw	r14, r24
  if (howbig == 0) {
    a0b2:	c1 14       	cp	r12, r1
    a0b4:	d1 04       	cpc	r13, r1
    a0b6:	e1 04       	cpc	r14, r1
    a0b8:	f1 04       	cpc	r15, r1
    a0ba:	31 f0       	breq	.+12     	; 0xa0c8 <random(long)+0x22>
    return 0;
  }
  return random() % howbig;
    a0bc:	7a d3       	rcall	.+1780   	; 0xa7b2 <random>
    a0be:	a7 01       	movw	r20, r14
    a0c0:	96 01       	movw	r18, r12
    a0c2:	ea d2       	rcall	.+1492   	; 0xa698 <__divmodsi4>
    a0c4:	6b 01       	movw	r12, r22
    a0c6:	7c 01       	movw	r14, r24
}
    a0c8:	c7 01       	movw	r24, r14
    a0ca:	b6 01       	movw	r22, r12
    a0cc:	ff 90       	pop	r15
    a0ce:	ef 90       	pop	r14
    a0d0:	df 90       	pop	r13
    a0d2:	cf 90       	pop	r12
    a0d4:	08 95       	ret

0000a0d6 <random(long, long)>:

long random(long howsmall, long howbig)
{
    a0d6:	cf 92       	push	r12
    a0d8:	df 92       	push	r13
    a0da:	ef 92       	push	r14
    a0dc:	ff 92       	push	r15
    a0de:	6b 01       	movw	r12, r22
    a0e0:	7c 01       	movw	r14, r24
  if (howsmall >= howbig) {
    a0e2:	c2 16       	cp	r12, r18
    a0e4:	d3 06       	cpc	r13, r19
    a0e6:	e4 06       	cpc	r14, r20
    a0e8:	f5 06       	cpc	r15, r21
    a0ea:	5c f4       	brge	.+22     	; 0xa102 <random(long, long)+0x2c>
    return howsmall;
  }
  long diff = howbig - howsmall;
    a0ec:	ca 01       	movw	r24, r20
    a0ee:	b9 01       	movw	r22, r18
    a0f0:	6c 19       	sub	r22, r12
    a0f2:	7d 09       	sbc	r23, r13
    a0f4:	8e 09       	sbc	r24, r14
    a0f6:	9f 09       	sbc	r25, r15
  return random(diff) + howsmall;
    a0f8:	d6 df       	rcall	.-84     	; 0xa0a6 <random(long)>
    a0fa:	c6 0e       	add	r12, r22
    a0fc:	d7 1e       	adc	r13, r23
    a0fe:	e8 1e       	adc	r14, r24
    a100:	f9 1e       	adc	r15, r25
}
    a102:	c7 01       	movw	r24, r14
    a104:	b6 01       	movw	r22, r12
    a106:	ff 90       	pop	r15
    a108:	ef 90       	pop	r14
    a10a:	df 90       	pop	r13
    a10c:	cf 90       	pop	r12
    a10e:	08 95       	ret

0000a110 <map(long, long, long, long, long)>:

long map(long x, long in_min, long in_max, long out_min, long out_max)
{
    a110:	4f 92       	push	r4
    a112:	5f 92       	push	r5
    a114:	6f 92       	push	r6
    a116:	7f 92       	push	r7
    a118:	af 92       	push	r10
    a11a:	bf 92       	push	r11
    a11c:	cf 92       	push	r12
    a11e:	df 92       	push	r13
    a120:	ef 92       	push	r14
    a122:	ff 92       	push	r15
    a124:	0f 93       	push	r16
    a126:	1f 93       	push	r17
    a128:	cf 93       	push	r28
    a12a:	df 93       	push	r29
    a12c:	cd b7       	in	r28, 0x3d	; 61
    a12e:	de b7       	in	r29, 0x3e	; 62
    a130:	29 01       	movw	r4, r18
    a132:	3a 01       	movw	r6, r20
  return (x - in_min) * (out_max - out_min) / (in_max - in_min) + out_min;
    a134:	9b 01       	movw	r18, r22
    a136:	ac 01       	movw	r20, r24
    a138:	24 19       	sub	r18, r4
    a13a:	35 09       	sbc	r19, r5
    a13c:	46 09       	sbc	r20, r6
    a13e:	57 09       	sbc	r21, r7
    a140:	89 89       	ldd	r24, Y+17	; 0x11
    a142:	9a 89       	ldd	r25, Y+18	; 0x12
    a144:	ab 89       	ldd	r26, Y+19	; 0x13
    a146:	bc 89       	ldd	r27, Y+20	; 0x14
    a148:	bc 01       	movw	r22, r24
    a14a:	cd 01       	movw	r24, r26
    a14c:	6a 19       	sub	r22, r10
    a14e:	7b 09       	sbc	r23, r11
    a150:	8c 09       	sbc	r24, r12
    a152:	9d 09       	sbc	r25, r13
    a154:	49 d2       	rcall	.+1170   	; 0xa5e8 <__mulsi3>
    a156:	a8 01       	movw	r20, r16
    a158:	97 01       	movw	r18, r14
    a15a:	24 19       	sub	r18, r4
    a15c:	35 09       	sbc	r19, r5
    a15e:	46 09       	sbc	r20, r6
    a160:	57 09       	sbc	r21, r7
    a162:	9a d2       	rcall	.+1332   	; 0xa698 <__divmodsi4>
    a164:	ca 01       	movw	r24, r20
    a166:	b9 01       	movw	r22, r18
    a168:	6a 0d       	add	r22, r10
    a16a:	7b 1d       	adc	r23, r11
    a16c:	8c 1d       	adc	r24, r12
    a16e:	9d 1d       	adc	r25, r13
}
    a170:	df 91       	pop	r29
    a172:	cf 91       	pop	r28
    a174:	1f 91       	pop	r17
    a176:	0f 91       	pop	r16
    a178:	ff 90       	pop	r15
    a17a:	ef 90       	pop	r14
    a17c:	df 90       	pop	r13
    a17e:	cf 90       	pop	r12
    a180:	bf 90       	pop	r11
    a182:	af 90       	pop	r10
    a184:	7f 90       	pop	r7
    a186:	6f 90       	pop	r6
    a188:	5f 90       	pop	r5
    a18a:	4f 90       	pop	r4
    a18c:	08 95       	ret

0000a18e <String::~String()>:
/*  Character Access                         */
/*********************************************/

char String::charAt(unsigned int loc) const
{
	return operator[](loc);
    a18e:	fc 01       	movw	r30, r24
    a190:	80 81       	ld	r24, Z
    a192:	91 81       	ldd	r25, Z+1	; 0x01
    a194:	0c 94 a6 46 	jmp	0x8d4c	; 0x8d4c <free>

0000a198 <String::changeBuffer(unsigned int)>:
    a198:	0f 93       	push	r16
    a19a:	1f 93       	push	r17
    a19c:	cf 93       	push	r28
    a19e:	df 93       	push	r29
    a1a0:	ec 01       	movw	r28, r24
    a1a2:	8b 01       	movw	r16, r22
    a1a4:	6f 5f       	subi	r22, 0xFF	; 255
    a1a6:	7f 4f       	sbci	r23, 0xFF	; 255
    a1a8:	88 81       	ld	r24, Y
    a1aa:	99 81       	ldd	r25, Y+1	; 0x01
    a1ac:	0e 94 2f 47 	call	0x8e5e	; 0x8e5e <realloc>
    a1b0:	00 97       	sbiw	r24, 0x00	; 0
    a1b2:	51 f0       	breq	.+20     	; 0xa1c8 <String::changeBuffer(unsigned int)+0x30>
    a1b4:	99 83       	std	Y+1, r25	; 0x01
    a1b6:	88 83       	st	Y, r24
    a1b8:	1b 83       	std	Y+3, r17	; 0x03
    a1ba:	0a 83       	std	Y+2, r16	; 0x02
    a1bc:	81 e0       	ldi	r24, 0x01	; 1
    a1be:	df 91       	pop	r29
    a1c0:	cf 91       	pop	r28
    a1c2:	1f 91       	pop	r17
    a1c4:	0f 91       	pop	r16
    a1c6:	08 95       	ret
    a1c8:	80 e0       	ldi	r24, 0x00	; 0
    a1ca:	f9 cf       	rjmp	.-14     	; 0xa1be <String::changeBuffer(unsigned int)+0x26>

0000a1cc <String::reserve(unsigned int)>:
    a1cc:	cf 93       	push	r28
    a1ce:	df 93       	push	r29
    a1d0:	fc 01       	movw	r30, r24
    a1d2:	22 81       	ldd	r18, Z+2	; 0x02
    a1d4:	33 81       	ldd	r19, Z+3	; 0x03
    a1d6:	26 17       	cp	r18, r22
    a1d8:	37 07       	cpc	r19, r23
    a1da:	20 f0       	brcs	.+8      	; 0xa1e4 <String::reserve(unsigned int)+0x18>
    a1dc:	81 e0       	ldi	r24, 0x01	; 1
    a1de:	df 91       	pop	r29
    a1e0:	cf 91       	pop	r28
    a1e2:	08 95       	ret
    a1e4:	ec 01       	movw	r28, r24
    a1e6:	d8 df       	rcall	.-80     	; 0xa198 <String::changeBuffer(unsigned int)>
    a1e8:	88 23       	and	r24, r24
    a1ea:	c9 f3       	breq	.-14     	; 0xa1de <String::reserve(unsigned int)+0x12>
    a1ec:	8c 81       	ldd	r24, Y+4	; 0x04
    a1ee:	9d 81       	ldd	r25, Y+5	; 0x05
    a1f0:	89 2b       	or	r24, r25
    a1f2:	a1 f7       	brne	.-24     	; 0xa1dc <String::reserve(unsigned int)+0x10>
    a1f4:	e8 81       	ld	r30, Y
    a1f6:	f9 81       	ldd	r31, Y+1	; 0x01
    a1f8:	10 82       	st	Z, r1
    a1fa:	f0 cf       	rjmp	.-32     	; 0xa1dc <String::reserve(unsigned int)+0x10>

0000a1fc <String::copy(char const*, unsigned int)>:
    a1fc:	ef 92       	push	r14
    a1fe:	ff 92       	push	r15
    a200:	0f 93       	push	r16
    a202:	1f 93       	push	r17
    a204:	cf 93       	push	r28
    a206:	df 93       	push	r29
    a208:	ec 01       	movw	r28, r24
    a20a:	7b 01       	movw	r14, r22
    a20c:	8a 01       	movw	r16, r20
    a20e:	41 15       	cp	r20, r1
    a210:	51 05       	cpc	r21, r1
    a212:	79 f4       	brne	.+30     	; 0xa232 <String::copy(char const*, unsigned int)+0x36>
    a214:	e8 81       	ld	r30, Y
    a216:	f9 81       	ldd	r31, Y+1	; 0x01
    a218:	30 97       	sbiw	r30, 0x00	; 0
    a21a:	09 f0       	breq	.+2      	; 0xa21e <String::copy(char const*, unsigned int)+0x22>
    a21c:	10 82       	st	Z, r1
    a21e:	1d 82       	std	Y+5, r1	; 0x05
    a220:	1c 82       	std	Y+4, r1	; 0x04
    a222:	ce 01       	movw	r24, r28
    a224:	df 91       	pop	r29
    a226:	cf 91       	pop	r28
    a228:	1f 91       	pop	r17
    a22a:	0f 91       	pop	r16
    a22c:	ff 90       	pop	r15
    a22e:	ef 90       	pop	r14
    a230:	08 95       	ret
    a232:	ba 01       	movw	r22, r20
    a234:	cb df       	rcall	.-106    	; 0xa1cc <String::reserve(unsigned int)>
    a236:	28 81       	ld	r18, Y
    a238:	39 81       	ldd	r19, Y+1	; 0x01
    a23a:	81 11       	cpse	r24, r1
    a23c:	0b c0       	rjmp	.+22     	; 0xa254 <String::copy(char const*, unsigned int)+0x58>
    a23e:	21 15       	cp	r18, r1
    a240:	31 05       	cpc	r19, r1
    a242:	29 f0       	breq	.+10     	; 0xa24e <String::copy(char const*, unsigned int)+0x52>
    a244:	c9 01       	movw	r24, r18
    a246:	0e 94 a6 46 	call	0x8d4c	; 0x8d4c <free>
    a24a:	19 82       	std	Y+1, r1	; 0x01
    a24c:	18 82       	st	Y, r1
    a24e:	1b 82       	std	Y+3, r1	; 0x03
    a250:	1a 82       	std	Y+2, r1	; 0x02
    a252:	e5 cf       	rjmp	.-54     	; 0xa21e <String::copy(char const*, unsigned int)+0x22>
    a254:	1d 83       	std	Y+5, r17	; 0x05
    a256:	0c 83       	std	Y+4, r16	; 0x04
    a258:	b7 01       	movw	r22, r14
    a25a:	c9 01       	movw	r24, r18
    a25c:	08 d3       	rcall	.+1552   	; 0xa86e <strcpy>
    a25e:	e1 cf       	rjmp	.-62     	; 0xa222 <String::copy(char const*, unsigned int)+0x26>

0000a260 <String::String(char const*)>:
    a260:	fc 01       	movw	r30, r24
    a262:	11 82       	std	Z+1, r1	; 0x01
    a264:	10 82       	st	Z, r1
    a266:	13 82       	std	Z+3, r1	; 0x03
    a268:	12 82       	std	Z+2, r1	; 0x02
    a26a:	15 82       	std	Z+5, r1	; 0x05
    a26c:	14 82       	std	Z+4, r1	; 0x04
    a26e:	16 82       	std	Z+6, r1	; 0x06
    a270:	61 15       	cp	r22, r1
    a272:	71 05       	cpc	r23, r1
    a274:	49 f0       	breq	.+18     	; 0xa288 <String::String(char const*)+0x28>
    a276:	fb 01       	movw	r30, r22
    a278:	01 90       	ld	r0, Z+
    a27a:	00 20       	and	r0, r0
    a27c:	e9 f7       	brne	.-6      	; 0xa278 <String::String(char const*)+0x18>
    a27e:	31 97       	sbiw	r30, 0x01	; 1
    a280:	af 01       	movw	r20, r30
    a282:	46 1b       	sub	r20, r22
    a284:	57 0b       	sbc	r21, r23
    a286:	ba cf       	rjmp	.-140    	; 0xa1fc <String::copy(char const*, unsigned int)>
    a288:	08 95       	ret

0000a28a <String::getBytes(unsigned char*, unsigned int, unsigned int) const>:
	if (index >= len || !buffer) return 0;
	return buffer[index];
}

void String::getBytes(unsigned char *buf, unsigned int bufsize, unsigned int index) const
{
    a28a:	0f 93       	push	r16
    a28c:	1f 93       	push	r17
    a28e:	cf 93       	push	r28
    a290:	df 93       	push	r29
	if (!bufsize || !buf) return;
    a292:	41 15       	cp	r20, r1
    a294:	51 05       	cpc	r21, r1
    a296:	59 f0       	breq	.+22     	; 0xa2ae <String::getBytes(unsigned char*, unsigned int, unsigned int) const+0x24>
    a298:	61 15       	cp	r22, r1
    a29a:	71 05       	cpc	r23, r1
    a29c:	41 f0       	breq	.+16     	; 0xa2ae <String::getBytes(unsigned char*, unsigned int, unsigned int) const+0x24>
	if (index >= len) {
    a29e:	fc 01       	movw	r30, r24
    a2a0:	04 81       	ldd	r16, Z+4	; 0x04
    a2a2:	15 81       	ldd	r17, Z+5	; 0x05
    a2a4:	20 17       	cp	r18, r16
    a2a6:	31 07       	cpc	r19, r17
    a2a8:	38 f0       	brcs	.+14     	; 0xa2b8 <String::getBytes(unsigned char*, unsigned int, unsigned int) const+0x2e>
		buf[0] = 0;
    a2aa:	fb 01       	movw	r30, r22
    a2ac:	10 82       	st	Z, r1
	}
	unsigned int n = bufsize - 1;
	if (n > len - index) n = len - index;
	strncpy((char *)buf, buffer + index, n);
	buf[n] = 0;
}
    a2ae:	df 91       	pop	r29
    a2b0:	cf 91       	pop	r28
    a2b2:	1f 91       	pop	r17
    a2b4:	0f 91       	pop	r16
    a2b6:	08 95       	ret
	if (!bufsize || !buf) return;
	if (index >= len) {
		buf[0] = 0;
		return;
	}
	unsigned int n = bufsize - 1;
    a2b8:	41 50       	subi	r20, 0x01	; 1
    a2ba:	51 09       	sbc	r21, r1
    a2bc:	02 1b       	sub	r16, r18
    a2be:	13 0b       	sbc	r17, r19
    a2c0:	40 17       	cp	r20, r16
    a2c2:	51 07       	cpc	r21, r17
    a2c4:	08 f4       	brcc	.+2      	; 0xa2c8 <String::getBytes(unsigned char*, unsigned int, unsigned int) const+0x3e>
    a2c6:	8a 01       	movw	r16, r20
    a2c8:	eb 01       	movw	r28, r22
	if (n > len - index) n = len - index;
	strncpy((char *)buf, buffer + index, n);
    a2ca:	fc 01       	movw	r30, r24
    a2cc:	60 81       	ld	r22, Z
    a2ce:	71 81       	ldd	r23, Z+1	; 0x01
    a2d0:	62 0f       	add	r22, r18
    a2d2:	73 1f       	adc	r23, r19
    a2d4:	a8 01       	movw	r20, r16
    a2d6:	ce 01       	movw	r24, r28
    a2d8:	d1 d2       	rcall	.+1442   	; 0xa87c <strncpy>
	buf[n] = 0;
    a2da:	c0 0f       	add	r28, r16
    a2dc:	d1 1f       	adc	r29, r17
    a2de:	18 82       	st	Y, r1
    a2e0:	e6 cf       	rjmp	.-52     	; 0xa2ae <String::getBytes(unsigned char*, unsigned int, unsigned int) const+0x24>

0000a2e2 <yield>:
	//if (Serial.available()) serialEvent();
	//if (Serial1.available()) serialEvent1();
	//if (Serial2.available()) serialEvent2();
	//if (Serial3.available()) serialEvent3();
	//running = 0;
};
    a2e2:	08 95       	ret

0000a2e4 <__subsf3>:
    a2e4:	50 58       	subi	r21, 0x80	; 128

0000a2e6 <__addsf3>:
    a2e6:	bb 27       	eor	r27, r27
    a2e8:	aa 27       	eor	r26, r26
    a2ea:	0e d0       	rcall	.+28     	; 0xa308 <__addsf3x>
    a2ec:	e0 c0       	rjmp	.+448    	; 0xa4ae <__fp_round>
    a2ee:	d1 d0       	rcall	.+418    	; 0xa492 <__fp_pscA>
    a2f0:	30 f0       	brcs	.+12     	; 0xa2fe <__addsf3+0x18>
    a2f2:	d6 d0       	rcall	.+428    	; 0xa4a0 <__fp_pscB>
    a2f4:	20 f0       	brcs	.+8      	; 0xa2fe <__addsf3+0x18>
    a2f6:	31 f4       	brne	.+12     	; 0xa304 <__addsf3+0x1e>
    a2f8:	9f 3f       	cpi	r25, 0xFF	; 255
    a2fa:	11 f4       	brne	.+4      	; 0xa300 <__addsf3+0x1a>
    a2fc:	1e f4       	brtc	.+6      	; 0xa304 <__addsf3+0x1e>
    a2fe:	c6 c0       	rjmp	.+396    	; 0xa48c <__fp_nan>
    a300:	0e f4       	brtc	.+2      	; 0xa304 <__addsf3+0x1e>
    a302:	e0 95       	com	r30
    a304:	e7 fb       	bst	r30, 7
    a306:	bc c0       	rjmp	.+376    	; 0xa480 <__fp_inf>

0000a308 <__addsf3x>:
    a308:	e9 2f       	mov	r30, r25
    a30a:	e2 d0       	rcall	.+452    	; 0xa4d0 <__fp_split3>
    a30c:	80 f3       	brcs	.-32     	; 0xa2ee <__addsf3+0x8>
    a30e:	ba 17       	cp	r27, r26
    a310:	62 07       	cpc	r22, r18
    a312:	73 07       	cpc	r23, r19
    a314:	84 07       	cpc	r24, r20
    a316:	95 07       	cpc	r25, r21
    a318:	18 f0       	brcs	.+6      	; 0xa320 <__addsf3x+0x18>
    a31a:	71 f4       	brne	.+28     	; 0xa338 <__addsf3x+0x30>
    a31c:	9e f5       	brtc	.+102    	; 0xa384 <__addsf3x+0x7c>
    a31e:	fa c0       	rjmp	.+500    	; 0xa514 <__fp_zero>
    a320:	0e f4       	brtc	.+2      	; 0xa324 <__addsf3x+0x1c>
    a322:	e0 95       	com	r30
    a324:	0b 2e       	mov	r0, r27
    a326:	ba 2f       	mov	r27, r26
    a328:	a0 2d       	mov	r26, r0
    a32a:	0b 01       	movw	r0, r22
    a32c:	b9 01       	movw	r22, r18
    a32e:	90 01       	movw	r18, r0
    a330:	0c 01       	movw	r0, r24
    a332:	ca 01       	movw	r24, r20
    a334:	a0 01       	movw	r20, r0
    a336:	11 24       	eor	r1, r1
    a338:	ff 27       	eor	r31, r31
    a33a:	59 1b       	sub	r21, r25
    a33c:	99 f0       	breq	.+38     	; 0xa364 <__addsf3x+0x5c>
    a33e:	59 3f       	cpi	r21, 0xF9	; 249
    a340:	50 f4       	brcc	.+20     	; 0xa356 <__addsf3x+0x4e>
    a342:	50 3e       	cpi	r21, 0xE0	; 224
    a344:	68 f1       	brcs	.+90     	; 0xa3a0 <__addsf3x+0x98>
    a346:	1a 16       	cp	r1, r26
    a348:	f0 40       	sbci	r31, 0x00	; 0
    a34a:	a2 2f       	mov	r26, r18
    a34c:	23 2f       	mov	r18, r19
    a34e:	34 2f       	mov	r19, r20
    a350:	44 27       	eor	r20, r20
    a352:	58 5f       	subi	r21, 0xF8	; 248
    a354:	f3 cf       	rjmp	.-26     	; 0xa33c <__addsf3x+0x34>
    a356:	46 95       	lsr	r20
    a358:	37 95       	ror	r19
    a35a:	27 95       	ror	r18
    a35c:	a7 95       	ror	r26
    a35e:	f0 40       	sbci	r31, 0x00	; 0
    a360:	53 95       	inc	r21
    a362:	c9 f7       	brne	.-14     	; 0xa356 <__addsf3x+0x4e>
    a364:	7e f4       	brtc	.+30     	; 0xa384 <__addsf3x+0x7c>
    a366:	1f 16       	cp	r1, r31
    a368:	ba 0b       	sbc	r27, r26
    a36a:	62 0b       	sbc	r22, r18
    a36c:	73 0b       	sbc	r23, r19
    a36e:	84 0b       	sbc	r24, r20
    a370:	ba f0       	brmi	.+46     	; 0xa3a0 <__addsf3x+0x98>
    a372:	91 50       	subi	r25, 0x01	; 1
    a374:	a1 f0       	breq	.+40     	; 0xa39e <__addsf3x+0x96>
    a376:	ff 0f       	add	r31, r31
    a378:	bb 1f       	adc	r27, r27
    a37a:	66 1f       	adc	r22, r22
    a37c:	77 1f       	adc	r23, r23
    a37e:	88 1f       	adc	r24, r24
    a380:	c2 f7       	brpl	.-16     	; 0xa372 <__addsf3x+0x6a>
    a382:	0e c0       	rjmp	.+28     	; 0xa3a0 <__addsf3x+0x98>
    a384:	ba 0f       	add	r27, r26
    a386:	62 1f       	adc	r22, r18
    a388:	73 1f       	adc	r23, r19
    a38a:	84 1f       	adc	r24, r20
    a38c:	48 f4       	brcc	.+18     	; 0xa3a0 <__addsf3x+0x98>
    a38e:	87 95       	ror	r24
    a390:	77 95       	ror	r23
    a392:	67 95       	ror	r22
    a394:	b7 95       	ror	r27
    a396:	f7 95       	ror	r31
    a398:	9e 3f       	cpi	r25, 0xFE	; 254
    a39a:	08 f0       	brcs	.+2      	; 0xa39e <__addsf3x+0x96>
    a39c:	b3 cf       	rjmp	.-154    	; 0xa304 <__addsf3+0x1e>
    a39e:	93 95       	inc	r25
    a3a0:	88 0f       	add	r24, r24
    a3a2:	08 f0       	brcs	.+2      	; 0xa3a6 <__addsf3x+0x9e>
    a3a4:	99 27       	eor	r25, r25
    a3a6:	ee 0f       	add	r30, r30
    a3a8:	97 95       	ror	r25
    a3aa:	87 95       	ror	r24
    a3ac:	08 95       	ret

0000a3ae <__fixunssfsi>:
    a3ae:	98 d0       	rcall	.+304    	; 0xa4e0 <__fp_splitA>
    a3b0:	88 f0       	brcs	.+34     	; 0xa3d4 <__fixunssfsi+0x26>
    a3b2:	9f 57       	subi	r25, 0x7F	; 127
    a3b4:	90 f0       	brcs	.+36     	; 0xa3da <__fixunssfsi+0x2c>
    a3b6:	b9 2f       	mov	r27, r25
    a3b8:	99 27       	eor	r25, r25
    a3ba:	b7 51       	subi	r27, 0x17	; 23
    a3bc:	a0 f0       	brcs	.+40     	; 0xa3e6 <__fixunssfsi+0x38>
    a3be:	d1 f0       	breq	.+52     	; 0xa3f4 <__fixunssfsi+0x46>
    a3c0:	66 0f       	add	r22, r22
    a3c2:	77 1f       	adc	r23, r23
    a3c4:	88 1f       	adc	r24, r24
    a3c6:	99 1f       	adc	r25, r25
    a3c8:	1a f0       	brmi	.+6      	; 0xa3d0 <__fixunssfsi+0x22>
    a3ca:	ba 95       	dec	r27
    a3cc:	c9 f7       	brne	.-14     	; 0xa3c0 <__fixunssfsi+0x12>
    a3ce:	12 c0       	rjmp	.+36     	; 0xa3f4 <__fixunssfsi+0x46>
    a3d0:	b1 30       	cpi	r27, 0x01	; 1
    a3d2:	81 f0       	breq	.+32     	; 0xa3f4 <__fixunssfsi+0x46>
    a3d4:	9f d0       	rcall	.+318    	; 0xa514 <__fp_zero>
    a3d6:	b1 e0       	ldi	r27, 0x01	; 1
    a3d8:	08 95       	ret
    a3da:	9c c0       	rjmp	.+312    	; 0xa514 <__fp_zero>
    a3dc:	67 2f       	mov	r22, r23
    a3de:	78 2f       	mov	r23, r24
    a3e0:	88 27       	eor	r24, r24
    a3e2:	b8 5f       	subi	r27, 0xF8	; 248
    a3e4:	39 f0       	breq	.+14     	; 0xa3f4 <__fixunssfsi+0x46>
    a3e6:	b9 3f       	cpi	r27, 0xF9	; 249
    a3e8:	cc f3       	brlt	.-14     	; 0xa3dc <__fixunssfsi+0x2e>
    a3ea:	86 95       	lsr	r24
    a3ec:	77 95       	ror	r23
    a3ee:	67 95       	ror	r22
    a3f0:	b3 95       	inc	r27
    a3f2:	d9 f7       	brne	.-10     	; 0xa3ea <__fixunssfsi+0x3c>
    a3f4:	3e f4       	brtc	.+14     	; 0xa404 <__fixunssfsi+0x56>
    a3f6:	90 95       	com	r25
    a3f8:	80 95       	com	r24
    a3fa:	70 95       	com	r23
    a3fc:	61 95       	neg	r22
    a3fe:	7f 4f       	sbci	r23, 0xFF	; 255
    a400:	8f 4f       	sbci	r24, 0xFF	; 255
    a402:	9f 4f       	sbci	r25, 0xFF	; 255
    a404:	08 95       	ret

0000a406 <__floatunsisf>:
    a406:	e8 94       	clt
    a408:	09 c0       	rjmp	.+18     	; 0xa41c <__floatsisf+0x12>

0000a40a <__floatsisf>:
    a40a:	97 fb       	bst	r25, 7
    a40c:	3e f4       	brtc	.+14     	; 0xa41c <__floatsisf+0x12>
    a40e:	90 95       	com	r25
    a410:	80 95       	com	r24
    a412:	70 95       	com	r23
    a414:	61 95       	neg	r22
    a416:	7f 4f       	sbci	r23, 0xFF	; 255
    a418:	8f 4f       	sbci	r24, 0xFF	; 255
    a41a:	9f 4f       	sbci	r25, 0xFF	; 255
    a41c:	99 23       	and	r25, r25
    a41e:	a9 f0       	breq	.+42     	; 0xa44a <__floatsisf+0x40>
    a420:	f9 2f       	mov	r31, r25
    a422:	96 e9       	ldi	r25, 0x96	; 150
    a424:	bb 27       	eor	r27, r27
    a426:	93 95       	inc	r25
    a428:	f6 95       	lsr	r31
    a42a:	87 95       	ror	r24
    a42c:	77 95       	ror	r23
    a42e:	67 95       	ror	r22
    a430:	b7 95       	ror	r27
    a432:	f1 11       	cpse	r31, r1
    a434:	f8 cf       	rjmp	.-16     	; 0xa426 <__floatsisf+0x1c>
    a436:	fa f4       	brpl	.+62     	; 0xa476 <__floatsisf+0x6c>
    a438:	bb 0f       	add	r27, r27
    a43a:	11 f4       	brne	.+4      	; 0xa440 <__floatsisf+0x36>
    a43c:	60 ff       	sbrs	r22, 0
    a43e:	1b c0       	rjmp	.+54     	; 0xa476 <__floatsisf+0x6c>
    a440:	6f 5f       	subi	r22, 0xFF	; 255
    a442:	7f 4f       	sbci	r23, 0xFF	; 255
    a444:	8f 4f       	sbci	r24, 0xFF	; 255
    a446:	9f 4f       	sbci	r25, 0xFF	; 255
    a448:	16 c0       	rjmp	.+44     	; 0xa476 <__floatsisf+0x6c>
    a44a:	88 23       	and	r24, r24
    a44c:	11 f0       	breq	.+4      	; 0xa452 <__floatsisf+0x48>
    a44e:	96 e9       	ldi	r25, 0x96	; 150
    a450:	11 c0       	rjmp	.+34     	; 0xa474 <__floatsisf+0x6a>
    a452:	77 23       	and	r23, r23
    a454:	21 f0       	breq	.+8      	; 0xa45e <__floatsisf+0x54>
    a456:	9e e8       	ldi	r25, 0x8E	; 142
    a458:	87 2f       	mov	r24, r23
    a45a:	76 2f       	mov	r23, r22
    a45c:	05 c0       	rjmp	.+10     	; 0xa468 <__floatsisf+0x5e>
    a45e:	66 23       	and	r22, r22
    a460:	71 f0       	breq	.+28     	; 0xa47e <__floatsisf+0x74>
    a462:	96 e8       	ldi	r25, 0x86	; 134
    a464:	86 2f       	mov	r24, r22
    a466:	70 e0       	ldi	r23, 0x00	; 0
    a468:	60 e0       	ldi	r22, 0x00	; 0
    a46a:	2a f0       	brmi	.+10     	; 0xa476 <__floatsisf+0x6c>
    a46c:	9a 95       	dec	r25
    a46e:	66 0f       	add	r22, r22
    a470:	77 1f       	adc	r23, r23
    a472:	88 1f       	adc	r24, r24
    a474:	da f7       	brpl	.-10     	; 0xa46c <__floatsisf+0x62>
    a476:	88 0f       	add	r24, r24
    a478:	96 95       	lsr	r25
    a47a:	87 95       	ror	r24
    a47c:	97 f9       	bld	r25, 7
    a47e:	08 95       	ret

0000a480 <__fp_inf>:
    a480:	97 f9       	bld	r25, 7
    a482:	9f 67       	ori	r25, 0x7F	; 127
    a484:	80 e8       	ldi	r24, 0x80	; 128
    a486:	70 e0       	ldi	r23, 0x00	; 0
    a488:	60 e0       	ldi	r22, 0x00	; 0
    a48a:	08 95       	ret

0000a48c <__fp_nan>:
    a48c:	9f ef       	ldi	r25, 0xFF	; 255
    a48e:	80 ec       	ldi	r24, 0xC0	; 192
    a490:	08 95       	ret

0000a492 <__fp_pscA>:
    a492:	00 24       	eor	r0, r0
    a494:	0a 94       	dec	r0
    a496:	16 16       	cp	r1, r22
    a498:	17 06       	cpc	r1, r23
    a49a:	18 06       	cpc	r1, r24
    a49c:	09 06       	cpc	r0, r25
    a49e:	08 95       	ret

0000a4a0 <__fp_pscB>:
    a4a0:	00 24       	eor	r0, r0
    a4a2:	0a 94       	dec	r0
    a4a4:	12 16       	cp	r1, r18
    a4a6:	13 06       	cpc	r1, r19
    a4a8:	14 06       	cpc	r1, r20
    a4aa:	05 06       	cpc	r0, r21
    a4ac:	08 95       	ret

0000a4ae <__fp_round>:
    a4ae:	09 2e       	mov	r0, r25
    a4b0:	03 94       	inc	r0
    a4b2:	00 0c       	add	r0, r0
    a4b4:	11 f4       	brne	.+4      	; 0xa4ba <__fp_round+0xc>
    a4b6:	88 23       	and	r24, r24
    a4b8:	52 f0       	brmi	.+20     	; 0xa4ce <__fp_round+0x20>
    a4ba:	bb 0f       	add	r27, r27
    a4bc:	40 f4       	brcc	.+16     	; 0xa4ce <__fp_round+0x20>
    a4be:	bf 2b       	or	r27, r31
    a4c0:	11 f4       	brne	.+4      	; 0xa4c6 <__fp_round+0x18>
    a4c2:	60 ff       	sbrs	r22, 0
    a4c4:	04 c0       	rjmp	.+8      	; 0xa4ce <__fp_round+0x20>
    a4c6:	6f 5f       	subi	r22, 0xFF	; 255
    a4c8:	7f 4f       	sbci	r23, 0xFF	; 255
    a4ca:	8f 4f       	sbci	r24, 0xFF	; 255
    a4cc:	9f 4f       	sbci	r25, 0xFF	; 255
    a4ce:	08 95       	ret

0000a4d0 <__fp_split3>:
    a4d0:	57 fd       	sbrc	r21, 7
    a4d2:	90 58       	subi	r25, 0x80	; 128
    a4d4:	44 0f       	add	r20, r20
    a4d6:	55 1f       	adc	r21, r21
    a4d8:	59 f0       	breq	.+22     	; 0xa4f0 <__fp_splitA+0x10>
    a4da:	5f 3f       	cpi	r21, 0xFF	; 255
    a4dc:	71 f0       	breq	.+28     	; 0xa4fa <__fp_splitA+0x1a>
    a4de:	47 95       	ror	r20

0000a4e0 <__fp_splitA>:
    a4e0:	88 0f       	add	r24, r24
    a4e2:	97 fb       	bst	r25, 7
    a4e4:	99 1f       	adc	r25, r25
    a4e6:	61 f0       	breq	.+24     	; 0xa500 <__fp_splitA+0x20>
    a4e8:	9f 3f       	cpi	r25, 0xFF	; 255
    a4ea:	79 f0       	breq	.+30     	; 0xa50a <__fp_splitA+0x2a>
    a4ec:	87 95       	ror	r24
    a4ee:	08 95       	ret
    a4f0:	12 16       	cp	r1, r18
    a4f2:	13 06       	cpc	r1, r19
    a4f4:	14 06       	cpc	r1, r20
    a4f6:	55 1f       	adc	r21, r21
    a4f8:	f2 cf       	rjmp	.-28     	; 0xa4de <__fp_split3+0xe>
    a4fa:	46 95       	lsr	r20
    a4fc:	f1 df       	rcall	.-30     	; 0xa4e0 <__fp_splitA>
    a4fe:	08 c0       	rjmp	.+16     	; 0xa510 <__fp_splitA+0x30>
    a500:	16 16       	cp	r1, r22
    a502:	17 06       	cpc	r1, r23
    a504:	18 06       	cpc	r1, r24
    a506:	99 1f       	adc	r25, r25
    a508:	f1 cf       	rjmp	.-30     	; 0xa4ec <__fp_splitA+0xc>
    a50a:	86 95       	lsr	r24
    a50c:	71 05       	cpc	r23, r1
    a50e:	61 05       	cpc	r22, r1
    a510:	08 94       	sec
    a512:	08 95       	ret

0000a514 <__fp_zero>:
    a514:	e8 94       	clt

0000a516 <__fp_szero>:
    a516:	bb 27       	eor	r27, r27
    a518:	66 27       	eor	r22, r22
    a51a:	77 27       	eor	r23, r23
    a51c:	cb 01       	movw	r24, r22
    a51e:	97 f9       	bld	r25, 7
    a520:	08 95       	ret

0000a522 <__mulsf3>:
    a522:	0b d0       	rcall	.+22     	; 0xa53a <__mulsf3x>
    a524:	c4 cf       	rjmp	.-120    	; 0xa4ae <__fp_round>
    a526:	b5 df       	rcall	.-150    	; 0xa492 <__fp_pscA>
    a528:	28 f0       	brcs	.+10     	; 0xa534 <__mulsf3+0x12>
    a52a:	ba df       	rcall	.-140    	; 0xa4a0 <__fp_pscB>
    a52c:	18 f0       	brcs	.+6      	; 0xa534 <__mulsf3+0x12>
    a52e:	95 23       	and	r25, r21
    a530:	09 f0       	breq	.+2      	; 0xa534 <__mulsf3+0x12>
    a532:	a6 cf       	rjmp	.-180    	; 0xa480 <__fp_inf>
    a534:	ab cf       	rjmp	.-170    	; 0xa48c <__fp_nan>
    a536:	11 24       	eor	r1, r1
    a538:	ee cf       	rjmp	.-36     	; 0xa516 <__fp_szero>

0000a53a <__mulsf3x>:
    a53a:	ca df       	rcall	.-108    	; 0xa4d0 <__fp_split3>
    a53c:	a0 f3       	brcs	.-24     	; 0xa526 <__mulsf3+0x4>

0000a53e <__mulsf3_pse>:
    a53e:	95 9f       	mul	r25, r21
    a540:	d1 f3       	breq	.-12     	; 0xa536 <__mulsf3+0x14>
    a542:	95 0f       	add	r25, r21
    a544:	50 e0       	ldi	r21, 0x00	; 0
    a546:	55 1f       	adc	r21, r21
    a548:	62 9f       	mul	r22, r18
    a54a:	f0 01       	movw	r30, r0
    a54c:	72 9f       	mul	r23, r18
    a54e:	bb 27       	eor	r27, r27
    a550:	f0 0d       	add	r31, r0
    a552:	b1 1d       	adc	r27, r1
    a554:	63 9f       	mul	r22, r19
    a556:	aa 27       	eor	r26, r26
    a558:	f0 0d       	add	r31, r0
    a55a:	b1 1d       	adc	r27, r1
    a55c:	aa 1f       	adc	r26, r26
    a55e:	64 9f       	mul	r22, r20
    a560:	66 27       	eor	r22, r22
    a562:	b0 0d       	add	r27, r0
    a564:	a1 1d       	adc	r26, r1
    a566:	66 1f       	adc	r22, r22
    a568:	82 9f       	mul	r24, r18
    a56a:	22 27       	eor	r18, r18
    a56c:	b0 0d       	add	r27, r0
    a56e:	a1 1d       	adc	r26, r1
    a570:	62 1f       	adc	r22, r18
    a572:	73 9f       	mul	r23, r19
    a574:	b0 0d       	add	r27, r0
    a576:	a1 1d       	adc	r26, r1
    a578:	62 1f       	adc	r22, r18
    a57a:	83 9f       	mul	r24, r19
    a57c:	a0 0d       	add	r26, r0
    a57e:	61 1d       	adc	r22, r1
    a580:	22 1f       	adc	r18, r18
    a582:	74 9f       	mul	r23, r20
    a584:	33 27       	eor	r19, r19
    a586:	a0 0d       	add	r26, r0
    a588:	61 1d       	adc	r22, r1
    a58a:	23 1f       	adc	r18, r19
    a58c:	84 9f       	mul	r24, r20
    a58e:	60 0d       	add	r22, r0
    a590:	21 1d       	adc	r18, r1
    a592:	82 2f       	mov	r24, r18
    a594:	76 2f       	mov	r23, r22
    a596:	6a 2f       	mov	r22, r26
    a598:	11 24       	eor	r1, r1
    a59a:	9f 57       	subi	r25, 0x7F	; 127
    a59c:	50 40       	sbci	r21, 0x00	; 0
    a59e:	8a f0       	brmi	.+34     	; 0xa5c2 <__mulsf3_pse+0x84>
    a5a0:	e1 f0       	breq	.+56     	; 0xa5da <__mulsf3_pse+0x9c>
    a5a2:	88 23       	and	r24, r24
    a5a4:	4a f0       	brmi	.+18     	; 0xa5b8 <__mulsf3_pse+0x7a>
    a5a6:	ee 0f       	add	r30, r30
    a5a8:	ff 1f       	adc	r31, r31
    a5aa:	bb 1f       	adc	r27, r27
    a5ac:	66 1f       	adc	r22, r22
    a5ae:	77 1f       	adc	r23, r23
    a5b0:	88 1f       	adc	r24, r24
    a5b2:	91 50       	subi	r25, 0x01	; 1
    a5b4:	50 40       	sbci	r21, 0x00	; 0
    a5b6:	a9 f7       	brne	.-22     	; 0xa5a2 <__mulsf3_pse+0x64>
    a5b8:	9e 3f       	cpi	r25, 0xFE	; 254
    a5ba:	51 05       	cpc	r21, r1
    a5bc:	70 f0       	brcs	.+28     	; 0xa5da <__mulsf3_pse+0x9c>
    a5be:	60 cf       	rjmp	.-320    	; 0xa480 <__fp_inf>
    a5c0:	aa cf       	rjmp	.-172    	; 0xa516 <__fp_szero>
    a5c2:	5f 3f       	cpi	r21, 0xFF	; 255
    a5c4:	ec f3       	brlt	.-6      	; 0xa5c0 <__mulsf3_pse+0x82>
    a5c6:	98 3e       	cpi	r25, 0xE8	; 232
    a5c8:	dc f3       	brlt	.-10     	; 0xa5c0 <__mulsf3_pse+0x82>
    a5ca:	86 95       	lsr	r24
    a5cc:	77 95       	ror	r23
    a5ce:	67 95       	ror	r22
    a5d0:	b7 95       	ror	r27
    a5d2:	f7 95       	ror	r31
    a5d4:	e7 95       	ror	r30
    a5d6:	9f 5f       	subi	r25, 0xFF	; 255
    a5d8:	c1 f7       	brne	.-16     	; 0xa5ca <__mulsf3_pse+0x8c>
    a5da:	fe 2b       	or	r31, r30
    a5dc:	88 0f       	add	r24, r24
    a5de:	91 1d       	adc	r25, r1
    a5e0:	96 95       	lsr	r25
    a5e2:	87 95       	ror	r24
    a5e4:	97 f9       	bld	r25, 7
    a5e6:	08 95       	ret

0000a5e8 <__mulsi3>:
    a5e8:	db 01       	movw	r26, r22
    a5ea:	8f 93       	push	r24
    a5ec:	9f 93       	push	r25
    a5ee:	8e d0       	rcall	.+284    	; 0xa70c <__muluhisi3>
    a5f0:	bf 91       	pop	r27
    a5f2:	af 91       	pop	r26
    a5f4:	a2 9f       	mul	r26, r18
    a5f6:	80 0d       	add	r24, r0
    a5f8:	91 1d       	adc	r25, r1
    a5fa:	a3 9f       	mul	r26, r19
    a5fc:	90 0d       	add	r25, r0
    a5fe:	b2 9f       	mul	r27, r18
    a600:	90 0d       	add	r25, r0
    a602:	11 24       	eor	r1, r1
    a604:	08 95       	ret

0000a606 <__udivmodhi4>:
    a606:	aa 1b       	sub	r26, r26
    a608:	bb 1b       	sub	r27, r27
    a60a:	51 e1       	ldi	r21, 0x11	; 17
    a60c:	07 c0       	rjmp	.+14     	; 0xa61c <__udivmodhi4_ep>

0000a60e <__udivmodhi4_loop>:
    a60e:	aa 1f       	adc	r26, r26
    a610:	bb 1f       	adc	r27, r27
    a612:	a6 17       	cp	r26, r22
    a614:	b7 07       	cpc	r27, r23
    a616:	10 f0       	brcs	.+4      	; 0xa61c <__udivmodhi4_ep>
    a618:	a6 1b       	sub	r26, r22
    a61a:	b7 0b       	sbc	r27, r23

0000a61c <__udivmodhi4_ep>:
    a61c:	88 1f       	adc	r24, r24
    a61e:	99 1f       	adc	r25, r25
    a620:	5a 95       	dec	r21
    a622:	a9 f7       	brne	.-22     	; 0xa60e <__udivmodhi4_loop>
    a624:	80 95       	com	r24
    a626:	90 95       	com	r25
    a628:	bc 01       	movw	r22, r24
    a62a:	cd 01       	movw	r24, r26
    a62c:	08 95       	ret

0000a62e <__divmodhi4>:
    a62e:	97 fb       	bst	r25, 7
    a630:	07 2e       	mov	r0, r23
    a632:	16 f4       	brtc	.+4      	; 0xa638 <__divmodhi4+0xa>
    a634:	00 94       	com	r0
    a636:	06 d0       	rcall	.+12     	; 0xa644 <__divmodhi4_neg1>
    a638:	77 fd       	sbrc	r23, 7
    a63a:	08 d0       	rcall	.+16     	; 0xa64c <__divmodhi4_neg2>
    a63c:	e4 df       	rcall	.-56     	; 0xa606 <__udivmodhi4>
    a63e:	07 fc       	sbrc	r0, 7
    a640:	05 d0       	rcall	.+10     	; 0xa64c <__divmodhi4_neg2>
    a642:	3e f4       	brtc	.+14     	; 0xa652 <__divmodhi4_exit>

0000a644 <__divmodhi4_neg1>:
    a644:	90 95       	com	r25
    a646:	81 95       	neg	r24
    a648:	9f 4f       	sbci	r25, 0xFF	; 255
    a64a:	08 95       	ret

0000a64c <__divmodhi4_neg2>:
    a64c:	70 95       	com	r23
    a64e:	61 95       	neg	r22
    a650:	7f 4f       	sbci	r23, 0xFF	; 255

0000a652 <__divmodhi4_exit>:
    a652:	08 95       	ret

0000a654 <__udivmodsi4>:
    a654:	a1 e2       	ldi	r26, 0x21	; 33
    a656:	1a 2e       	mov	r1, r26
    a658:	aa 1b       	sub	r26, r26
    a65a:	bb 1b       	sub	r27, r27
    a65c:	fd 01       	movw	r30, r26
    a65e:	0d c0       	rjmp	.+26     	; 0xa67a <__udivmodsi4_ep>

0000a660 <__udivmodsi4_loop>:
    a660:	aa 1f       	adc	r26, r26
    a662:	bb 1f       	adc	r27, r27
    a664:	ee 1f       	adc	r30, r30
    a666:	ff 1f       	adc	r31, r31
    a668:	a2 17       	cp	r26, r18
    a66a:	b3 07       	cpc	r27, r19
    a66c:	e4 07       	cpc	r30, r20
    a66e:	f5 07       	cpc	r31, r21
    a670:	20 f0       	brcs	.+8      	; 0xa67a <__udivmodsi4_ep>
    a672:	a2 1b       	sub	r26, r18
    a674:	b3 0b       	sbc	r27, r19
    a676:	e4 0b       	sbc	r30, r20
    a678:	f5 0b       	sbc	r31, r21

0000a67a <__udivmodsi4_ep>:
    a67a:	66 1f       	adc	r22, r22
    a67c:	77 1f       	adc	r23, r23
    a67e:	88 1f       	adc	r24, r24
    a680:	99 1f       	adc	r25, r25
    a682:	1a 94       	dec	r1
    a684:	69 f7       	brne	.-38     	; 0xa660 <__udivmodsi4_loop>
    a686:	60 95       	com	r22
    a688:	70 95       	com	r23
    a68a:	80 95       	com	r24
    a68c:	90 95       	com	r25
    a68e:	9b 01       	movw	r18, r22
    a690:	ac 01       	movw	r20, r24
    a692:	bd 01       	movw	r22, r26
    a694:	cf 01       	movw	r24, r30
    a696:	08 95       	ret

0000a698 <__divmodsi4>:
    a698:	05 2e       	mov	r0, r21
    a69a:	97 fb       	bst	r25, 7
    a69c:	16 f4       	brtc	.+4      	; 0xa6a2 <__divmodsi4+0xa>
    a69e:	00 94       	com	r0
    a6a0:	0f d0       	rcall	.+30     	; 0xa6c0 <__negsi2>
    a6a2:	57 fd       	sbrc	r21, 7
    a6a4:	05 d0       	rcall	.+10     	; 0xa6b0 <__divmodsi4_neg2>
    a6a6:	d6 df       	rcall	.-84     	; 0xa654 <__udivmodsi4>
    a6a8:	07 fc       	sbrc	r0, 7
    a6aa:	02 d0       	rcall	.+4      	; 0xa6b0 <__divmodsi4_neg2>
    a6ac:	46 f4       	brtc	.+16     	; 0xa6be <__divmodsi4_exit>
    a6ae:	08 c0       	rjmp	.+16     	; 0xa6c0 <__negsi2>

0000a6b0 <__divmodsi4_neg2>:
    a6b0:	50 95       	com	r21
    a6b2:	40 95       	com	r20
    a6b4:	30 95       	com	r19
    a6b6:	21 95       	neg	r18
    a6b8:	3f 4f       	sbci	r19, 0xFF	; 255
    a6ba:	4f 4f       	sbci	r20, 0xFF	; 255
    a6bc:	5f 4f       	sbci	r21, 0xFF	; 255

0000a6be <__divmodsi4_exit>:
    a6be:	08 95       	ret

0000a6c0 <__negsi2>:
    a6c0:	90 95       	com	r25
    a6c2:	80 95       	com	r24
    a6c4:	70 95       	com	r23
    a6c6:	61 95       	neg	r22
    a6c8:	7f 4f       	sbci	r23, 0xFF	; 255
    a6ca:	8f 4f       	sbci	r24, 0xFF	; 255
    a6cc:	9f 4f       	sbci	r25, 0xFF	; 255
    a6ce:	08 95       	ret

0000a6d0 <__tablejump2__>:
    a6d0:	ee 0f       	add	r30, r30
    a6d2:	ff 1f       	adc	r31, r31
    a6d4:	00 24       	eor	r0, r0
    a6d6:	00 1c       	adc	r0, r0
    a6d8:	0b be       	out	0x3b, r0	; 59
    a6da:	07 90       	elpm	r0, Z+
    a6dc:	f6 91       	elpm	r31, Z
    a6de:	e0 2d       	mov	r30, r0
    a6e0:	09 94       	ijmp

0000a6e2 <__umulhisi3>:
    a6e2:	a2 9f       	mul	r26, r18
    a6e4:	b0 01       	movw	r22, r0
    a6e6:	b3 9f       	mul	r27, r19
    a6e8:	c0 01       	movw	r24, r0
    a6ea:	a3 9f       	mul	r26, r19
    a6ec:	70 0d       	add	r23, r0
    a6ee:	81 1d       	adc	r24, r1
    a6f0:	11 24       	eor	r1, r1
    a6f2:	91 1d       	adc	r25, r1
    a6f4:	b2 9f       	mul	r27, r18
    a6f6:	70 0d       	add	r23, r0
    a6f8:	81 1d       	adc	r24, r1
    a6fa:	11 24       	eor	r1, r1
    a6fc:	91 1d       	adc	r25, r1
    a6fe:	08 95       	ret

0000a700 <__usmulhisi3>:
    a700:	f0 df       	rcall	.-32     	; 0xa6e2 <__umulhisi3>

0000a702 <__usmulhisi3_tail>:
    a702:	b7 ff       	sbrs	r27, 7
    a704:	08 95       	ret
    a706:	82 1b       	sub	r24, r18
    a708:	93 0b       	sbc	r25, r19
    a70a:	08 95       	ret

0000a70c <__muluhisi3>:
    a70c:	ea df       	rcall	.-44     	; 0xa6e2 <__umulhisi3>
    a70e:	a5 9f       	mul	r26, r21
    a710:	90 0d       	add	r25, r0
    a712:	b4 9f       	mul	r27, r20
    a714:	90 0d       	add	r25, r0
    a716:	a4 9f       	mul	r26, r20
    a718:	80 0d       	add	r24, r0
    a71a:	91 1d       	adc	r25, r1
    a71c:	11 24       	eor	r1, r1
    a71e:	08 95       	ret

0000a720 <random_r>:
    a720:	8f 92       	push	r8
    a722:	9f 92       	push	r9
    a724:	af 92       	push	r10
    a726:	bf 92       	push	r11
    a728:	cf 92       	push	r12
    a72a:	df 92       	push	r13
    a72c:	ef 92       	push	r14
    a72e:	ff 92       	push	r15
    a730:	cf 93       	push	r28
    a732:	df 93       	push	r29
    a734:	ec 01       	movw	r28, r24
    a736:	68 81       	ld	r22, Y
    a738:	79 81       	ldd	r23, Y+1	; 0x01
    a73a:	8a 81       	ldd	r24, Y+2	; 0x02
    a73c:	9b 81       	ldd	r25, Y+3	; 0x03
    a73e:	61 15       	cp	r22, r1
    a740:	71 05       	cpc	r23, r1
    a742:	81 05       	cpc	r24, r1
    a744:	91 05       	cpc	r25, r1
    a746:	21 f4       	brne	.+8      	; 0xa750 <random_r+0x30>
    a748:	64 e2       	ldi	r22, 0x24	; 36
    a74a:	79 ed       	ldi	r23, 0xD9	; 217
    a74c:	8b e5       	ldi	r24, 0x5B	; 91
    a74e:	97 e0       	ldi	r25, 0x07	; 7
    a750:	2d e1       	ldi	r18, 0x1D	; 29
    a752:	33 ef       	ldi	r19, 0xF3	; 243
    a754:	41 e0       	ldi	r20, 0x01	; 1
    a756:	50 e0       	ldi	r21, 0x00	; 0
    a758:	9f df       	rcall	.-194    	; 0xa698 <__divmodsi4>
    a75a:	49 01       	movw	r8, r18
    a75c:	5a 01       	movw	r10, r20
    a75e:	9b 01       	movw	r18, r22
    a760:	ac 01       	movw	r20, r24
    a762:	a7 ea       	ldi	r26, 0xA7	; 167
    a764:	b1 e4       	ldi	r27, 0x41	; 65
    a766:	d2 df       	rcall	.-92     	; 0xa70c <__muluhisi3>
    a768:	6b 01       	movw	r12, r22
    a76a:	7c 01       	movw	r14, r24
    a76c:	ac ee       	ldi	r26, 0xEC	; 236
    a76e:	b4 ef       	ldi	r27, 0xF4	; 244
    a770:	a5 01       	movw	r20, r10
    a772:	94 01       	movw	r18, r8
    a774:	94 d0       	rcall	.+296    	; 0xa89e <__mulohisi3>
    a776:	c6 0e       	add	r12, r22
    a778:	d7 1e       	adc	r13, r23
    a77a:	e8 1e       	adc	r14, r24
    a77c:	f9 1e       	adc	r15, r25
    a77e:	f7 fe       	sbrs	r15, 7
    a780:	06 c0       	rjmp	.+12     	; 0xa78e <random_r+0x6e>
    a782:	81 e0       	ldi	r24, 0x01	; 1
    a784:	c8 1a       	sub	r12, r24
    a786:	d1 08       	sbc	r13, r1
    a788:	e1 08       	sbc	r14, r1
    a78a:	80 e8       	ldi	r24, 0x80	; 128
    a78c:	f8 0a       	sbc	r15, r24
    a78e:	c8 82       	st	Y, r12
    a790:	d9 82       	std	Y+1, r13	; 0x01
    a792:	ea 82       	std	Y+2, r14	; 0x02
    a794:	fb 82       	std	Y+3, r15	; 0x03
    a796:	c7 01       	movw	r24, r14
    a798:	b6 01       	movw	r22, r12
    a79a:	9f 77       	andi	r25, 0x7F	; 127
    a79c:	df 91       	pop	r29
    a79e:	cf 91       	pop	r28
    a7a0:	ff 90       	pop	r15
    a7a2:	ef 90       	pop	r14
    a7a4:	df 90       	pop	r13
    a7a6:	cf 90       	pop	r12
    a7a8:	bf 90       	pop	r11
    a7aa:	af 90       	pop	r10
    a7ac:	9f 90       	pop	r9
    a7ae:	8f 90       	pop	r8
    a7b0:	08 95       	ret

0000a7b2 <random>:
    a7b2:	8f 92       	push	r8
    a7b4:	9f 92       	push	r9
    a7b6:	af 92       	push	r10
    a7b8:	bf 92       	push	r11
    a7ba:	cf 92       	push	r12
    a7bc:	df 92       	push	r13
    a7be:	ef 92       	push	r14
    a7c0:	ff 92       	push	r15
    a7c2:	60 91 00 01 	lds	r22, 0x0100	; 0x800100 <__data_start>
    a7c6:	70 91 01 01 	lds	r23, 0x0101	; 0x800101 <__data_start+0x1>
    a7ca:	80 91 02 01 	lds	r24, 0x0102	; 0x800102 <__data_start+0x2>
    a7ce:	90 91 03 01 	lds	r25, 0x0103	; 0x800103 <__data_start+0x3>
    a7d2:	61 15       	cp	r22, r1
    a7d4:	71 05       	cpc	r23, r1
    a7d6:	81 05       	cpc	r24, r1
    a7d8:	91 05       	cpc	r25, r1
    a7da:	21 f4       	brne	.+8      	; 0xa7e4 <random+0x32>
    a7dc:	64 e2       	ldi	r22, 0x24	; 36
    a7de:	79 ed       	ldi	r23, 0xD9	; 217
    a7e0:	8b e5       	ldi	r24, 0x5B	; 91
    a7e2:	97 e0       	ldi	r25, 0x07	; 7
    a7e4:	2d e1       	ldi	r18, 0x1D	; 29
    a7e6:	33 ef       	ldi	r19, 0xF3	; 243
    a7e8:	41 e0       	ldi	r20, 0x01	; 1
    a7ea:	50 e0       	ldi	r21, 0x00	; 0
    a7ec:	55 df       	rcall	.-342    	; 0xa698 <__divmodsi4>
    a7ee:	49 01       	movw	r8, r18
    a7f0:	5a 01       	movw	r10, r20
    a7f2:	9b 01       	movw	r18, r22
    a7f4:	ac 01       	movw	r20, r24
    a7f6:	a7 ea       	ldi	r26, 0xA7	; 167
    a7f8:	b1 e4       	ldi	r27, 0x41	; 65
    a7fa:	88 df       	rcall	.-240    	; 0xa70c <__muluhisi3>
    a7fc:	6b 01       	movw	r12, r22
    a7fe:	7c 01       	movw	r14, r24
    a800:	ac ee       	ldi	r26, 0xEC	; 236
    a802:	b4 ef       	ldi	r27, 0xF4	; 244
    a804:	a5 01       	movw	r20, r10
    a806:	94 01       	movw	r18, r8
    a808:	4a d0       	rcall	.+148    	; 0xa89e <__mulohisi3>
    a80a:	c6 0e       	add	r12, r22
    a80c:	d7 1e       	adc	r13, r23
    a80e:	e8 1e       	adc	r14, r24
    a810:	f9 1e       	adc	r15, r25
    a812:	f7 fe       	sbrs	r15, 7
    a814:	06 c0       	rjmp	.+12     	; 0xa822 <random+0x70>
    a816:	81 e0       	ldi	r24, 0x01	; 1
    a818:	c8 1a       	sub	r12, r24
    a81a:	d1 08       	sbc	r13, r1
    a81c:	e1 08       	sbc	r14, r1
    a81e:	80 e8       	ldi	r24, 0x80	; 128
    a820:	f8 0a       	sbc	r15, r24
    a822:	c0 92 00 01 	sts	0x0100, r12	; 0x800100 <__data_start>
    a826:	d0 92 01 01 	sts	0x0101, r13	; 0x800101 <__data_start+0x1>
    a82a:	e0 92 02 01 	sts	0x0102, r14	; 0x800102 <__data_start+0x2>
    a82e:	f0 92 03 01 	sts	0x0103, r15	; 0x800103 <__data_start+0x3>
    a832:	c7 01       	movw	r24, r14
    a834:	b6 01       	movw	r22, r12
    a836:	9f 77       	andi	r25, 0x7F	; 127
    a838:	ff 90       	pop	r15
    a83a:	ef 90       	pop	r14
    a83c:	df 90       	pop	r13
    a83e:	cf 90       	pop	r12
    a840:	bf 90       	pop	r11
    a842:	af 90       	pop	r10
    a844:	9f 90       	pop	r9
    a846:	8f 90       	pop	r8
    a848:	08 95       	ret

0000a84a <srandom>:
    a84a:	60 93 00 01 	sts	0x0100, r22	; 0x800100 <__data_start>
    a84e:	70 93 01 01 	sts	0x0101, r23	; 0x800101 <__data_start+0x1>
    a852:	80 93 02 01 	sts	0x0102, r24	; 0x800102 <__data_start+0x2>
    a856:	90 93 03 01 	sts	0x0103, r25	; 0x800103 <__data_start+0x3>
    a85a:	08 95       	ret

0000a85c <memcpy>:
    a85c:	fb 01       	movw	r30, r22
    a85e:	dc 01       	movw	r26, r24
    a860:	02 c0       	rjmp	.+4      	; 0xa866 <memcpy+0xa>
    a862:	01 90       	ld	r0, Z+
    a864:	0d 92       	st	X+, r0
    a866:	41 50       	subi	r20, 0x01	; 1
    a868:	50 40       	sbci	r21, 0x00	; 0
    a86a:	d8 f7       	brcc	.-10     	; 0xa862 <memcpy+0x6>
    a86c:	08 95       	ret

0000a86e <strcpy>:
    a86e:	fb 01       	movw	r30, r22
    a870:	dc 01       	movw	r26, r24
    a872:	01 90       	ld	r0, Z+
    a874:	0d 92       	st	X+, r0
    a876:	00 20       	and	r0, r0
    a878:	e1 f7       	brne	.-8      	; 0xa872 <strcpy+0x4>
    a87a:	08 95       	ret

0000a87c <strncpy>:
    a87c:	fb 01       	movw	r30, r22
    a87e:	dc 01       	movw	r26, r24
    a880:	41 50       	subi	r20, 0x01	; 1
    a882:	50 40       	sbci	r21, 0x00	; 0
    a884:	48 f0       	brcs	.+18     	; 0xa898 <strncpy+0x1c>
    a886:	01 90       	ld	r0, Z+
    a888:	0d 92       	st	X+, r0
    a88a:	00 20       	and	r0, r0
    a88c:	c9 f7       	brne	.-14     	; 0xa880 <strncpy+0x4>
    a88e:	01 c0       	rjmp	.+2      	; 0xa892 <strncpy+0x16>
    a890:	1d 92       	st	X+, r1
    a892:	41 50       	subi	r20, 0x01	; 1
    a894:	50 40       	sbci	r21, 0x00	; 0
    a896:	e0 f7       	brcc	.-8      	; 0xa890 <strncpy+0x14>
    a898:	08 95       	ret

0000a89a <__mulshisi3>:
    a89a:	b7 ff       	sbrs	r27, 7
    a89c:	37 cf       	rjmp	.-402    	; 0xa70c <__muluhisi3>

0000a89e <__mulohisi3>:
    a89e:	36 df       	rcall	.-404    	; 0xa70c <__muluhisi3>
    a8a0:	82 1b       	sub	r24, r18
    a8a2:	93 0b       	sbc	r25, r19
    a8a4:	08 95       	ret

0000a8a6 <__do_global_dtors>:
    a8a6:	16 e0       	ldi	r17, 0x06	; 6
    a8a8:	c5 ef       	ldi	r28, 0xF5	; 245
    a8aa:	d6 e0       	ldi	r29, 0x06	; 6
    a8ac:	03 c0       	rjmp	.+6      	; 0xa8b4 <__do_global_dtors+0xe>
    a8ae:	fe 01       	movw	r30, r28
    a8b0:	0f df       	rcall	.-482    	; 0xa6d0 <__tablejump2__>
    a8b2:	21 96       	adiw	r28, 0x01	; 1
    a8b4:	c6 3f       	cpi	r28, 0xF6	; 246
    a8b6:	d1 07       	cpc	r29, r17
    a8b8:	d1 f7       	brne	.-12     	; 0xa8ae <__do_global_dtors+0x8>
    a8ba:	f8 94       	cli

0000a8bc <__stop_program>:
    a8bc:	ff cf       	rjmp	.-2      	; 0xa8bc <__stop_program>
